
main.elf:     file format elf32-avr

Sections:
Idx Name          Size      VMA       LMA       File off  Algn
  0 .data         0000000c  00800100  00001d5a  00001dee  2**0
                  CONTENTS, ALLOC, LOAD, DATA
  1 .text         00001d5a  00000000  00000000  00000094  2**1
                  CONTENTS, ALLOC, LOAD, READONLY, CODE
  2 .bss          00000003  0080010c  0080010c  00001dfa  2**0
                  ALLOC
  3 .comment      00000030  00000000  00000000  00001dfa  2**0
                  CONTENTS, READONLY
  4 .note.gnu.avr.deviceinfo 0000003c  00000000  00000000  00001e2c  2**2
                  CONTENTS, READONLY
  5 .debug_aranges 000000e0  00000000  00000000  00001e68  2**0
                  CONTENTS, READONLY, DEBUGGING
  6 .debug_info   00001e46  00000000  00000000  00001f48  2**0
                  CONTENTS, READONLY, DEBUGGING
  7 .debug_abbrev 0000097e  00000000  00000000  00003d8e  2**0
                  CONTENTS, READONLY, DEBUGGING
  8 .debug_line   00000b87  00000000  00000000  0000470c  2**0
                  CONTENTS, READONLY, DEBUGGING
  9 .debug_frame  00000448  00000000  00000000  00005294  2**2
                  CONTENTS, READONLY, DEBUGGING
 10 .debug_str    00000547  00000000  00000000  000056dc  2**0
                  CONTENTS, READONLY, DEBUGGING
 11 .debug_loc    00001c14  00000000  00000000  00005c23  2**0
                  CONTENTS, READONLY, DEBUGGING
 12 .debug_ranges 000000e8  00000000  00000000  00007837  2**0
                  CONTENTS, READONLY, DEBUGGING

Disassembly of section .text:

00000000 <__vectors>:
       0:	0c 94 ac 09 	jmp	0x1358	; 0x1358 <__ctors_end>
       4:	0c 94 c9 09 	jmp	0x1392	; 0x1392 <__bad_interrupt>
       8:	0c 94 c9 09 	jmp	0x1392	; 0x1392 <__bad_interrupt>
       c:	0c 94 c9 09 	jmp	0x1392	; 0x1392 <__bad_interrupt>
      10:	0c 94 c9 09 	jmp	0x1392	; 0x1392 <__bad_interrupt>
      14:	0c 94 c9 09 	jmp	0x1392	; 0x1392 <__bad_interrupt>
      18:	0c 94 c9 09 	jmp	0x1392	; 0x1392 <__bad_interrupt>
      1c:	0c 94 c9 09 	jmp	0x1392	; 0x1392 <__bad_interrupt>
      20:	0c 94 c9 09 	jmp	0x1392	; 0x1392 <__bad_interrupt>
      24:	0c 94 c9 09 	jmp	0x1392	; 0x1392 <__bad_interrupt>
      28:	0c 94 c9 09 	jmp	0x1392	; 0x1392 <__bad_interrupt>
      2c:	0c 94 c9 09 	jmp	0x1392	; 0x1392 <__bad_interrupt>
      30:	0c 94 c9 09 	jmp	0x1392	; 0x1392 <__bad_interrupt>
      34:	0c 94 c9 09 	jmp	0x1392	; 0x1392 <__bad_interrupt>
      38:	0c 94 c9 09 	jmp	0x1392	; 0x1392 <__bad_interrupt>
      3c:	0c 94 c9 09 	jmp	0x1392	; 0x1392 <__bad_interrupt>
      40:	0c 94 c9 09 	jmp	0x1392	; 0x1392 <__bad_interrupt>
      44:	0c 94 c9 09 	jmp	0x1392	; 0x1392 <__bad_interrupt>
      48:	0c 94 c9 09 	jmp	0x1392	; 0x1392 <__bad_interrupt>
      4c:	0c 94 c9 09 	jmp	0x1392	; 0x1392 <__bad_interrupt>
      50:	0c 94 c9 09 	jmp	0x1392	; 0x1392 <__bad_interrupt>
      54:	0c 94 c9 09 	jmp	0x1392	; 0x1392 <__bad_interrupt>
      58:	0c 94 c9 09 	jmp	0x1392	; 0x1392 <__bad_interrupt>
      5c:	0c 94 c9 09 	jmp	0x1392	; 0x1392 <__bad_interrupt>
      60:	0c 94 c9 09 	jmp	0x1392	; 0x1392 <__bad_interrupt>
      64:	0c 94 c9 09 	jmp	0x1392	; 0x1392 <__bad_interrupt>
      68:	0c 94 c9 09 	jmp	0x1392	; 0x1392 <__bad_interrupt>
      6c:	0c 94 c9 09 	jmp	0x1392	; 0x1392 <__bad_interrupt>

00000070 <__trampolines_end>:
      70:	c1 00       	.word	0x00c1	; ????
      72:	c1 00       	.word	0x00c1	; ????
      74:	c1 00       	.word	0x00c1	; ????
      76:	c1 00       	.word	0x00c1	; ????
      78:	00 00       	nop
      7a:	00 00       	nop
      7c:	c2 00       	.word	0x00c2	; ????
      7e:	c2 00       	.word	0x00c2	; ????
      80:	fe 00       	.word	0x00fe	; ????
      82:	fe 00       	.word	0x00fe	; ????
      84:	01 00       	.word	0x0001	; ????
      86:	00 00       	nop
      88:	c3 00       	.word	0x00c3	; ????
      8a:	c3 00       	.word	0x00c3	; ????
      8c:	1f 00       	.word	0x001f	; ????
      8e:	1f 00       	.word	0x001f	; ????
      90:	01 00       	.word	0x0001	; ????
      92:	00 00       	nop
      94:	c4 00       	.word	0x00c4	; ????
      96:	c4 00       	.word	0x00c4	; ????
      98:	fc 00       	.word	0x00fc	; ????
      9a:	fc 00       	.word	0x00fc	; ????
      9c:	01 00       	.word	0x0001	; ????
      9e:	00 00       	nop
      a0:	c5 00       	.word	0x00c5	; ????
      a2:	c5 00       	.word	0x00c5	; ????
      a4:	c5 00       	.word	0x00c5	; ????
      a6:	c5 00       	.word	0x00c5	; ????
      a8:	01 00       	.word	0x0001	; ????
      aa:	01 00       	.word	0x0001	; ????
      ac:	c6 00       	.word	0x00c6	; ????
      ae:	bd 00       	.word	0x00bd	; ????
      b0:	bf 00       	.word	0x00bf	; ????
      b2:	be 00       	.word	0x00be	; ????
      b4:	01 00       	.word	0x0001	; ????
      b6:	01 00       	.word	0x0001	; ????
      b8:	c7 00       	.word	0x00c7	; ????
      ba:	c7 00       	.word	0x00c7	; ????
      bc:	c0 00       	.word	0x00c0	; ????
      be:	c0 00       	.word	0x00c0	; ????
      c0:	01 00       	.word	0x0001	; ????
      c2:	00 00       	nop
      c4:	c8 00       	.word	0x00c8	; ????
      c6:	82 00       	.word	0x0082	; ????
      c8:	84 00       	.word	0x0084	; ????
      ca:	83 00       	.word	0x0083	; ????
      cc:	01 00       	.word	0x0001	; ????
      ce:	01 00       	.word	0x0001	; ????
      d0:	c9 00       	.word	0x00c9	; ????
      d2:	c9 00       	.word	0x00c9	; ????
      d4:	fd 00       	.word	0x00fd	; ????
      d6:	fd 00       	.word	0x00fd	; ????
      d8:	01 00       	.word	0x0001	; ????
      da:	00 00       	nop
      dc:	ca 00       	.word	0x00ca	; ????
      de:	85 00       	.word	0x0085	; ????
      e0:	87 00       	.word	0x0087	; ????
      e2:	86 00       	.word	0x0086	; ????
      e4:	01 00       	.word	0x0001	; ????
      e6:	01 00       	.word	0x0001	; ????
      e8:	cb 00       	.word	0x00cb	; ????
      ea:	88 00       	.word	0x0088	; ????
      ec:	8a 00       	.word	0x008a	; ????
      ee:	89 00       	.word	0x0089	; ????
      f0:	01 00       	.word	0x0001	; ????
      f2:	01 00       	.word	0x0001	; ????
      f4:	cc 00       	.word	0x00cc	; ????
      f6:	8b 00       	.word	0x008b	; ????
      f8:	cc 00       	.word	0x00cc	; ????
      fa:	8b 00       	.word	0x008b	; ????
      fc:	01 00       	.word	0x0001	; ????
      fe:	01 00       	.word	0x0001	; ????
     100:	cd 00       	.word	0x00cd	; ????
     102:	8c 00       	.word	0x008c	; ????
     104:	cd 00       	.word	0x00cd	; ????
     106:	8c 00       	.word	0x008c	; ????
     108:	01 00       	.word	0x0001	; ????
     10a:	01 00       	.word	0x0001	; ????
     10c:	ce 00       	.word	0x00ce	; ????
     10e:	11 00       	.word	0x0011	; ????
     110:	ce 00       	.word	0x00ce	; ????
     112:	11 00       	.word	0x0011	; ????
     114:	01 00       	.word	0x0001	; ????
     116:	01 00       	.word	0x0001	; ????
     118:	cf 00       	.word	0x00cf	; ????
     11a:	cf 00       	.word	0x00cf	; ????
     11c:	13 00       	.word	0x0013	; ????
     11e:	13 00       	.word	0x0013	; ????
     120:	01 00       	.word	0x0001	; ????
     122:	00 00       	nop
     124:	d0 00       	.word	0x00d0	; ????
     126:	d0 00       	.word	0x00d0	; ????
     128:	8f 00       	.word	0x008f	; ????
     12a:	8f 00       	.word	0x008f	; ????
     12c:	01 00       	.word	0x0001	; ????
     12e:	00 00       	nop
     130:	d1 00       	.word	0x00d1	; ????
     132:	d1 00       	.word	0x00d1	; ????
     134:	1b 00       	.word	0x001b	; ????
     136:	1b 00       	.word	0x001b	; ????
     138:	01 00       	.word	0x0001	; ????
     13a:	00 00       	nop
     13c:	d2 00       	.word	0x00d2	; ????
     13e:	d2 00       	.word	0x00d2	; ????
     140:	91 00       	.word	0x0091	; ????
     142:	91 00       	.word	0x0091	; ????
     144:	01 00       	.word	0x0001	; ????
     146:	00 00       	nop
     148:	d3 00       	.word	0x00d3	; ????
     14a:	92 00       	.word	0x0092	; ????
     14c:	94 00       	.word	0x0094	; ????
     14e:	93 00       	.word	0x0093	; ????
     150:	01 00       	.word	0x0001	; ????
     152:	01 00       	.word	0x0001	; ????
     154:	d4 00       	.word	0x00d4	; ????
     156:	95 00       	.word	0x0095	; ????
     158:	97 00       	.word	0x0097	; ????
     15a:	96 00       	.word	0x0096	; ????
     15c:	01 00       	.word	0x0001	; ????
     15e:	01 00       	.word	0x0001	; ????
     160:	d5 00       	.word	0x00d5	; ????
     162:	17 00       	.word	0x0017	; ????
     164:	9a 00       	.word	0x009a	; ????
     166:	99 00       	.word	0x0099	; ????
     168:	01 00       	.word	0x0001	; ????
     16a:	01 00       	.word	0x0001	; ????
     16c:	d6 00       	.word	0x00d6	; ????
     16e:	9b 00       	.word	0x009b	; ????
     170:	9d 00       	.word	0x009d	; ????
     172:	9c 00       	.word	0x009c	; ????
     174:	01 00       	.word	0x0001	; ????
     176:	01 00       	.word	0x0001	; ????
     178:	d7 00       	.word	0x00d7	; ????
     17a:	d7 00       	.word	0x00d7	; ????
     17c:	d7 00       	.word	0x00d7	; ????
     17e:	d7 00       	.word	0x00d7	; ????
     180:	00 00       	nop
     182:	00 00       	nop
     184:	d8 00       	.word	0x00d8	; ????
     186:	d8 00       	.word	0x00d8	; ????
     188:	9e 00       	.word	0x009e	; ????
     18a:	9e 00       	.word	0x009e	; ????
     18c:	01 00       	.word	0x0001	; ????
     18e:	01 00       	.word	0x0001	; ????
     190:	d9 00       	.word	0x00d9	; ????
     192:	d9 00       	.word	0x00d9	; ????
     194:	9f 00       	.word	0x009f	; ????
     196:	9f 00       	.word	0x009f	; ????
     198:	01 00       	.word	0x0001	; ????
     19a:	01 00       	.word	0x0001	; ????
     19c:	da 00       	.word	0x00da	; ????
     19e:	a0 00       	.word	0x00a0	; ????
     1a0:	a2 00       	.word	0x00a2	; ????
     1a2:	a1 00       	.word	0x00a1	; ????
     1a4:	01 00       	.word	0x0001	; ????
     1a6:	01 00       	.word	0x0001	; ????
     1a8:	db 00       	.word	0x00db	; ????
     1aa:	a3 00       	.word	0x00a3	; ????
     1ac:	a5 00       	.word	0x00a5	; ????
     1ae:	a4 00       	.word	0x00a4	; ????
     1b0:	01 00       	.word	0x0001	; ????
     1b2:	01 00       	.word	0x0001	; ????
     1b4:	dc 00       	.word	0x00dc	; ????
     1b6:	dc 00       	.word	0x00dc	; ????
     1b8:	dc 00       	.word	0x00dc	; ????
     1ba:	dc 00       	.word	0x00dc	; ????
     1bc:	00 00       	nop
     1be:	00 00       	nop
     1c0:	dd 00       	.word	0x00dd	; ????
     1c2:	a6 00       	.word	0x00a6	; ????
     1c4:	a8 00       	.word	0x00a8	; ????
     1c6:	a7 00       	.word	0x00a7	; ????
     1c8:	01 00       	.word	0x0001	; ????
     1ca:	01 00       	.word	0x0001	; ????
     1cc:	de 00       	.word	0x00de	; ????
     1ce:	a9 00       	.word	0x00a9	; ????
     1d0:	ab 00       	.word	0x00ab	; ????
     1d2:	aa 00       	.word	0x00aa	; ????
     1d4:	01 00       	.word	0x0001	; ????
     1d6:	01 00       	.word	0x0001	; ????
     1d8:	df 00       	.word	0x00df	; ????
     1da:	ac 00       	.word	0x00ac	; ????
     1dc:	ae 00       	.word	0x00ae	; ????
     1de:	ad 00       	.word	0x00ad	; ????
     1e0:	01 00       	.word	0x0001	; ????
     1e2:	01 00       	.word	0x0001	; ????
     1e4:	e0 00       	.word	0x00e0	; ????
     1e6:	e0 00       	.word	0x00e0	; ????
     1e8:	e0 00       	.word	0x00e0	; ????
     1ea:	e0 00       	.word	0x00e0	; ????
     1ec:	00 00       	nop
     1ee:	00 00       	nop
     1f0:	e1 00       	.word	0x00e1	; ????
     1f2:	af 00       	.word	0x00af	; ????
     1f4:	b1 00       	.word	0x00b1	; ????
     1f6:	b0 00       	.word	0x00b0	; ????
     1f8:	01 00       	.word	0x0001	; ????
     1fa:	01 00       	.word	0x0001	; ????
     1fc:	e2 00       	.word	0x00e2	; ????
     1fe:	e2 00       	.word	0x00e2	; ????
     200:	e2 00       	.word	0x00e2	; ????
     202:	e2 00       	.word	0x00e2	; ????
     204:	00 00       	nop
     206:	00 00       	nop
     208:	e3 00       	.word	0x00e3	; ????
     20a:	b2 00       	.word	0x00b2	; ????
     20c:	b4 00       	.word	0x00b4	; ????
     20e:	b3 00       	.word	0x00b3	; ????
     210:	01 00       	.word	0x0001	; ????
     212:	01 00       	.word	0x0001	; ????
     214:	e4 00       	.word	0x00e4	; ????
     216:	b5 00       	.word	0x00b5	; ????
     218:	b7 00       	.word	0x00b7	; ????
     21a:	b6 00       	.word	0x00b6	; ????
     21c:	01 00       	.word	0x0001	; ????
     21e:	01 00       	.word	0x0001	; ????
     220:	e5 00       	.word	0x00e5	; ????
     222:	b8 00       	.word	0x00b8	; ????
     224:	ba 00       	.word	0x00ba	; ????
     226:	b9 00       	.word	0x00b9	; ????
     228:	01 00       	.word	0x0001	; ????
     22a:	01 00       	.word	0x0001	; ????
     22c:	e6 00       	.word	0x00e6	; ????
     22e:	e6 00       	.word	0x00e6	; ????
     230:	bc 00       	.word	0x00bc	; ????
     232:	bc 00       	.word	0x00bc	; ????
     234:	01 00       	.word	0x0001	; ????
     236:	00 00       	nop
     238:	e7 00       	.word	0x00e7	; ????
     23a:	e7 00       	.word	0x00e7	; ????
     23c:	e7 00       	.word	0x00e7	; ????
     23e:	e7 00       	.word	0x00e7	; ????
     240:	00 00       	nop
     242:	00 00       	nop
     244:	e8 00       	.word	0x00e8	; ????
     246:	e8 00       	.word	0x00e8	; ????
     248:	e8 00       	.word	0x00e8	; ????
     24a:	e8 00       	.word	0x00e8	; ????
     24c:	00 00       	nop
     24e:	00 00       	nop
     250:	e9 00       	.word	0x00e9	; ????
     252:	e9 00       	.word	0x00e9	; ????
     254:	e9 00       	.word	0x00e9	; ????
     256:	e9 00       	.word	0x00e9	; ????
     258:	00 00       	nop
     25a:	00 00       	nop
     25c:	ea 00       	.word	0x00ea	; ????
     25e:	ea 00       	.word	0x00ea	; ????
     260:	ea 00       	.word	0x00ea	; ????
     262:	ea 00       	.word	0x00ea	; ????
     264:	00 00       	nop
     266:	00 00       	nop
     268:	eb 00       	.word	0x00eb	; ????
     26a:	eb 00       	.word	0x00eb	; ????
     26c:	eb 00       	.word	0x00eb	; ????
     26e:	eb 00       	.word	0x00eb	; ????
     270:	00 00       	nop
     272:	00 00       	nop
     274:	ec 00       	.word	0x00ec	; ????
     276:	bd 00       	.word	0x00bd	; ????
     278:	bf 00       	.word	0x00bf	; ????
     27a:	be 00       	.word	0x00be	; ????
     27c:	01 00       	.word	0x0001	; ????
     27e:	01 00       	.word	0x0001	; ????
     280:	ed 00       	.word	0x00ed	; ????
     282:	bd 00       	.word	0x00bd	; ????
     284:	bf 00       	.word	0x00bf	; ????
     286:	be 00       	.word	0x00be	; ????
     288:	01 00       	.word	0x0001	; ????
     28a:	01 00       	.word	0x0001	; ????
     28c:	ee 00       	.word	0x00ee	; ????
     28e:	ee 00       	.word	0x00ee	; ????
     290:	ee 00       	.word	0x00ee	; ????
     292:	ee 00       	.word	0x00ee	; ????
     294:	00 00       	nop
     296:	00 00       	nop
     298:	ef 00       	.word	0x00ef	; ????
     29a:	ef 00       	.word	0x00ef	; ????
     29c:	ef 00       	.word	0x00ef	; ????
     29e:	ef 00       	.word	0x00ef	; ????
     2a0:	00 00       	nop
     2a2:	00 00       	nop
     2a4:	f0 00       	.word	0x00f0	; ????
     2a6:	f0 00       	.word	0x00f0	; ????
     2a8:	f0 00       	.word	0x00f0	; ????
     2aa:	f0 00       	.word	0x00f0	; ????
     2ac:	00 00       	nop
     2ae:	00 00       	nop
     2b0:	f1 00       	.word	0x00f1	; ????
     2b2:	f1 00       	.word	0x00f1	; ????
     2b4:	f1 00       	.word	0x00f1	; ????
     2b6:	f1 00       	.word	0x00f1	; ????
     2b8:	00 00       	nop
     2ba:	00 00       	nop
     2bc:	f2 00       	.word	0x00f2	; ????
     2be:	f2 00       	.word	0x00f2	; ????
     2c0:	f2 00       	.word	0x00f2	; ????
     2c2:	f2 00       	.word	0x00f2	; ????
     2c4:	00 00       	nop
     2c6:	00 00       	nop
     2c8:	f3 00       	.word	0x00f3	; ????
     2ca:	f3 00       	.word	0x00f3	; ????
     2cc:	f3 00       	.word	0x00f3	; ????
     2ce:	f3 00       	.word	0x00f3	; ????
     2d0:	00 00       	nop
     2d2:	00 00       	nop
     2d4:	f5 00       	.word	0x00f5	; ????
     2d6:	f5 00       	.word	0x00f5	; ????
     2d8:	f5 00       	.word	0x00f5	; ????
     2da:	f5 00       	.word	0x00f5	; ????
     2dc:	00 00       	nop
     2de:	00 00       	nop
     2e0:	f6 00       	.word	0x00f6	; ????
     2e2:	f6 00       	.word	0x00f6	; ????
     2e4:	f6 00       	.word	0x00f6	; ????
     2e6:	f6 00       	.word	0x00f6	; ????
     2e8:	00 00       	nop
     2ea:	00 00       	nop
     2ec:	f7 00       	.word	0x00f7	; ????
     2ee:	f7 00       	.word	0x00f7	; ????
     2f0:	f7 00       	.word	0x00f7	; ????
     2f2:	f7 00       	.word	0x00f7	; ????
     2f4:	00 00       	nop
     2f6:	00 00       	nop
     2f8:	f8 00       	.word	0x00f8	; ????
     2fa:	f8 00       	.word	0x00f8	; ????
     2fc:	f8 00       	.word	0x00f8	; ????
     2fe:	f8 00       	.word	0x00f8	; ????
     300:	00 00       	nop
     302:	00 00       	nop
     304:	fb 00       	.word	0x00fb	; ????
     306:	f9 00       	.word	0x00f9	; ????
     308:	fb 00       	.word	0x00fb	; ????
     30a:	fa 00       	.word	0x00fa	; ????
     30c:	01 00       	.word	0x0001	; ????
     30e:	01 00       	.word	0x0001	; ????
     310:	bb 00       	.word	0x00bb	; ????
     312:	bb 00       	.word	0x00bb	; ????
     314:	f4 00       	.word	0x00f4	; ????
     316:	f4 00       	.word	0x00f4	; ????
     318:	01 00       	.word	0x0001	; ????
     31a:	00 00       	nop
     31c:	81 00       	.word	0x0081	; ????
     31e:	1c 00       	.word	0x001c	; ????
     320:	1e 00       	.word	0x001e	; ????
     322:	1d 00       	.word	0x001d	; ????
     324:	01 00       	.word	0x0001	; ????
     326:	01 00       	.word	0x0001	; ????
     328:	90 00       	.word	0x0090	; ????
     32a:	18 00       	.word	0x0018	; ????
     32c:	1a 00       	.word	0x001a	; ????
     32e:	19 00       	.word	0x0019	; ????
     330:	01 00       	.word	0x0001	; ????
     332:	01 00       	.word	0x0001	; ????
     334:	98 00       	.word	0x0098	; ????
     336:	14 00       	.word	0x0014	; ????
     338:	16 00       	.word	0x0016	; ????
     33a:	15 00       	.word	0x0015	; ????
     33c:	01 00       	.word	0x0001	; ????
     33e:	01 00       	.word	0x0001	; ????
     340:	8e 00       	.word	0x008e	; ????
     342:	8e 00       	.word	0x008e	; ????
     344:	12 00       	.word	0x0012	; ????
     346:	12 00       	.word	0x0012	; ????
     348:	01 00       	.word	0x0001	; ????
     34a:	00 00       	nop
     34c:	8d 00       	.word	0x008d	; ????
     34e:	10 00       	.word	0x0010	; ????
     350:	8d 00       	.word	0x008d	; ????
     352:	10 00       	.word	0x0010	; ????
     354:	01 00       	.word	0x0001	; ????
     356:	01 00       	.word	0x0001	; ????

00000358 <font>:
	...
     458:	20 00 20 00 28 00 28 00 68 00 b0 00 60 00 20 00      . .(.(.h...`. .
     468:	20 00 20 00 28 00 2a 00 28 00 30 00 20 00 20 00      . .(.*.(.0. . .
     478:	00 00 80 00 80 00 44 00 32 00 24 00 20 00 20 00     ......D.2.$. . .
     488:	00 00 24 00 24 00 24 00 38 00 20 00 20 00 20 00     ..$.$.$.8. . . .
     498:	20 00 20 00 20 00 20 00 24 00 2a 00 11 00 00 00      . . . .$.*.....
     4a8:	20 00 20 00 20 00 24 00 2a 00 11 00 20 00 20 00      . . .$.*... . .
     4b8:	30 00 20 00 20 00 20 00 24 00 2a 00 11 00 20 00     0. . . .$.*... .
     4c8:	20 00 20 00 30 00 20 00 30 00 28 00 28 00 18 00      . .0. .0.(.(...
     4d8:	20 00 24 00 22 00 21 00 24 00 2a 00 11 00 00 00      .$.".!.$.*.....
     4e8:	24 00 22 00 21 00 24 00 2a 00 11 00 20 00 20 00     $.".!.$.*... . .
     4f8:	30 00 24 00 22 00 21 00 24 00 2a 00 11 00 20 00     0.$.".!.$.*... .
     508:	00 00 80 00 80 00 40 00 30 00 20 00 20 00 20 00     ......@.0. . . .
     518:	20 00 20 00 20 00 60 00 a0 00 60 00 28 00 30 00      . . .`...`.(.0.
     528:	20 00 20 00 20 00 60 00 b0 00 60 00 20 00 20 00      . . .`...`. . .
     538:	00 00 30 00 28 00 60 00 a0 00 60 00 30 00 20 00     ..0.(.`...`.0. .
     548:	00 00 04 00 06 00 1d 00 25 00 24 00 20 00 20 00     ........%.$. . .
	...
     56c:	4f 00 00 00 00 00 00 00 00 00 00 00 00 00 07 00     O...............
     57c:	00 00 07 00 00 00 00 00 00 00 00 00 00 00 14 00     ................
     58c:	7f 00 14 00 7f 00 14 00 00 00 00 00 00 00 24 00     ..............$.
     59c:	2a 00 7f 00 2a 00 12 00 00 00 00 00 00 00 23 00     *...*.........#.
     5ac:	13 00 08 00 64 00 62 00 00 00 00 00 00 00 36 00     ....d.b.......6.
     5bc:	49 00 55 00 22 00 40 00 00 00 00 00 00 00 00 00     I.U.".@.........
     5cc:	05 00 03 00 00 00 00 00 00 00 00 00 00 00 1c 00     ................
     5dc:	22 00 41 00 00 00 00 00 00 00 00 00 00 00 41 00     ".A...........A.
     5ec:	22 00 1c 00 00 00 00 00 00 00 00 00 00 00 14 00     "...............
     5fc:	08 00 3e 00 08 00 14 00 00 00 00 00 00 00 08 00     ..>.............
     60c:	08 00 3e 00 08 00 08 00 00 00 00 00 00 00 00 00     ..>.............
     61c:	28 00 18 00 00 00 00 00 00 00 00 00 00 00 08 00     (...............
     62c:	08 00 08 00 08 00 08 00 08 00 00 00 00 00 30 00     ..............0.
     63c:	30 00 00 00 00 00 00 00 00 00 00 00 00 00 20 00     0............. .
     64c:	10 00 08 00 04 00 02 00 00 00 00 00 00 00 3e 00     ..............>.
     65c:	51 00 49 00 45 00 3e 00 00 00 00 00 00 00 00 00     Q.I.E.>.........
     66c:	42 00 7f 00 40 00 00 00 00 00 00 00 00 00 42 00     B...@.........B.
     67c:	61 00 51 00 49 00 46 00 00 00 00 00 00 00 21 00     a.Q.I.F.......!.
     68c:	41 00 45 00 4b 00 31 00 00 00 00 00 00 00 18 00     A.E.K.1.........
     69c:	14 00 12 00 7f 00 10 00 00 00 00 00 00 00 00 00     ................
     6ac:	27 00 45 00 45 00 45 00 39 00 00 00 00 00 3c 00     '.E.E.E.9.....<.
     6bc:	4a 00 49 00 49 00 30 00 00 00 00 00 00 00 01 00     J.I.I.0.........
     6cc:	71 00 09 00 05 00 03 00 00 00 00 00 00 00 36 00     q.............6.
     6dc:	49 00 49 00 49 00 36 00 00 00 00 00 00 00 06 00     I.I.I.6.........
     6ec:	49 00 49 00 29 00 1e 00 00 00 00 00 00 00 00 00     I.I.)...........
     6fc:	36 00 36 00 00 00 00 00 00 00 00 00 00 00 00 00     6.6.............
     70c:	56 00 36 00 00 00 00 00 00 00 00 00 00 00 08 00     V.6.............
     71c:	14 00 22 00 41 00 00 00 00 00 00 00 00 00 24 00     ..".A.........$.
     72c:	24 00 24 00 24 00 24 00 00 00 00 00 00 00 00 00     $.$.$.$.........
     73c:	41 00 22 00 14 00 08 00 00 00 00 00 00 00 02 00     A.".............
     74c:	01 00 51 00 09 00 06 00 00 00 00 00 00 00 32 00     ..Q...........2.
     75c:	49 00 79 00 41 00 3e 00 00 00 00 00 00 00 7e 00     I.y.A.>.......~.
     76c:	11 00 11 00 11 00 7e 00 00 00 00 00 00 00 7f 00     ......~.........
     77c:	49 00 49 00 49 00 36 00 00 00 00 00 00 00 3e 00     I.I.I.6.......>.
     78c:	41 00 41 00 41 00 22 00 00 00 00 00 00 00 7f 00     A.A.A.".........
     79c:	41 00 41 00 22 00 1c 00 00 00 00 00 00 00 7f 00     A.A."...........
     7ac:	49 00 49 00 49 00 41 00 00 00 00 00 00 00 7f 00     I.I.I.A.........
     7bc:	09 00 09 00 09 00 01 00 00 00 00 00 00 00 3e 00     ..............>.
     7cc:	41 00 49 00 49 00 3a 00 00 00 00 00 00 00 7f 00     A.I.I.:.........
     7dc:	08 00 08 00 08 00 7f 00 00 00 00 00 00 00 00 00     ................
     7ec:	41 00 7f 00 41 00 00 00 00 00 00 00 00 00 20 00     A...A......... .
     7fc:	40 00 41 00 3f 00 01 00 00 00 00 00 00 00 7f 00     @.A.?...........
     80c:	08 00 14 00 22 00 41 00 00 00 00 00 00 00 7f 00     ....".A.........
     81c:	40 00 40 00 40 00 40 00 00 00 00 00 00 00 7f 00     @.@.@.@.........
     82c:	02 00 0c 00 02 00 7f 00 00 00 00 00 00 00 7f 00     ................
     83c:	04 00 08 00 10 00 7f 00 00 00 00 00 00 00 3e 00     ..............>.
     84c:	41 00 41 00 41 00 3e 00 00 00 00 00 00 00 7f 00     A.A.A.>.........
     85c:	09 00 09 00 09 00 06 00 00 00 00 00 3e 00 41 00     ............>.A.
     86c:	51 00 21 00 5e 00 00 00 00 00 00 00 00 00 7f 00     Q.!.^...........
     87c:	09 00 19 00 29 00 46 00 00 00 00 00 00 00 46 00     ....).F.......F.
     88c:	49 00 49 00 49 00 31 00 00 00 00 00 00 00 01 00     I.I.I.1.........
     89c:	01 00 7f 00 01 00 01 00 00 00 00 00 00 00 3f 00     ..............?.
     8ac:	40 00 40 00 40 00 3f 00 00 00 00 00 00 00 1f 00     @.@.@.?.........
     8bc:	20 00 40 00 20 00 1f 00 00 00 00 00 00 00 3f 00      .@. .........?.
     8cc:	40 00 60 00 40 00 3f 00 00 00 00 00 00 00 63 00     @.`.@.?.......c.
     8dc:	14 00 08 00 14 00 63 00 00 00 00 00 00 00 07 00     ......c.........
     8ec:	08 00 70 00 08 00 07 00 00 00 00 00 00 00 61 00     ..p...........a.
     8fc:	51 00 49 00 45 00 43 00 00 00 00 00 00 00 7f 00     Q.I.E.C.........
     90c:	41 00 41 00 00 00 00 00 00 00 00 00 00 00 15 00     A.A.............
     91c:	16 00 7c 00 16 00 15 00 00 00 00 00 00 00 41 00     ..|...........A.
     92c:	41 00 7f 00 00 00 00 00 00 00 00 00 00 00 04 00     A...............
     93c:	02 00 01 00 02 00 04 00 00 00 00 00 00 00 40 00     ..............@.
     94c:	40 00 40 00 40 00 40 00 00 00 00 00 00 00 01 00     @.@.@.@.........
     95c:	02 00 04 00 00 00 00 00 00 00 00 00 00 00 20 00     .............. .
     96c:	54 00 54 00 54 00 78 00 00 00 00 00 00 00 7f 00     T.T.T.x.........
     97c:	44 00 44 00 44 00 38 00 00 00 00 00 00 00 38 00     D.D.D.8.......8.
     98c:	44 00 44 00 44 00 00 00 00 00 00 00 00 00 38 00     D.D.D.........8.
     99c:	44 00 44 00 48 00 7f 00 00 00 00 00 00 00 38 00     D.D.H.........8.
     9ac:	54 00 54 00 54 00 18 00 00 00 00 00 00 00 10 00     T.T.T...........
     9bc:	7e 00 11 00 01 00 02 00 00 00 00 00 00 00 0c 00     ~...............
     9cc:	52 00 52 00 52 00 3e 00 00 00 00 00 00 00 7f 00     R.R.R.>.........
     9dc:	08 00 04 00 04 00 78 00 00 00 00 00 00 00 00 00     ......x.........
     9ec:	44 00 7d 00 40 00 00 00 00 00 00 00 00 00 20 00     D.}.@......... .
     9fc:	40 00 40 00 3d 00 00 00 00 00 00 00 00 00 7f 00     @.@.=...........
     a0c:	10 00 28 00 44 00 00 00 00 00 00 00 00 00 00 00     ..(.D...........
     a1c:	41 00 7f 00 40 00 00 00 00 00 00 00 00 00 7c 00     A...@.........|.
     a2c:	04 00 18 00 04 00 78 00 00 00 00 00 00 00 7c 00     ......x.......|.
     a3c:	08 00 04 00 04 00 78 00 00 00 00 00 00 00 38 00     ......x.......8.
     a4c:	44 00 44 00 44 00 38 00 00 00 00 00 00 00 7c 00     D.D.D.8.......|.
     a5c:	14 00 14 00 14 00 08 00 00 00 00 00 00 00 08 00     ................
     a6c:	14 00 14 00 18 00 7c 00 00 00 00 00 00 00 7c 00     ......|.......|.
     a7c:	08 00 04 00 04 00 08 00 00 00 00 00 00 00 48 00     ..............H.
     a8c:	54 00 54 00 54 00 20 00 00 00 00 00 00 00 04 00     T.T.T. .........
     a9c:	3f 00 44 00 40 00 20 00 00 00 00 00 00 00 3c 00     ?.D.@. .......<.
     aac:	40 00 40 00 20 00 7c 00 00 00 00 00 00 00 1c 00     @.@. .|.........
     abc:	20 00 40 00 20 00 1c 00 00 00 00 00 00 00 1e 00      .@. ...........
     acc:	20 00 10 00 20 00 1e 00 00 00 00 00 00 00 22 00      ... .........".
     adc:	14 00 08 00 14 00 22 00 00 00 00 00 00 00 06 00     ......".........
     aec:	48 00 48 00 48 00 3e 00 00 00 00 00 00 00 44 00     H.H.H.>.......D.
     afc:	64 00 54 00 4c 00 44 00 00 00 00 00 00 00 08 00     d.T.L.D.........
     b0c:	36 00 41 00 00 00 00 00 00 00 00 00 00 00 00 00     6.A.............
     b1c:	00 00 7f 00 00 00 00 00 00 00 00 00 00 00 41 00     ..............A.
     b2c:	36 00 08 00 00 00 00 00 00 00 00 00 00 00 08 00     6...............
     b3c:	08 00 2a 00 1c 00 08 00 00 00 00 00 00 00 08 00     ..*.............
     b4c:	1c 00 2a 00 08 00 08 00 00 00 00 00 00 00 3c 00     ..*...........<.
     b5c:	42 00 41 00 42 00 3c 00 00 00 00 00 00 00 30 00     B.A.B.<.......0.
     b6c:	28 00 60 00 a0 00 60 00 28 00 30 00 20 00 20 00     (.`...`.(.0. . .
     b7c:	20 00 20 00 a0 00 20 00 28 00 30 00 20 00 20 00      . ... .(.0. . .
     b8c:	20 00 20 00 b0 00 20 00 20 00 20 00 00 00 30 00      . ... . . ...0.
     b9c:	28 00 20 00 a0 00 20 00 30 00 20 00 20 00 20 00     (. ... .0. . . .
     bac:	20 00 22 00 20 00 22 00 28 00 30 00 20 00 20 00      .". .".(.0. . .
     bbc:	20 00 22 00 30 00 22 00 20 00 20 00 00 00 30 00      .".0.". . ...0.
     bcc:	28 00 22 00 20 00 22 00 30 00 20 00 20 00 20 00     (.". .".0. . . .
     bdc:	20 00 22 00 21 00 22 00 28 00 30 00 20 00 20 00      .".!.".(.0. . .
     bec:	20 00 22 00 31 00 22 00 20 00 20 00 00 00 30 00      .".1.". . ...0.
     bfc:	28 00 22 00 21 00 22 00 30 00 20 00 20 00 20 00     (.".!.".0. . . .
     c0c:	28 00 28 00 28 00 b0 00 20 00 20 00 20 00 20 00     (.(.(... . . . .
     c1c:	28 00 28 00 28 00 30 00 20 00 20 00 00 00 c0 00     (.(.(.0. . .....
     c2c:	a8 00 28 00 68 00 b0 00 60 00 20 00 00 00 00 00     ..(.h...`. .....
     c3c:	80 00 80 00 44 00 32 00 04 00 00 00 00 00 24 00     ....D.2.......$.
     c4c:	25 00 24 00 38 00 20 00 20 00 20 00 30 00 24 00     %.$.8. . . .0.$.
     c5c:	22 00 21 00 24 00 2a 00 11 00 00 00 00 00 80 00     ".!.$.*.........
     c6c:	80 00 40 00 34 00 20 00 20 00 20 00 20 00 20 00     ..@.4. . . . . .
     c7c:	20 00 38 00 20 00 38 00 20 00 18 00 20 00 20 00      .8. .8. ... . .
     c8c:	38 00 20 00 38 00 20 00 38 00 20 00 60 00 80 00     8. .8. .8. .`...
     c9c:	80 00 78 00 20 00 38 00 20 00 18 00 20 00 20 00     ..x. .8. ... . .
     cac:	20 00 38 00 22 00 39 00 22 00 18 00 20 00 20 00      .8.".9."... . .
     cbc:	38 00 22 00 39 00 22 00 38 00 20 00 60 00 80 00     8.".9.".8. .`...
     ccc:	80 00 78 00 22 00 39 00 22 00 18 00 30 00 20 00     ..x.".9."...0. .
     cdc:	20 00 20 00 24 00 2a 00 11 00 00 00 20 00 30 00      . .$.*..... .0.
     cec:	20 00 30 00 28 00 28 00 38 00 20 00 60 00 80 00      .0.(.(.8. .`...
     cfc:	80 00 60 00 30 00 28 00 28 00 38 00 20 00 20 00     ..`.0.(.(.8. . .
     d0c:	30 00 20 00 30 00 28 00 2a 00 18 00 20 00 30 00     0. .0.(.*... .0.
     d1c:	20 00 30 00 28 00 2a 00 38 00 20 00 60 00 80 00      .0.(.*.8. .`...
     d2c:	80 00 60 00 30 00 28 00 2a 00 38 00 20 00 20 00     ..`.0.(.*.8. . .
     d3c:	3e 00 30 00 28 00 28 00 38 00 20 00 20 00 20 00     >.0.(.(.8. . . .
     d4c:	3e 00 30 00 28 00 2a 00 38 00 20 00 20 00 20 00     >.0.(.*.8. . . .
     d5c:	20 00 20 00 30 00 28 00 28 00 00 00 20 00 20 00      . .0.(.(... . .
     d6c:	20 00 30 00 28 00 28 00 20 00 20 00 00 00 40 00      .0.(.(. . ...@.
     d7c:	a0 00 b0 00 28 00 28 00 20 00 20 00 20 00 20 00     ....(.(. . . . .
     d8c:	20 00 20 00 30 00 28 00 2a 00 00 00 20 00 20 00      . .0.(.*... . .
     d9c:	20 00 30 00 28 00 2a 00 20 00 20 00 00 00 40 00      .0.(.*. . ...@.
     dac:	a0 00 b0 00 28 00 2a 00 20 00 20 00 20 00 20 00     ....(.*. . . . .
     dbc:	20 00 20 00 30 00 28 00 2a 00 30 00 20 00 20 00      . .0.(.*.0. . .
     dcc:	30 00 28 00 2a 00 30 00 20 00 20 00 00 00 18 00     0.(.*.0. . .....
     ddc:	20 00 20 00 30 00 28 00 2a 00 30 00 20 00 20 00      . .0.(.*.0. . .
     dec:	20 00 20 00 30 00 2a 00 28 00 32 00 20 00 20 00      . .0.*.(.2. . .
     dfc:	30 00 2a 00 28 00 32 00 20 00 20 00 60 00 80 00     0.*.(.2. . .`...
     e0c:	80 00 b2 00 a8 00 7a 00 20 00 20 00 22 00 25 00     ......z. . .".%.
     e1c:	25 00 25 00 25 00 25 00 25 00 19 00 20 00 20 00     %.%.%.%.%... . .
     e2c:	20 00 1c 00 22 00 21 00 20 00 20 00 30 00 28 00      ...".!. . .0.(.
     e3c:	2c 00 2a 00 20 00 3f 00 20 00 20 00 20 00 20 00     ,.*. .?. . . . .
     e4c:	20 00 20 00 20 00 20 00 1f 00 00 00 0f 00 18 00      . . . .........
     e5c:	01 00 01 00 01 00 10 00 d8 00 cf 00 00 00 30 00     ..............0.
     e6c:	40 00 40 00 3f 00 20 00 20 00 20 00 20 00 20 00     @.@.?. . . . . .
     e7c:	20 00 20 00 30 00 48 00 48 00 30 00 20 00 20 00      . .0.H.H.0. . .
     e8c:	30 00 48 00 48 00 30 00 20 00 20 00 80 00 40 00     0.H.H.0. . ...@.
     e9c:	30 00 48 00 48 00 30 00 20 00 20 00 20 00 20 00     0.H.H.0. . . . .
     eac:	20 00 20 00 22 00 20 00 18 00 00 00 20 00 20 00      . .". ..... . .
     ebc:	20 00 20 00 1a 00 20 00 20 00 20 00 30 00 40 00      . ... . . .0.@.
     ecc:	44 00 40 00 30 00 20 00 20 00 20 00 20 00 20 00     D.@.0. . . . . .
     edc:	20 00 30 00 28 00 3a 00 2c 00 18 00 20 00 20 00      .0.(.:.,... . .
     eec:	30 00 28 00 3a 00 2c 00 38 00 20 00 00 00 18 00     0.(.:.,.8. .....
     efc:	14 00 14 00 18 00 20 00 20 00 20 00 00 00 21 00     ...... . . ...!.
     f0c:	22 00 24 00 28 00 10 00 0f 00 00 00 00 00 b0 00     ".$.(...........
     f1c:	a8 00 78 00 20 00 20 00 20 00 20 00 20 00 20 00     ..x. . . . . . .
     f2c:	20 00 a0 00 20 00 a0 00 28 00 30 00 20 00 20 00      ... ...(.0. . .
     f3c:	20 00 a0 00 30 00 a0 00 20 00 20 00 00 00 60 00      ...0... . ...`.
     f4c:	80 00 80 00 a0 00 50 00 10 00 20 00 00 00 1e 00     ......P... .....
     f5c:	20 00 20 00 20 00 20 00 20 00 20 00 00 00 20 00      . . . . . ... .
     f6c:	30 00 28 00 28 00 20 00 00 00 00 00 00 00 04 00     0.(.(. .........
     f7c:	02 00 02 00 3a 00 02 00 02 00 01 00 00 00 00 00     ....:...........
     f8c:	04 00 06 00 3d 00 05 00 04 00 00 00 00 00 00 00     ....=...........
     f9c:	04 00 b6 00 ad 00 7d 00 04 00 00 00 00 00 00 00     ......}.........
     fac:	80 00 c0 00 bf 00 a0 00 80 00 00 00 04 00 66 00     ..............f.
     fbc:	85 00 95 00 a8 00 a8 00 48 00 00 00 00 00 00 00     ........H.......
     fcc:	00 00 3f 00 00 00 00 00 00 00 00 00 00 00 30 00     ..?...........0.
     fdc:	28 00 20 00 a0 00 20 00 28 00 30 00 00 00 00 00     (. ... .(.0.....
     fec:	30 00 2a 00 28 00 32 00 00 00 00 00 00 00 30 00     0.*.(.2.......0.
     ffc:	28 00 22 00 20 00 22 00 28 00 30 00 00 00 30 00     (.". .".(.0...0.
    100c:	28 00 22 00 21 00 22 00 28 00 30 00 00 00 c0 00     (.".!.".(.0.....
    101c:	a8 00 a8 00 28 00 b0 00 20 00 20 00 00 00 c0 00     ....(... . .....
    102c:	a8 00 a8 00 a8 00 30 00 20 00 20 00 00 00 c0 00     ......0. . .....
    103c:	a8 00 aa 00 28 00 30 00 20 00 20 00 00 00 00 00     ....(.0. . .....
    104c:	24 00 24 00 24 00 38 00 00 00 00 00 00 00 00 00     $.$.$.8.........
    105c:	24 00 25 00 24 00 38 00 00 00 00 00 00 00 80 00     $.%.$.8.........
    106c:	80 00 40 00 30 00 00 00 00 00 00 00 00 00 00 00     ..@.0...........
    107c:	80 00 80 00 40 00 34 00 00 00 00 00 60 00 80 00     ....@.4.....`...
    108c:	80 00 78 00 20 00 38 00 20 00 18 00 60 00 80 00     ..x. .8. ...`...
    109c:	80 00 78 00 22 00 39 00 22 00 18 00 60 00 80 00     ..x.".9."...`...
    10ac:	80 00 60 00 30 00 28 00 28 00 18 00 60 00 80 00     ..`.0.(.(...`...
    10bc:	80 00 60 00 30 00 28 00 2a 00 18 00 00 00 22 00     ..`.0.(.*.....".
    10cc:	14 00 08 00 14 00 22 00 00 00 00 00 20 00 20 00     ......"..... . .
    10dc:	3e 00 30 00 28 00 28 00 18 00 00 00 20 00 20 00     >.0.(.(..... . .
    10ec:	3e 00 30 00 28 00 2a 00 18 00 00 00 00 00 00 00     >.0.(.*.........
    10fc:	40 00 a0 00 b0 00 28 00 28 00 00 00 00 00 00 00     @.....(.(.......
    110c:	40 00 a0 00 b0 00 2a 00 28 00 00 00 20 00 20 00     @.....*.(... . .
    111c:	20 00 20 00 20 00 20 00 20 00 20 00 00 00 18 00      . . . . . .....
    112c:	20 00 20 00 30 00 28 00 2a 00 30 00 00 00 60 00      . .0.(.*.0...`.
    113c:	80 00 80 00 b2 00 a8 00 7a 00 00 00 00 00 30 00     ........z.....0.
    114c:	28 00 2c 00 2a 00 20 00 3f 00 00 00 00 00 40 00     (.,.*. .?.....@.
    115c:	a9 00 aa 00 a8 00 f0 00 00 00 00 00 00 00 00 00     ................
    116c:	60 00 80 00 80 00 7e 00 00 00 00 00 00 00 40 00     `.....~.......@.
    117c:	aa 00 a9 00 aa 00 f0 00 00 00 00 00 00 00 00 00     ................
    118c:	c0 00 20 00 30 00 28 00 28 00 30 00 00 00 00 00     .. .0.(.(.0.....
    119c:	60 00 80 00 88 00 80 00 60 00 00 00 00 00 00 00     `.......`.......
    11ac:	30 00 28 00 28 00 30 00 00 00 00 00 00 00 00 00     0.(.(.0.........
    11bc:	00 00 b0 00 a8 00 78 00 00 00 00 00 04 00 26 00     ......x.......&.
    11cc:	25 00 25 00 28 00 10 00 0f 00 00 00 04 00 22 00     %.%.(.........".
    11dc:	22 00 26 00 29 00 10 00 0f 00 00 00 00 00 21 00     ".&.).........!.
    11ec:	22 00 24 00 a8 00 d0 00 af 00 a0 00 00 00 70 00     ".$...........p.
    11fc:	aa 00 a9 00 aa 00 30 00 00 00 00 00 00 00 70 00     ......0.......p.
    120c:	aa 00 a8 00 aa 00 30 00 00 00 00 00 00 00 30 00     ......0.......0.
    121c:	40 00 40 00 50 00 28 00 08 00 00 00 00 00 30 00     @.@.P.(.......0.
    122c:	c0 00 40 00 d0 00 28 00 08 00 00 00 00 00 00 00     ..@...(.........
    123c:	02 00 79 00 02 00 00 00 00 00 00 00 00 00 00 00     ..y.............
    124c:	02 00 78 00 02 00 00 00 00 00 00 00 00 00 00 00     ..x.............
    125c:	00 00 00 00 00 00 05 00 05 00 05 00 00 00 00 00     ................
    126c:	00 00 04 00 03 00 0b 00 06 00 06 00 a0 00 a0 00     ................
    127c:	a0 00 00 00 00 00 00 00 00 00 00 00 00 00 00 00     ................
    128c:	01 00 01 00 01 00 01 00 00 00 00 00 00 00 21 00     ..............!.
    129c:	22 00 24 00 28 00 10 00 2f 00 20 00 00 00 00 00     ".$.(.../. .....
    12ac:	00 00 00 00 00 00 04 00 03 00 03 00 00 00 00 00     ................
    12bc:	80 00 80 00 80 00 80 00 00 00 00 00 00 00 00 00     ................
    12cc:	10 00 10 00 54 00 10 00 10 00 00 00 00 00 00 00     ....T...........
    12dc:	02 00 04 00 02 00 04 00 02 00 00 00 20 00 24 00     ............ .$.
    12ec:	26 00 25 00 25 00 20 00 28 00 30 00 20 00 24 00     &.%.%. .(.0. .$.
    12fc:	26 00 25 00 35 00 20 00 20 00 20 00 08 00 6c 00     &.%.5. . . ...l.
    130c:	8a 00 8a 00 a0 00 50 00 10 00 20 00 04 00 b6 00     ......P... .....
    131c:	ad 00 7d 00 24 00 20 00 20 00 20 00 00 00 19 00     ..}.$. . . .....
    132c:	14 00 15 00 18 00 20 00 20 00 20 00 04 00 02 00     ...... . . .....
    133c:	02 00 1a 00 22 00 22 00 21 00 20 00 00 00 40 00     ....".".!. ...@.
    134c:	60 00 50 00 48 00 50 00 40 00 40 00                 `.P.H.P.@.@.

00001358 <__ctors_end>:
    1358:	11 24       	eor	r1, r1
    135a:	1f be       	out	0x3f, r1	; 63
    135c:	cf ef       	ldi	r28, 0xFF	; 255
    135e:	d0 e1       	ldi	r29, 0x10	; 16
    1360:	de bf       	out	0x3e, r29	; 62
    1362:	cd bf       	out	0x3d, r28	; 61

00001364 <__do_copy_data>:
    1364:	11 e0       	ldi	r17, 0x01	; 1
    1366:	a0 e0       	ldi	r26, 0x00	; 0
    1368:	b1 e0       	ldi	r27, 0x01	; 1
    136a:	ea e5       	ldi	r30, 0x5A	; 90
    136c:	fd e1       	ldi	r31, 0x1D	; 29
    136e:	02 c0       	rjmp	.+4      	; 0x1374 <__do_copy_data+0x10>
    1370:	05 90       	lpm	r0, Z+
    1372:	0d 92       	st	X+, r0
    1374:	ac 30       	cpi	r26, 0x0C	; 12
    1376:	b1 07       	cpc	r27, r17
    1378:	d9 f7       	brne	.-10     	; 0x1370 <__do_copy_data+0xc>

0000137a <__do_clear_bss>:
    137a:	21 e0       	ldi	r18, 0x01	; 1
    137c:	ac e0       	ldi	r26, 0x0C	; 12
    137e:	b1 e0       	ldi	r27, 0x01	; 1
    1380:	01 c0       	rjmp	.+2      	; 0x1384 <.do_clear_bss_start>

00001382 <.do_clear_bss_loop>:
    1382:	1d 92       	st	X+, r1

00001384 <.do_clear_bss_start>:
    1384:	af 30       	cpi	r26, 0x0F	; 15
    1386:	b2 07       	cpc	r27, r18
    1388:	e1 f7       	brne	.-8      	; 0x1382 <.do_clear_bss_loop>
    138a:	0e 94 39 0e 	call	0x1c72	; 0x1c72 <main>
    138e:	0c 94 ab 0e 	jmp	0x1d56	; 0x1d56 <_exit>

00001392 <__bad_interrupt>:
    1392:	0c 94 00 00 	jmp	0	; 0x0 <__vectors>

00001396 <trigger>:
            goto_xy(j,i);
            glcd_write(pgm_read_byte(&bmp[(128*i)+j]));
            _delay_us(1);
        }
    }
    1396:	5c 9a       	sbi	0x0b, 4	; 11
    1398:	80 e3       	ldi	r24, 0x30	; 48
    139a:	8a 95       	dec	r24
    139c:	f1 f7       	brne	.-4      	; 0x139a <trigger+0x4>
    139e:	5c 98       	cbi	0x0b, 4	; 11
    13a0:	80 e3       	ldi	r24, 0x30	; 48
    13a2:	8a 95       	dec	r24
    13a4:	f1 f7       	brne	.-4      	; 0x13a2 <trigger+0xc>
    13a6:	08 95       	ret

000013a8 <glcd_on>:
    13a8:	5d 9a       	sbi	0x0b, 5	; 11
    13aa:	5e 9a       	sbi	0x0b, 6	; 11
    13ac:	5a 98       	cbi	0x0b, 2	; 11
    13ae:	5b 98       	cbi	0x0b, 3	; 11
    13b0:	8f e3       	ldi	r24, 0x3F	; 63
    13b2:	88 b9       	out	0x08, r24	; 8
    13b4:	0e 94 cb 09 	call	0x1396	; 0x1396 <trigger>
    13b8:	08 95       	ret

000013ba <goto_col>:
    13ba:	5a 98       	cbi	0x0b, 2	; 11
    13bc:	5b 98       	cbi	0x0b, 3	; 11
    13be:	80 34       	cpi	r24, 0x40	; 64
    13c0:	91 05       	cpc	r25, r1
    13c2:	18 f4       	brcc	.+6      	; 0x13ca <goto_col+0x10>
    13c4:	5d 9a       	sbi	0x0b, 5	; 11
    13c6:	5e 98       	cbi	0x0b, 6	; 11
    13c8:	03 c0       	rjmp	.+6      	; 0x13d0 <goto_col+0x16>
    13ca:	5d 98       	cbi	0x0b, 5	; 11
    13cc:	5e 9a       	sbi	0x0b, 6	; 11
    13ce:	80 54       	subi	r24, 0x40	; 64
    13d0:	8f 73       	andi	r24, 0x3F	; 63
    13d2:	80 64       	ori	r24, 0x40	; 64
    13d4:	88 b9       	out	0x08, r24	; 8
    13d6:	0e 94 cb 09 	call	0x1396	; 0x1396 <trigger>
    13da:	08 95       	ret

000013dc <goto_row>:
    13dc:	5a 98       	cbi	0x0b, 2	; 11
    13de:	5b 98       	cbi	0x0b, 3	; 11
    13e0:	87 70       	andi	r24, 0x07	; 7
    13e2:	88 6b       	ori	r24, 0xB8	; 184
    13e4:	88 b9       	out	0x08, r24	; 8
    13e6:	0e 94 cb 09 	call	0x1396	; 0x1396 <trigger>
    13ea:	08 95       	ret

000013ec <goto_xy>:
    13ec:	cf 93       	push	r28
    13ee:	df 93       	push	r29
    13f0:	eb 01       	movw	r28, r22
    13f2:	0e 94 dd 09 	call	0x13ba	; 0x13ba <goto_col>
    13f6:	ce 01       	movw	r24, r28
    13f8:	0e 94 ee 09 	call	0x13dc	; 0x13dc <goto_row>
    13fc:	df 91       	pop	r29
    13fe:	cf 91       	pop	r28
    1400:	08 95       	ret

00001402 <glcd_write>:
    1402:	5a 9a       	sbi	0x0b, 2	; 11
    1404:	5b 98       	cbi	0x0b, 3	; 11
    1406:	88 b9       	out	0x08, r24	; 8
    1408:	85 e3       	ldi	r24, 0x35	; 53
    140a:	8a 95       	dec	r24
    140c:	f1 f7       	brne	.-4      	; 0x140a <glcd_write+0x8>
    140e:	00 00       	nop
    1410:	0e 94 cb 09 	call	0x1396	; 0x1396 <trigger>
    1414:	08 95       	ret

00001416 <glcd_clrln>:
    1416:	cf 93       	push	r28
    1418:	df 93       	push	r29
    141a:	c8 2f       	mov	r28, r24
    141c:	d0 e0       	ldi	r29, 0x00	; 0
    141e:	be 01       	movw	r22, r28
    1420:	80 e0       	ldi	r24, 0x00	; 0
    1422:	90 e0       	ldi	r25, 0x00	; 0
    1424:	0e 94 f6 09 	call	0x13ec	; 0x13ec <goto_xy>
    1428:	be 01       	movw	r22, r28
    142a:	80 e4       	ldi	r24, 0x40	; 64
    142c:	90 e0       	ldi	r25, 0x00	; 0
    142e:	0e 94 f6 09 	call	0x13ec	; 0x13ec <goto_xy>
    1432:	5d 9a       	sbi	0x0b, 5	; 11
    1434:	c0 e4       	ldi	r28, 0x40	; 64
    1436:	d0 e0       	ldi	r29, 0x00	; 0
    1438:	80 e0       	ldi	r24, 0x00	; 0
    143a:	0e 94 01 0a 	call	0x1402	; 0x1402 <glcd_write>
    143e:	21 97       	sbiw	r28, 0x01	; 1
    1440:	d9 f7       	brne	.-10     	; 0x1438 <glcd_clrln+0x22>
    1442:	df 91       	pop	r29
    1444:	cf 91       	pop	r28
    1446:	08 95       	ret

00001448 <glcd_clear>:
    1448:	cf 93       	push	r28
    144a:	c0 e0       	ldi	r28, 0x00	; 0
    144c:	8c 2f       	mov	r24, r28
    144e:	0e 94 0b 0a 	call	0x1416	; 0x1416 <glcd_clrln>
    1452:	cf 5f       	subi	r28, 0xFF	; 255
    1454:	c8 30       	cpi	r28, 0x08	; 8
    1456:	d1 f7       	brne	.-12     	; 0x144c <glcd_clear+0x4>
    1458:	cf 91       	pop	r28
    145a:	08 95       	ret

0000145c <glcd_read>:
    145c:	17 b8       	out	0x07, r1	; 7
    145e:	5b 9a       	sbi	0x0b, 3	; 11
    1460:	5a 9a       	sbi	0x0b, 2	; 11
    1462:	80 34       	cpi	r24, 0x40	; 64
    1464:	18 f4       	brcc	.+6      	; 0x146c <glcd_read+0x10>
    1466:	5d 9a       	sbi	0x0b, 5	; 11
    1468:	5e 98       	cbi	0x0b, 6	; 11
    146a:	02 c0       	rjmp	.+4      	; 0x1470 <glcd_read+0x14>
    146c:	5e 9a       	sbi	0x0b, 6	; 11
    146e:	5d 98       	cbi	0x0b, 5	; 11
    1470:	85 e0       	ldi	r24, 0x05	; 5
    1472:	8a 95       	dec	r24
    1474:	f1 f7       	brne	.-4      	; 0x1472 <glcd_read+0x16>
    1476:	00 00       	nop
    1478:	5c 9a       	sbi	0x0b, 4	; 11
    147a:	95 e3       	ldi	r25, 0x35	; 53
    147c:	9a 95       	dec	r25
    147e:	f1 f7       	brne	.-4      	; 0x147c <glcd_read+0x20>
    1480:	00 00       	nop
    1482:	5c 98       	cbi	0x0b, 4	; 11
    1484:	8a e6       	ldi	r24, 0x6A	; 106
    1486:	8a 95       	dec	r24
    1488:	f1 f7       	brne	.-4      	; 0x1486 <glcd_read+0x2a>
    148a:	00 c0       	rjmp	.+0      	; 0x148c <glcd_read+0x30>
    148c:	5c 9a       	sbi	0x0b, 4	; 11
    148e:	95 e0       	ldi	r25, 0x05	; 5
    1490:	9a 95       	dec	r25
    1492:	f1 f7       	brne	.-4      	; 0x1490 <glcd_read+0x34>
    1494:	00 00       	nop
    1496:	86 b1       	in	r24, 0x06	; 6
    1498:	5c 98       	cbi	0x0b, 4	; 11
    149a:	95 e0       	ldi	r25, 0x05	; 5
    149c:	9a 95       	dec	r25
    149e:	f1 f7       	brne	.-4      	; 0x149c <glcd_read+0x40>
    14a0:	00 00       	nop
    14a2:	9f ef       	ldi	r25, 0xFF	; 255
    14a4:	97 b9       	out	0x07, r25	; 7
    14a6:	08 95       	ret

000014a8 <glcd_init>:
    14a8:	8f ef       	ldi	r24, 0xFF	; 255
    14aa:	87 b9       	out	0x07, r24	; 7
    14ac:	8a b9       	out	0x0a, r24	; 10
    14ae:	5f 9a       	sbi	0x0b, 7	; 11
    14b0:	5f 98       	cbi	0x0b, 7	; 11
    14b2:	8f ea       	ldi	r24, 0xAF	; 175
    14b4:	94 e0       	ldi	r25, 0x04	; 4
    14b6:	01 97       	sbiw	r24, 0x01	; 1
    14b8:	f1 f7       	brne	.-4      	; 0x14b6 <glcd_init+0xe>
    14ba:	00 c0       	rjmp	.+0      	; 0x14bc <glcd_init+0x14>
    14bc:	00 00       	nop
    14be:	5f 9a       	sbi	0x0b, 7	; 11
    14c0:	8f ea       	ldi	r24, 0xAF	; 175
    14c2:	94 e0       	ldi	r25, 0x04	; 4
    14c4:	01 97       	sbiw	r24, 0x01	; 1
    14c6:	f1 f7       	brne	.-4      	; 0x14c4 <glcd_init+0x1c>
    14c8:	00 c0       	rjmp	.+0      	; 0x14ca <glcd_init+0x22>
    14ca:	00 00       	nop
    14cc:	5f 98       	cbi	0x0b, 7	; 11
    14ce:	8f ea       	ldi	r24, 0xAF	; 175
    14d0:	94 e0       	ldi	r25, 0x04	; 4
    14d2:	01 97       	sbiw	r24, 0x01	; 1
    14d4:	f1 f7       	brne	.-4      	; 0x14d2 <glcd_init+0x2a>
    14d6:	00 c0       	rjmp	.+0      	; 0x14d8 <glcd_init+0x30>
    14d8:	00 00       	nop
    14da:	5f 9a       	sbi	0x0b, 7	; 11
    14dc:	0e 94 d4 09 	call	0x13a8	; 0x13a8 <glcd_on>
    14e0:	0e 94 24 0a 	call	0x1448	; 0x1448 <glcd_clear>
    14e4:	08 95       	ret

000014e6 <point_at>:
    14e6:	df 92       	push	r13
    14e8:	ef 92       	push	r14
    14ea:	ff 92       	push	r15
    14ec:	0f 93       	push	r16
    14ee:	1f 93       	push	r17
    14f0:	cf 93       	push	r28
    14f2:	df 93       	push	r29
    14f4:	f8 2e       	mov	r15, r24
    14f6:	e9 2e       	mov	r14, r25
    14f8:	eb 01       	movw	r28, r22
    14fa:	d4 2e       	mov	r13, r20
    14fc:	8b 01       	movw	r16, r22
    14fe:	16 95       	lsr	r17
    1500:	07 95       	ror	r16
    1502:	16 95       	lsr	r17
    1504:	07 95       	ror	r16
    1506:	16 95       	lsr	r17
    1508:	07 95       	ror	r16
    150a:	b8 01       	movw	r22, r16
    150c:	0e 94 f6 09 	call	0x13ec	; 0x13ec <goto_xy>
    1510:	dd 20       	and	r13, r13
    1512:	21 f0       	breq	.+8      	; 0x151c <point_at+0x36>
    1514:	81 e0       	ldi	r24, 0x01	; 1
    1516:	d8 16       	cp	r13, r24
    1518:	89 f0       	breq	.+34     	; 0x153c <point_at+0x56>
    151a:	1f c0       	rjmp	.+62     	; 0x155a <point_at+0x74>
    151c:	8f 2d       	mov	r24, r15
    151e:	0e 94 2e 0a 	call	0x145c	; 0x145c <glcd_read>
    1522:	c7 70       	andi	r28, 0x07	; 7
    1524:	dd 27       	eor	r29, r29
    1526:	21 e0       	ldi	r18, 0x01	; 1
    1528:	30 e0       	ldi	r19, 0x00	; 0
    152a:	02 c0       	rjmp	.+4      	; 0x1530 <point_at+0x4a>
    152c:	22 0f       	add	r18, r18
    152e:	33 1f       	adc	r19, r19
    1530:	ca 95       	dec	r28
    1532:	e2 f7       	brpl	.-8      	; 0x152c <point_at+0x46>
    1534:	20 95       	com	r18
    1536:	c8 2f       	mov	r28, r24
    1538:	c2 23       	and	r28, r18
    153a:	10 c0       	rjmp	.+32     	; 0x155c <point_at+0x76>
    153c:	8f 2d       	mov	r24, r15
    153e:	0e 94 2e 0a 	call	0x145c	; 0x145c <glcd_read>
    1542:	c7 70       	andi	r28, 0x07	; 7
    1544:	dd 27       	eor	r29, r29
    1546:	21 e0       	ldi	r18, 0x01	; 1
    1548:	30 e0       	ldi	r19, 0x00	; 0
    154a:	02 c0       	rjmp	.+4      	; 0x1550 <point_at+0x6a>
    154c:	22 0f       	add	r18, r18
    154e:	33 1f       	adc	r19, r19
    1550:	ca 95       	dec	r28
    1552:	e2 f7       	brpl	.-8      	; 0x154c <point_at+0x66>
    1554:	c8 2f       	mov	r28, r24
    1556:	c2 2b       	or	r28, r18
    1558:	01 c0       	rjmp	.+2      	; 0x155c <point_at+0x76>
    155a:	c0 e0       	ldi	r28, 0x00	; 0
    155c:	b8 01       	movw	r22, r16
    155e:	8f 2d       	mov	r24, r15
    1560:	9e 2d       	mov	r25, r14
    1562:	0e 94 f6 09 	call	0x13ec	; 0x13ec <goto_xy>
    1566:	8c 2f       	mov	r24, r28
    1568:	0e 94 01 0a 	call	0x1402	; 0x1402 <glcd_write>
    156c:	df 91       	pop	r29
    156e:	cf 91       	pop	r28
    1570:	1f 91       	pop	r17
    1572:	0f 91       	pop	r16
    1574:	ff 90       	pop	r15
    1576:	ef 90       	pop	r14
    1578:	df 90       	pop	r13
    157a:	08 95       	ret

0000157c <h_line>:
    157c:	af 92       	push	r10
    157e:	bf 92       	push	r11
    1580:	cf 92       	push	r12
    1582:	df 92       	push	r13
    1584:	ef 92       	push	r14
    1586:	ff 92       	push	r15
    1588:	0f 93       	push	r16
    158a:	cf 93       	push	r28
    158c:	df 93       	push	r29
    158e:	6c 01       	movw	r12, r24
    1590:	c4 0e       	add	r12, r20
    1592:	d1 1c       	adc	r13, r1
    1594:	8c 15       	cp	r24, r12
    1596:	9d 05       	cpc	r25, r13
    1598:	88 f4       	brcc	.+34     	; 0x15bc <h_line+0x40>
    159a:	7b 01       	movw	r14, r22
    159c:	2f 5f       	subi	r18, 0xFF	; 255
    159e:	a2 2e       	mov	r10, r18
    15a0:	b1 2c       	mov	r11, r1
    15a2:	ec 01       	movw	r28, r24
    15a4:	ca 0d       	add	r28, r10
    15a6:	db 1d       	adc	r29, r11
    15a8:	40 2f       	mov	r20, r16
    15aa:	b7 01       	movw	r22, r14
    15ac:	0e 94 73 0a 	call	0x14e6	; 0x14e6 <point_at>
    15b0:	ce 01       	movw	r24, r28
    15b2:	ca 0d       	add	r28, r10
    15b4:	db 1d       	adc	r29, r11
    15b6:	8c 15       	cp	r24, r12
    15b8:	9d 05       	cpc	r25, r13
    15ba:	b0 f3       	brcs	.-20     	; 0x15a8 <h_line+0x2c>
    15bc:	df 91       	pop	r29
    15be:	cf 91       	pop	r28
    15c0:	0f 91       	pop	r16
    15c2:	ff 90       	pop	r15
    15c4:	ef 90       	pop	r14
    15c6:	df 90       	pop	r13
    15c8:	cf 90       	pop	r12
    15ca:	bf 90       	pop	r11
    15cc:	af 90       	pop	r10
    15ce:	08 95       	ret

000015d0 <v_line>:
    15d0:	af 92       	push	r10
    15d2:	bf 92       	push	r11
    15d4:	cf 92       	push	r12
    15d6:	df 92       	push	r13
    15d8:	ef 92       	push	r14
    15da:	ff 92       	push	r15
    15dc:	0f 93       	push	r16
    15de:	cf 93       	push	r28
    15e0:	df 93       	push	r29
    15e2:	5c 01       	movw	r10, r24
    15e4:	eb 01       	movw	r28, r22
    15e6:	6b 01       	movw	r12, r22
    15e8:	c4 0e       	add	r12, r20
    15ea:	d5 1e       	adc	r13, r21
    15ec:	6c 15       	cp	r22, r12
    15ee:	7d 05       	cpc	r23, r13
    15f0:	68 f4       	brcc	.+26     	; 0x160c <v_line+0x3c>
    15f2:	2f 5f       	subi	r18, 0xFF	; 255
    15f4:	e2 2e       	mov	r14, r18
    15f6:	f1 2c       	mov	r15, r1
    15f8:	40 2f       	mov	r20, r16
    15fa:	be 01       	movw	r22, r28
    15fc:	c5 01       	movw	r24, r10
    15fe:	0e 94 73 0a 	call	0x14e6	; 0x14e6 <point_at>
    1602:	ce 0d       	add	r28, r14
    1604:	df 1d       	adc	r29, r15
    1606:	cc 15       	cp	r28, r12
    1608:	dd 05       	cpc	r29, r13
    160a:	b0 f3       	brcs	.-20     	; 0x15f8 <v_line+0x28>
    160c:	df 91       	pop	r29
    160e:	cf 91       	pop	r28
    1610:	0f 91       	pop	r16
    1612:	ff 90       	pop	r15
    1614:	ef 90       	pop	r14
    1616:	df 90       	pop	r13
    1618:	cf 90       	pop	r12
    161a:	bf 90       	pop	r11
    161c:	af 90       	pop	r10
    161e:	08 95       	ret

00001620 <rectangle>:
    1620:	8f 92       	push	r8
    1622:	9f 92       	push	r9
    1624:	af 92       	push	r10
    1626:	bf 92       	push	r11
    1628:	cf 92       	push	r12
    162a:	df 92       	push	r13
    162c:	ef 92       	push	r14
    162e:	ff 92       	push	r15
    1630:	0f 93       	push	r16
    1632:	1f 93       	push	r17
    1634:	cf 93       	push	r28
    1636:	df 93       	push	r29
    1638:	f8 2e       	mov	r15, r24
    163a:	b9 2e       	mov	r11, r25
    163c:	6b 01       	movw	r12, r22
    163e:	a4 2e       	mov	r10, r20
    1640:	85 2e       	mov	r8, r21
    1642:	e9 01       	movw	r28, r18
    1644:	10 2f       	mov	r17, r16
    1646:	94 2e       	mov	r9, r20
    1648:	98 1a       	sub	r9, r24
    164a:	0e 2d       	mov	r16, r14
    164c:	21 2f       	mov	r18, r17
    164e:	49 2d       	mov	r20, r9
    1650:	0e 94 be 0a 	call	0x157c	; 0x157c <h_line>
    1654:	21 2f       	mov	r18, r17
    1656:	49 2d       	mov	r20, r9
    1658:	be 01       	movw	r22, r28
    165a:	8f 2d       	mov	r24, r15
    165c:	9b 2d       	mov	r25, r11
    165e:	0e 94 be 0a 	call	0x157c	; 0x157c <h_line>
    1662:	cc 19       	sub	r28, r12
    1664:	dd 09       	sbc	r29, r13
    1666:	21 2f       	mov	r18, r17
    1668:	ae 01       	movw	r20, r28
    166a:	b6 01       	movw	r22, r12
    166c:	8f 2d       	mov	r24, r15
    166e:	9b 2d       	mov	r25, r11
    1670:	0e 94 e8 0a 	call	0x15d0	; 0x15d0 <v_line>
    1674:	ae 01       	movw	r20, r28
    1676:	4f 5f       	subi	r20, 0xFF	; 255
    1678:	5f 4f       	sbci	r21, 0xFF	; 255
    167a:	21 2f       	mov	r18, r17
    167c:	b6 01       	movw	r22, r12
    167e:	8a 2d       	mov	r24, r10
    1680:	98 2d       	mov	r25, r8
    1682:	0e 94 e8 0a 	call	0x15d0	; 0x15d0 <v_line>
    1686:	df 91       	pop	r29
    1688:	cf 91       	pop	r28
    168a:	1f 91       	pop	r17
    168c:	0f 91       	pop	r16
    168e:	ff 90       	pop	r15
    1690:	ef 90       	pop	r14
    1692:	df 90       	pop	r13
    1694:	cf 90       	pop	r12
    1696:	bf 90       	pop	r11
    1698:	af 90       	pop	r10
    169a:	9f 90       	pop	r9
    169c:	8f 90       	pop	r8
    169e:	08 95       	ret

000016a0 <enlarge>:
    16a0:	44 23       	and	r20, r20
    16a2:	e9 f0       	breq	.+58     	; 0x16de <enlarge+0x3e>
    16a4:	e8 2f       	mov	r30, r24
    16a6:	f9 2f       	mov	r31, r25
    16a8:	30 e0       	ldi	r19, 0x00	; 0
    16aa:	90 e0       	ldi	r25, 0x00	; 0
    16ac:	78 e0       	ldi	r23, 0x08	; 8
    16ae:	50 e0       	ldi	r21, 0x00	; 0
    16b0:	13 c0       	rjmp	.+38     	; 0x16d8 <enlarge+0x38>
    16b2:	80 81       	ld	r24, Z
    16b4:	86 95       	lsr	r24
    16b6:	60 fd       	sbrc	r22, 0
    16b8:	02 c0       	rjmp	.+4      	; 0x16be <enlarge+0x1e>
    16ba:	8c 93       	st	X, r24
    16bc:	02 c0       	rjmp	.+4      	; 0x16c2 <enlarge+0x22>
    16be:	80 68       	ori	r24, 0x80	; 128
    16c0:	8c 93       	st	X, r24
    16c2:	9f 5f       	subi	r25, 0xFF	; 255
    16c4:	94 13       	cpse	r25, r20
    16c6:	02 c0       	rjmp	.+4      	; 0x16cc <enlarge+0x2c>
    16c8:	66 95       	lsr	r22
    16ca:	95 2f       	mov	r25, r21
    16cc:	21 50       	subi	r18, 0x01	; 1
    16ce:	89 f7       	brne	.-30     	; 0x16b2 <enlarge+0x12>
    16d0:	3f 5f       	subi	r19, 0xFF	; 255
    16d2:	31 96       	adiw	r30, 0x01	; 1
    16d4:	34 17       	cp	r19, r20
    16d6:	19 f0       	breq	.+6      	; 0x16de <enlarge+0x3e>
    16d8:	27 2f       	mov	r18, r23
    16da:	df 01       	movw	r26, r30
    16dc:	ea cf       	rjmp	.-44     	; 0x16b2 <enlarge+0x12>
    16de:	08 95       	ret

000016e0 <putItSz>:
    16e0:	2f 92       	push	r2
    16e2:	3f 92       	push	r3
    16e4:	4f 92       	push	r4
    16e6:	5f 92       	push	r5
    16e8:	6f 92       	push	r6
    16ea:	7f 92       	push	r7
    16ec:	8f 92       	push	r8
    16ee:	9f 92       	push	r9
    16f0:	af 92       	push	r10
    16f2:	bf 92       	push	r11
    16f4:	cf 92       	push	r12
    16f6:	df 92       	push	r13
    16f8:	ef 92       	push	r14
    16fa:	ff 92       	push	r15
    16fc:	0f 93       	push	r16
    16fe:	1f 93       	push	r17
    1700:	cf 93       	push	r28
    1702:	df 93       	push	r29
    1704:	cd b7       	in	r28, 0x3d	; 61
    1706:	de b7       	in	r29, 0x3e	; 62
    1708:	2c 97       	sbiw	r28, 0x0c	; 12
    170a:	0f b6       	in	r0, 0x3f	; 63
    170c:	f8 94       	cli
    170e:	de bf       	out	0x3e, r29	; 62
    1710:	0f be       	out	0x3f, r0	; 63
    1712:	cd bf       	out	0x3d, r28	; 61
    1714:	8c 01       	movw	r16, r24
    1716:	86 2f       	mov	r24, r22
    1718:	97 2f       	mov	r25, r23
    171a:	5a 83       	std	Y+2, r21	; 0x02
    171c:	49 83       	std	Y+1, r20	; 0x01
    171e:	b2 2e       	mov	r11, r18
    1720:	2d b7       	in	r18, 0x3d	; 61
    1722:	3e b7       	in	r19, 0x3e	; 62
    1724:	3c 87       	std	Y+12, r19	; 0x0c
    1726:	2b 87       	std	Y+11, r18	; 0x0b
    1728:	2b 2c       	mov	r2, r11
    172a:	31 2c       	mov	r3, r1
    172c:	ed b7       	in	r30, 0x3d	; 61
    172e:	fe b7       	in	r31, 0x3e	; 62
    1730:	28 e0       	ldi	r18, 0x08	; 8
    1732:	b2 9e       	mul	r11, r18
    1734:	e0 19       	sub	r30, r0
    1736:	f1 09       	sbc	r31, r1
    1738:	11 24       	eor	r1, r1
    173a:	0f b6       	in	r0, 0x3f	; 63
    173c:	f8 94       	cli
    173e:	fe bf       	out	0x3e, r31	; 62
    1740:	0f be       	out	0x3f, r0	; 63
    1742:	ed bf       	out	0x3d, r30	; 61
    1744:	31 96       	adiw	r30, 0x01	; 1
    1746:	7f 01       	movw	r14, r30
    1748:	fa 87       	std	Y+10, r31	; 0x0a
    174a:	e9 87       	std	Y+9, r30	; 0x09
    174c:	c6 2e       	mov	r12, r22
    174e:	d7 2e       	mov	r13, r23
    1750:	0e 94 dd 09 	call	0x13ba	; 0x13ba <goto_col>
    1754:	89 81       	ldd	r24, Y+1	; 0x01
    1756:	9a 81       	ldd	r25, Y+2	; 0x02
    1758:	0e 94 ee 09 	call	0x13dc	; 0x13dc <goto_row>
    175c:	00 0f       	add	r16, r16
    175e:	11 1f       	adc	r17, r17
    1760:	00 0f       	add	r16, r16
    1762:	11 1f       	adc	r17, r17
    1764:	00 0f       	add	r16, r16
    1766:	11 1f       	adc	r17, r17
    1768:	00 0f       	add	r16, r16
    176a:	11 1f       	adc	r17, r17
    176c:	08 5a       	subi	r16, 0xA8	; 168
    176e:	1c 4f       	sbci	r17, 0xFC	; 252
    1770:	68 94       	set
    1772:	aa 24       	eor	r10, r10
    1774:	a3 f8       	bld	r10, 3
    1776:	f8 01       	movw	r30, r16
    1778:	64 91       	lpm	r22, Z
    177a:	4b 2d       	mov	r20, r11
    177c:	c7 01       	movw	r24, r14
    177e:	0e 94 50 0b 	call	0x16a0	; 0x16a0 <enlarge>
    1782:	aa 94       	dec	r10
    1784:	0e 5f       	subi	r16, 0xFE	; 254
    1786:	1f 4f       	sbci	r17, 0xFF	; 255
    1788:	e2 0c       	add	r14, r2
    178a:	f3 1c       	adc	r15, r3
    178c:	a1 10       	cpse	r10, r1
    178e:	f3 cf       	rjmp	.-26     	; 0x1776 <putItSz+0x96>
    1790:	bb 20       	and	r11, r11
    1792:	09 f4       	brne	.+2      	; 0x1796 <putItSz+0xb6>
    1794:	56 c0       	rjmp	.+172    	; 0x1842 <putItSz+0x162>
    1796:	44 24       	eor	r4, r4
    1798:	4a 94       	dec	r4
    179a:	4b 0c       	add	r4, r11
    179c:	51 2c       	mov	r5, r1
    179e:	ff ef       	ldi	r31, 0xFF	; 255
    17a0:	4f 1a       	sub	r4, r31
    17a2:	5f 0a       	sbc	r5, r31
    17a4:	1e 82       	std	Y+6, r1	; 0x06
    17a6:	1d 82       	std	Y+5, r1	; 0x05
    17a8:	3c 82       	std	Y+4, r3	; 0x04
    17aa:	2b 82       	std	Y+3, r2	; 0x03
    17ac:	cf 82       	std	Y+7, r12	; 0x07
    17ae:	d8 86       	std	Y+8, r13	; 0x08
    17b0:	3d c0       	rjmp	.+122    	; 0x182c <putItSz+0x14c>
    17b2:	00 34       	cpi	r16, 0x40	; 64
    17b4:	11 05       	cpc	r17, r1
    17b6:	31 f4       	brne	.+12     	; 0x17c4 <putItSz+0xe4>
    17b8:	69 81       	ldd	r22, Y+1	; 0x01
    17ba:	7a 81       	ldd	r23, Y+2	; 0x02
    17bc:	80 e4       	ldi	r24, 0x40	; 64
    17be:	90 e0       	ldi	r25, 0x00	; 0
    17c0:	0e 94 f6 09 	call	0x13ec	; 0x13ec <goto_xy>
    17c4:	f7 01       	movw	r30, r14
    17c6:	80 81       	ld	r24, Z
    17c8:	0e 94 01 0a 	call	0x1402	; 0x1402 <glcd_write>
    17cc:	0f 5f       	subi	r16, 0xFF	; 255
    17ce:	1f 4f       	sbci	r17, 0xFF	; 255
    17d0:	c0 16       	cp	r12, r16
    17d2:	d1 06       	cpc	r13, r17
    17d4:	71 f7       	brne	.-36     	; 0x17b2 <putItSz+0xd2>
    17d6:	ff ef       	ldi	r31, 0xFF	; 255
    17d8:	af 1a       	sub	r10, r31
    17da:	bf 0a       	sbc	r11, r31
    17dc:	2b 81       	ldd	r18, Y+3	; 0x03
    17de:	3c 81       	ldd	r19, Y+4	; 0x04
    17e0:	82 0e       	add	r8, r18
    17e2:	93 1e       	adc	r9, r19
    17e4:	38 e0       	ldi	r19, 0x08	; 8
    17e6:	a3 16       	cp	r10, r19
    17e8:	b1 04       	cpc	r11, r1
    17ea:	71 f0       	breq	.+28     	; 0x1808 <putItSz+0x128>
    17ec:	64 01       	movw	r12, r8
    17ee:	c4 0c       	add	r12, r4
    17f0:	d5 1c       	adc	r13, r5
    17f2:	84 01       	movw	r16, r8
    17f4:	2a 9c       	mul	r2, r10
    17f6:	70 01       	movw	r14, r0
    17f8:	2b 9c       	mul	r2, r11
    17fa:	f0 0c       	add	r15, r0
    17fc:	3a 9c       	mul	r3, r10
    17fe:	f0 0c       	add	r15, r0
    1800:	11 24       	eor	r1, r1
    1802:	e6 0c       	add	r14, r6
    1804:	f7 1c       	adc	r15, r7
    1806:	d5 cf       	rjmp	.-86     	; 0x17b2 <putItSz+0xd2>
    1808:	89 81       	ldd	r24, Y+1	; 0x01
    180a:	9a 81       	ldd	r25, Y+2	; 0x02
    180c:	01 96       	adiw	r24, 0x01	; 1
    180e:	9a 83       	std	Y+2, r25	; 0x02
    1810:	89 83       	std	Y+1, r24	; 0x01
    1812:	bc 01       	movw	r22, r24
    1814:	8f 81       	ldd	r24, Y+7	; 0x07
    1816:	98 85       	ldd	r25, Y+8	; 0x08
    1818:	0e 94 f6 09 	call	0x13ec	; 0x13ec <goto_xy>
    181c:	ed 81       	ldd	r30, Y+5	; 0x05
    181e:	fe 81       	ldd	r31, Y+6	; 0x06
    1820:	31 96       	adiw	r30, 0x01	; 1
    1822:	fe 83       	std	Y+6, r31	; 0x06
    1824:	ed 83       	std	Y+5, r30	; 0x05
    1826:	e4 15       	cp	r30, r4
    1828:	f5 05       	cpc	r31, r5
    182a:	59 f0       	breq	.+22     	; 0x1842 <putItSz+0x162>
    182c:	8f 80       	ldd	r8, Y+7	; 0x07
    182e:	98 84       	ldd	r9, Y+8	; 0x08
    1830:	a1 2c       	mov	r10, r1
    1832:	b1 2c       	mov	r11, r1
    1834:	69 84       	ldd	r6, Y+9	; 0x09
    1836:	7a 84       	ldd	r7, Y+10	; 0x0a
    1838:	2d 81       	ldd	r18, Y+5	; 0x05
    183a:	3e 81       	ldd	r19, Y+6	; 0x06
    183c:	62 0e       	add	r6, r18
    183e:	73 1e       	adc	r7, r19
    1840:	d5 cf       	rjmp	.-86     	; 0x17ec <putItSz+0x10c>
    1842:	8b 85       	ldd	r24, Y+11	; 0x0b
    1844:	9c 85       	ldd	r25, Y+12	; 0x0c
    1846:	0f b6       	in	r0, 0x3f	; 63
    1848:	f8 94       	cli
    184a:	9e bf       	out	0x3e, r25	; 62
    184c:	0f be       	out	0x3f, r0	; 63
    184e:	8d bf       	out	0x3d, r24	; 61
    1850:	2c 96       	adiw	r28, 0x0c	; 12
    1852:	0f b6       	in	r0, 0x3f	; 63
    1854:	f8 94       	cli
    1856:	de bf       	out	0x3e, r29	; 62
    1858:	0f be       	out	0x3f, r0	; 63
    185a:	cd bf       	out	0x3d, r28	; 61
    185c:	df 91       	pop	r29
    185e:	cf 91       	pop	r28
    1860:	1f 91       	pop	r17
    1862:	0f 91       	pop	r16
    1864:	ff 90       	pop	r15
    1866:	ef 90       	pop	r14
    1868:	df 90       	pop	r13
    186a:	cf 90       	pop	r12
    186c:	bf 90       	pop	r11
    186e:	af 90       	pop	r10
    1870:	9f 90       	pop	r9
    1872:	8f 90       	pop	r8
    1874:	7f 90       	pop	r7
    1876:	6f 90       	pop	r6
    1878:	5f 90       	pop	r5
    187a:	4f 90       	pop	r4
    187c:	3f 90       	pop	r3
    187e:	2f 90       	pop	r2
    1880:	08 95       	ret

00001882 <glcd_putchar>:
    1882:	ef 92       	push	r14
    1884:	ff 92       	push	r15
    1886:	0f 93       	push	r16
    1888:	1f 93       	push	r17
    188a:	cf 93       	push	r28
    188c:	df 93       	push	r29
    188e:	c8 2f       	mov	r28, r24
    1890:	d6 2f       	mov	r29, r22
    1892:	f7 2e       	mov	r15, r23
    1894:	14 2f       	mov	r17, r20
    1896:	e5 2e       	mov	r14, r21
    1898:	21 30       	cpi	r18, 0x01	; 1
    189a:	09 f0       	breq	.+2      	; 0x189e <glcd_putchar+0x1c>
    189c:	90 c0       	rjmp	.+288    	; 0x19be <glcd_putchar+0x13c>
    189e:	8e 38       	cpi	r24, 0x8E	; 142
    18a0:	79 f0       	breq	.+30     	; 0x18c0 <glcd_putchar+0x3e>
    18a2:	30 f4       	brcc	.+12     	; 0x18b0 <glcd_putchar+0x2e>
    18a4:	81 38       	cpi	r24, 0x81	; 129
    18a6:	09 f4       	brne	.+2      	; 0x18aa <glcd_putchar+0x28>
    18a8:	8f c0       	rjmp	.+286    	; 0x19c8 <glcd_putchar+0x146>
    18aa:	8d 38       	cpi	r24, 0x8D	; 141
    18ac:	59 f0       	breq	.+22     	; 0x18c4 <glcd_putchar+0x42>
    18ae:	0c c0       	rjmp	.+24     	; 0x18c8 <glcd_putchar+0x46>
    18b0:	80 39       	cpi	r24, 0x90	; 144
    18b2:	21 f0       	breq	.+8      	; 0x18bc <glcd_putchar+0x3a>
    18b4:	88 39       	cpi	r24, 0x98	; 152
    18b6:	09 f4       	brne	.+2      	; 0x18ba <glcd_putchar+0x38>
    18b8:	89 c0       	rjmp	.+274    	; 0x19cc <glcd_putchar+0x14a>
    18ba:	06 c0       	rjmp	.+12     	; 0x18c8 <glcd_putchar+0x46>
    18bc:	cb ef       	ldi	r28, 0xFB	; 251
    18be:	87 c0       	rjmp	.+270    	; 0x19ce <glcd_putchar+0x14c>
    18c0:	cd ef       	ldi	r28, 0xFD	; 253
    18c2:	85 c0       	rjmp	.+266    	; 0x19ce <glcd_putchar+0x14c>
    18c4:	ce ef       	ldi	r28, 0xFE	; 254
    18c6:	83 c0       	rjmp	.+262    	; 0x19ce <glcd_putchar+0x14c>
    18c8:	c1 3c       	cpi	r28, 0xC1	; 193
    18ca:	08 f4       	brcc	.+2      	; 0x18ce <glcd_putchar+0x4c>
    18cc:	95 c0       	rjmp	.+298    	; 0x19f8 <glcd_putchar+0x176>
    18ce:	8b c0       	rjmp	.+278    	; 0x19e6 <glcd_putchar+0x164>
    18d0:	81 5c       	subi	r24, 0xC1	; 193
    18d2:	91 09       	sbc	r25, r1
    18d4:	fc 01       	movw	r30, r24
    18d6:	ee 0f       	add	r30, r30
    18d8:	ff 1f       	adc	r31, r31
    18da:	e8 0f       	add	r30, r24
    18dc:	f9 1f       	adc	r31, r25
    18de:	ee 0f       	add	r30, r30
    18e0:	ff 1f       	adc	r31, r31
    18e2:	ee 0f       	add	r30, r30
    18e4:	ff 1f       	adc	r31, r31
    18e6:	e6 58       	subi	r30, 0x86	; 134
    18e8:	ff 4f       	sbci	r31, 0xFF	; 255
    18ea:	e4 91       	lpm	r30, Z
    18ec:	ee 23       	and	r30, r30
    18ee:	91 f1       	breq	.+100    	; 0x1954 <glcd_putchar+0xd2>
    18f0:	2c 2f       	mov	r18, r28
    18f2:	30 e0       	ldi	r19, 0x00	; 0
    18f4:	21 5c       	subi	r18, 0xC1	; 193
    18f6:	31 09       	sbc	r19, r1
    18f8:	f9 01       	movw	r30, r18
    18fa:	ee 0f       	add	r30, r30
    18fc:	ff 1f       	adc	r31, r31
    18fe:	e2 0f       	add	r30, r18
    1900:	f3 1f       	adc	r31, r19
    1902:	ee 0f       	add	r30, r30
    1904:	ff 1f       	adc	r31, r31
    1906:	ee 0f       	add	r30, r30
    1908:	ff 1f       	adc	r31, r31
    190a:	e8 58       	subi	r30, 0x88	; 136
    190c:	ff 4f       	sbci	r31, 0xFF	; 255
    190e:	e4 91       	lpm	r30, Z
    1910:	ee 23       	and	r30, r30
    1912:	01 f1       	breq	.+64     	; 0x1954 <glcd_putchar+0xd2>
    1914:	9c 01       	movw	r18, r24
    1916:	22 0f       	add	r18, r18
    1918:	33 1f       	adc	r19, r19
    191a:	82 0f       	add	r24, r18
    191c:	93 1f       	adc	r25, r19
    191e:	88 0f       	add	r24, r24
    1920:	99 1f       	adc	r25, r25
    1922:	e0 91 0e 01 	lds	r30, 0x010E	; 0x80010e <stat>
    1926:	f0 e0       	ldi	r31, 0x00	; 0
    1928:	31 96       	adiw	r30, 0x01	; 1
    192a:	e8 0f       	add	r30, r24
    192c:	f9 1f       	adc	r31, r25
    192e:	ee 0f       	add	r30, r30
    1930:	ff 1f       	adc	r31, r31
    1932:	e0 59       	subi	r30, 0x90	; 144
    1934:	ff 4f       	sbci	r31, 0xFF	; 255
    1936:	84 91       	lpm	r24, Z
    1938:	40 91 0c 01 	lds	r20, 0x010C	; 0x80010c <__data_end>
    193c:	50 e0       	ldi	r21, 0x00	; 0
    193e:	60 91 0d 01 	lds	r22, 0x010D	; 0x80010d <prevX>
    1942:	70 e0       	ldi	r23, 0x00	; 0
    1944:	20 2f       	mov	r18, r16
    1946:	90 e0       	ldi	r25, 0x00	; 0
    1948:	0e 94 70 0b 	call	0x16e0	; 0x16e0 <putItSz>
    194c:	82 e0       	ldi	r24, 0x02	; 2
    194e:	80 93 0e 01 	sts	0x010E, r24	; 0x80010e <stat>
    1952:	04 c0       	rjmp	.+8      	; 0x195c <glcd_putchar+0xda>
    1954:	10 92 0e 01 	sts	0x010E, r1	; 0x80010e <stat>
    1958:	c1 3c       	cpi	r28, 0xC1	; 193
    195a:	e8 f0       	brcs	.+58     	; 0x1996 <glcd_putchar+0x114>
    195c:	8c 2f       	mov	r24, r28
    195e:	90 e0       	ldi	r25, 0x00	; 0
    1960:	81 5c       	subi	r24, 0xC1	; 193
    1962:	91 09       	sbc	r25, r1
    1964:	fc 01       	movw	r30, r24
    1966:	ee 0f       	add	r30, r30
    1968:	ff 1f       	adc	r31, r31
    196a:	e8 0f       	add	r30, r24
    196c:	f9 1f       	adc	r31, r25
    196e:	ee 0f       	add	r30, r30
    1970:	ff 1f       	adc	r31, r31
    1972:	80 91 0e 01 	lds	r24, 0x010E	; 0x80010e <stat>
    1976:	e8 0f       	add	r30, r24
    1978:	f1 1d       	adc	r31, r1
    197a:	ee 0f       	add	r30, r30
    197c:	ff 1f       	adc	r31, r31
    197e:	e0 59       	subi	r30, 0x90	; 144
    1980:	ff 4f       	sbci	r31, 0xFF	; 255
    1982:	84 91       	lpm	r24, Z
    1984:	20 2f       	mov	r18, r16
    1986:	41 2f       	mov	r20, r17
    1988:	5e 2d       	mov	r21, r14
    198a:	6d 2f       	mov	r22, r29
    198c:	7f 2d       	mov	r23, r15
    198e:	90 e0       	ldi	r25, 0x00	; 0
    1990:	0e 94 70 0b 	call	0x16e0	; 0x16e0 <putItSz>
    1994:	09 c0       	rjmp	.+18     	; 0x19a8 <glcd_putchar+0x126>
    1996:	20 2f       	mov	r18, r16
    1998:	41 2f       	mov	r20, r17
    199a:	5e 2d       	mov	r21, r14
    199c:	6d 2f       	mov	r22, r29
    199e:	7f 2d       	mov	r23, r15
    19a0:	8c 2f       	mov	r24, r28
    19a2:	90 e0       	ldi	r25, 0x00	; 0
    19a4:	0e 94 70 0b 	call	0x16e0	; 0x16e0 <putItSz>
    19a8:	8c 2f       	mov	r24, r28
    19aa:	90 e0       	ldi	r25, 0x00	; 0
    19ac:	90 93 01 01 	sts	0x0101, r25	; 0x800101 <__data_start+0x1>
    19b0:	80 93 00 01 	sts	0x0100, r24	; 0x800100 <__data_start>
    19b4:	d0 93 0d 01 	sts	0x010D, r29	; 0x80010d <prevX>
    19b8:	10 93 0c 01 	sts	0x010C, r17	; 0x80010c <__data_end>
    19bc:	20 c0       	rjmp	.+64     	; 0x19fe <glcd_putchar+0x17c>
    19be:	20 2f       	mov	r18, r16
    19c0:	90 e0       	ldi	r25, 0x00	; 0
    19c2:	0e 94 70 0b 	call	0x16e0	; 0x16e0 <putItSz>
    19c6:	1b c0       	rjmp	.+54     	; 0x19fe <glcd_putchar+0x17c>
    19c8:	ca ef       	ldi	r28, 0xFA	; 250
    19ca:	01 c0       	rjmp	.+2      	; 0x19ce <glcd_putchar+0x14c>
    19cc:	cc ef       	ldi	r28, 0xFC	; 252
    19ce:	80 91 00 01 	lds	r24, 0x0100	; 0x800100 <__data_start>
    19d2:	90 91 01 01 	lds	r25, 0x0101	; 0x800101 <__data_start+0x1>
    19d6:	81 3c       	cpi	r24, 0xC1	; 193
    19d8:	91 05       	cpc	r25, r1
    19da:	0c f0       	brlt	.+2      	; 0x19de <glcd_putchar+0x15c>
    19dc:	79 cf       	rjmp	.-270    	; 0x18d0 <glcd_putchar+0x4e>
    19de:	ba cf       	rjmp	.-140    	; 0x1954 <glcd_putchar+0xd2>
    19e0:	10 92 0e 01 	sts	0x010E, r1	; 0x80010e <stat>
    19e4:	bb cf       	rjmp	.-138    	; 0x195c <glcd_putchar+0xda>
    19e6:	80 91 00 01 	lds	r24, 0x0100	; 0x800100 <__data_start>
    19ea:	90 91 01 01 	lds	r25, 0x0101	; 0x800101 <__data_start+0x1>
    19ee:	81 3c       	cpi	r24, 0xC1	; 193
    19f0:	91 05       	cpc	r25, r1
    19f2:	0c f0       	brlt	.+2      	; 0x19f6 <glcd_putchar+0x174>
    19f4:	6d cf       	rjmp	.-294    	; 0x18d0 <glcd_putchar+0x4e>
    19f6:	f4 cf       	rjmp	.-24     	; 0x19e0 <glcd_putchar+0x15e>
    19f8:	10 92 0e 01 	sts	0x010E, r1	; 0x80010e <stat>
    19fc:	cc cf       	rjmp	.-104    	; 0x1996 <glcd_putchar+0x114>
    19fe:	df 91       	pop	r29
    1a00:	cf 91       	pop	r28
    1a02:	1f 91       	pop	r17
    1a04:	0f 91       	pop	r16
    1a06:	ff 90       	pop	r15
    1a08:	ef 90       	pop	r14
    1a0a:	08 95       	ret

00001a0c <glcd_puts>:
    1a0c:	2f 92       	push	r2
    1a0e:	3f 92       	push	r3
    1a10:	4f 92       	push	r4
    1a12:	5f 92       	push	r5
    1a14:	6f 92       	push	r6
    1a16:	7f 92       	push	r7
    1a18:	8f 92       	push	r8
    1a1a:	9f 92       	push	r9
    1a1c:	af 92       	push	r10
    1a1e:	bf 92       	push	r11
    1a20:	cf 92       	push	r12
    1a22:	df 92       	push	r13
    1a24:	ef 92       	push	r14
    1a26:	ff 92       	push	r15
    1a28:	0f 93       	push	r16
    1a2a:	1f 93       	push	r17
    1a2c:	cf 93       	push	r28
    1a2e:	df 93       	push	r29
    1a30:	cd b7       	in	r28, 0x3d	; 61
    1a32:	de b7       	in	r29, 0x3e	; 62
    1a34:	29 97       	sbiw	r28, 0x09	; 9
    1a36:	0f b6       	in	r0, 0x3f	; 63
    1a38:	f8 94       	cli
    1a3a:	de bf       	out	0x3e, r29	; 62
    1a3c:	0f be       	out	0x3f, r0	; 63
    1a3e:	cd bf       	out	0x3d, r28	; 61
    1a40:	6c 01       	movw	r12, r24
    1a42:	79 87       	std	Y+9, r23	; 0x09
    1a44:	68 87       	std	Y+8, r22	; 0x08
    1a46:	2a 01       	movw	r4, r20
    1a48:	29 83       	std	Y+1, r18	; 0x01
    1a4a:	0a 83       	std	Y+2, r16	; 0x02
    1a4c:	0e 2c       	mov	r0, r14
    1a4e:	00 0c       	add	r0, r0
    1a50:	ff 08       	sbc	r15, r15
    1a52:	60 2e       	mov	r6, r16
    1a54:	71 2c       	mov	r7, r1
    1a56:	c7 01       	movw	r24, r14
    1a58:	08 96       	adiw	r24, 0x08	; 8
    1a5a:	86 9d       	mul	r24, r6
    1a5c:	40 01       	movw	r8, r0
    1a5e:	87 9d       	mul	r24, r7
    1a60:	90 0c       	add	r9, r0
    1a62:	96 9d       	mul	r25, r6
    1a64:	90 0c       	add	r9, r0
    1a66:	11 24       	eor	r1, r1
    1a68:	80 e1       	ldi	r24, 0x10	; 16
    1a6a:	90 e0       	ldi	r25, 0x00	; 0
    1a6c:	5c 01       	movw	r10, r24
    1a6e:	a6 18       	sub	r10, r6
    1a70:	b7 08       	sbc	r11, r7
    1a72:	aa 0c       	add	r10, r10
    1a74:	bb 1c       	adc	r11, r11
    1a76:	aa 0c       	add	r10, r10
    1a78:	bb 1c       	adc	r11, r11
    1a7a:	aa 0c       	add	r10, r10
    1a7c:	bb 1c       	adc	r11, r11
    1a7e:	10 e0       	ldi	r17, 0x00	; 0
    1a80:	21 2c       	mov	r2, r1
    1a82:	31 2c       	mov	r3, r1
    1a84:	fc 82       	std	Y+4, r15	; 0x04
    1a86:	eb 82       	std	Y+3, r14	; 0x03
    1a88:	f2 2e       	mov	r15, r18
    1a8a:	e0 2e       	mov	r14, r16
    1a8c:	19 c0       	rjmp	.+50     	; 0x1ac0 <glcd_puts+0xb4>
    1a8e:	f6 01       	movw	r30, r12
    1a90:	e8 0f       	add	r30, r24
    1a92:	f9 1f       	adc	r31, r25
    1a94:	0e 2d       	mov	r16, r14
    1a96:	20 e0       	ldi	r18, 0x00	; 0
    1a98:	a2 01       	movw	r20, r4
    1a9a:	68 85       	ldd	r22, Y+8	; 0x08
    1a9c:	79 85       	ldd	r23, Y+9	; 0x09
    1a9e:	80 81       	ld	r24, Z
    1aa0:	0e 94 41 0c 	call	0x1882	; 0x1882 <glcd_putchar>
    1aa4:	28 85       	ldd	r18, Y+8	; 0x08
    1aa6:	39 85       	ldd	r19, Y+9	; 0x09
    1aa8:	28 0d       	add	r18, r8
    1aaa:	39 1d       	adc	r19, r9
    1aac:	39 87       	std	Y+9, r19	; 0x09
    1aae:	28 87       	std	Y+8, r18	; 0x08
    1ab0:	a2 16       	cp	r10, r18
    1ab2:	b3 06       	cpc	r11, r19
    1ab4:	24 f4       	brge	.+8      	; 0x1abe <glcd_puts+0xb2>
    1ab6:	46 0c       	add	r4, r6
    1ab8:	57 1c       	adc	r5, r7
    1aba:	28 86       	std	Y+8, r2	; 0x08
    1abc:	39 86       	std	Y+9, r3	; 0x09
    1abe:	1f 5f       	subi	r17, 0xFF	; 255
    1ac0:	81 2f       	mov	r24, r17
    1ac2:	90 e0       	ldi	r25, 0x00	; 0
    1ac4:	f6 01       	movw	r30, r12
    1ac6:	01 90       	ld	r0, Z+
    1ac8:	00 20       	and	r0, r0
    1aca:	e9 f7       	brne	.-6      	; 0x1ac6 <glcd_puts+0xba>
    1acc:	31 97       	sbiw	r30, 0x01	; 1
    1ace:	ec 19       	sub	r30, r12
    1ad0:	fd 09       	sbc	r31, r13
    1ad2:	8e 17       	cp	r24, r30
    1ad4:	9f 07       	cpc	r25, r31
    1ad6:	30 f1       	brcs	.+76     	; 0x1b24 <glcd_puts+0x118>
    1ad8:	eb 80       	ldd	r14, Y+3	; 0x03
    1ada:	fc 80       	ldd	r15, Y+4	; 0x04
    1adc:	22 24       	eor	r2, r2
    1ade:	33 24       	eor	r3, r3
    1ae0:	26 18       	sub	r2, r6
    1ae2:	37 08       	sbc	r3, r7
    1ae4:	22 0c       	add	r2, r2
    1ae6:	33 1c       	adc	r3, r3
    1ae8:	22 0c       	add	r2, r2
    1aea:	33 1c       	adc	r3, r3
    1aec:	22 0c       	add	r2, r2
    1aee:	33 1c       	adc	r3, r3
    1af0:	88 ef       	ldi	r24, 0xF8	; 248
    1af2:	9f ef       	ldi	r25, 0xFF	; 255
    1af4:	8e 19       	sub	r24, r14
    1af6:	9f 09       	sbc	r25, r15
    1af8:	68 9e       	mul	r6, r24
    1afa:	f0 01       	movw	r30, r0
    1afc:	69 9e       	mul	r6, r25
    1afe:	f0 0d       	add	r31, r0
    1b00:	78 9e       	mul	r7, r24
    1b02:	f0 0d       	add	r31, r0
    1b04:	11 24       	eor	r1, r1
    1b06:	ff 83       	std	Y+7, r31	; 0x07
    1b08:	ee 83       	std	Y+6, r30	; 0x06
    1b0a:	43 01       	movw	r8, r6
    1b0c:	88 0c       	add	r8, r8
    1b0e:	99 1c       	adc	r9, r9
    1b10:	88 0c       	add	r8, r8
    1b12:	99 1c       	adc	r9, r9
    1b14:	88 0c       	add	r8, r8
    1b16:	99 1c       	adc	r9, r9
    1b18:	ff ef       	ldi	r31, 0xFF	; 255
    1b1a:	8f 1a       	sub	r8, r31
    1b1c:	9f 0a       	sbc	r9, r31
    1b1e:	ab 82       	std	Y+3, r10	; 0x03
    1b20:	bd 82       	std	Y+5, r11	; 0x05
    1b22:	3d c0       	rjmp	.+122    	; 0x1b9e <glcd_puts+0x192>
    1b24:	ff 20       	and	r15, r15
    1b26:	09 f4       	brne	.+2      	; 0x1b2a <glcd_puts+0x11e>
    1b28:	b2 cf       	rjmp	.-156    	; 0x1a8e <glcd_puts+0x82>
    1b2a:	eb 80       	ldd	r14, Y+3	; 0x03
    1b2c:	fc 80       	ldd	r15, Y+4	; 0x04
    1b2e:	d6 cf       	rjmp	.-84     	; 0x1adc <glcd_puts+0xd0>
    1b30:	76 01       	movw	r14, r12
    1b32:	e2 0e       	add	r14, r18
    1b34:	f3 1e       	adc	r15, r19
    1b36:	f7 01       	movw	r30, r14
    1b38:	80 81       	ld	r24, Z
    1b3a:	81 3e       	cpi	r24, 0xE1	; 225
    1b3c:	71 f4       	brne	.+28     	; 0x1b5a <glcd_puts+0x14e>
    1b3e:	f7 01       	movw	r30, r14
    1b40:	91 81       	ldd	r25, Z+1	; 0x01
    1b42:	97 3c       	cpi	r25, 0xC7	; 199
    1b44:	09 f4       	brne	.+2      	; 0x1b48 <glcd_puts+0x13c>
    1b46:	42 c0       	rjmp	.+132    	; 0x1bcc <glcd_puts+0x1c0>
    1b48:	93 3c       	cpi	r25, 0xC3	; 195
    1b4a:	09 f4       	brne	.+2      	; 0x1b4e <glcd_puts+0x142>
    1b4c:	41 c0       	rjmp	.+130    	; 0x1bd0 <glcd_puts+0x1c4>
    1b4e:	92 3c       	cpi	r25, 0xC2	; 194
    1b50:	09 f4       	brne	.+2      	; 0x1b54 <glcd_puts+0x148>
    1b52:	40 c0       	rjmp	.+128    	; 0x1bd4 <glcd_puts+0x1c8>
    1b54:	95 3c       	cpi	r25, 0xC5	; 197
    1b56:	09 f4       	brne	.+2      	; 0x1b5a <glcd_puts+0x14e>
    1b58:	3f c0       	rjmp	.+126    	; 0x1bd8 <glcd_puts+0x1cc>
    1b5a:	a8 84       	ldd	r10, Y+8	; 0x08
    1b5c:	b9 84       	ldd	r11, Y+9	; 0x09
    1b5e:	a2 0c       	add	r10, r2
    1b60:	b3 1c       	adc	r11, r3
    1b62:	0a 81       	ldd	r16, Y+2	; 0x02
    1b64:	21 e0       	ldi	r18, 0x01	; 1
    1b66:	a2 01       	movw	r20, r4
    1b68:	b5 01       	movw	r22, r10
    1b6a:	0e 94 41 0c 	call	0x1882	; 0x1882 <glcd_putchar>
    1b6e:	f7 01       	movw	r30, r14
    1b70:	80 81       	ld	r24, Z
    1b72:	80 32       	cpi	r24, 0x20	; 32
    1b74:	31 f4       	brne	.+12     	; 0x1b82 <glcd_puts+0x176>
    1b76:	ae 80       	ldd	r10, Y+6	; 0x06
    1b78:	bf 80       	ldd	r11, Y+7	; 0x07
    1b7a:	28 85       	ldd	r18, Y+8	; 0x08
    1b7c:	39 85       	ldd	r19, Y+9	; 0x09
    1b7e:	a2 0e       	add	r10, r18
    1b80:	b3 1e       	adc	r11, r19
    1b82:	1f 5f       	subi	r17, 0xFF	; 255
    1b84:	b9 86       	std	Y+9, r11	; 0x09
    1b86:	a8 86       	std	Y+8, r10	; 0x08
    1b88:	88 85       	ldd	r24, Y+8	; 0x08
    1b8a:	99 85       	ldd	r25, Y+9	; 0x09
    1b8c:	88 15       	cp	r24, r8
    1b8e:	99 05       	cpc	r25, r9
    1b90:	34 f4       	brge	.+12     	; 0x1b9e <glcd_puts+0x192>
    1b92:	46 0c       	add	r4, r6
    1b94:	57 1c       	adc	r5, r7
    1b96:	9b 81       	ldd	r25, Y+3	; 0x03
    1b98:	98 87       	std	Y+8, r25	; 0x08
    1b9a:	ed 81       	ldd	r30, Y+5	; 0x05
    1b9c:	e9 87       	std	Y+9, r30	; 0x09
    1b9e:	21 2f       	mov	r18, r17
    1ba0:	30 e0       	ldi	r19, 0x00	; 0
    1ba2:	f6 01       	movw	r30, r12
    1ba4:	01 90       	ld	r0, Z+
    1ba6:	00 20       	and	r0, r0
    1ba8:	e9 f7       	brne	.-6      	; 0x1ba4 <glcd_puts+0x198>
    1baa:	31 97       	sbiw	r30, 0x01	; 1
    1bac:	ec 19       	sub	r30, r12
    1bae:	fd 09       	sbc	r31, r13
    1bb0:	2e 17       	cp	r18, r30
    1bb2:	3f 07       	cpc	r19, r31
    1bb4:	20 f4       	brcc	.+8      	; 0x1bbe <glcd_puts+0x1b2>
    1bb6:	f9 81       	ldd	r31, Y+1	; 0x01
    1bb8:	f1 30       	cpi	r31, 0x01	; 1
    1bba:	09 f4       	brne	.+2      	; 0x1bbe <glcd_puts+0x1b2>
    1bbc:	b9 cf       	rjmp	.-142    	; 0x1b30 <glcd_puts+0x124>
    1bbe:	81 ec       	ldi	r24, 0xC1	; 193
    1bc0:	90 e0       	ldi	r25, 0x00	; 0
    1bc2:	90 93 01 01 	sts	0x0101, r25	; 0x800101 <__data_start+0x1>
    1bc6:	80 93 00 01 	sts	0x0100, r24	; 0x800100 <__data_start>
    1bca:	16 c0       	rjmp	.+44     	; 0x1bf8 <glcd_puts+0x1ec>
    1bcc:	89 ef       	ldi	r24, 0xF9	; 249
    1bce:	05 c0       	rjmp	.+10     	; 0x1bda <glcd_puts+0x1ce>
    1bd0:	87 ee       	ldi	r24, 0xE7	; 231
    1bd2:	03 c0       	rjmp	.+6      	; 0x1bda <glcd_puts+0x1ce>
    1bd4:	88 ee       	ldi	r24, 0xE8	; 232
    1bd6:	01 c0       	rjmp	.+2      	; 0x1bda <glcd_puts+0x1ce>
    1bd8:	89 ee       	ldi	r24, 0xE9	; 233
    1bda:	28 85       	ldd	r18, Y+8	; 0x08
    1bdc:	39 85       	ldd	r19, Y+9	; 0x09
    1bde:	22 0d       	add	r18, r2
    1be0:	33 1d       	adc	r19, r3
    1be2:	39 87       	std	Y+9, r19	; 0x09
    1be4:	28 87       	std	Y+8, r18	; 0x08
    1be6:	0a 81       	ldd	r16, Y+2	; 0x02
    1be8:	21 e0       	ldi	r18, 0x01	; 1
    1bea:	a2 01       	movw	r20, r4
    1bec:	68 85       	ldd	r22, Y+8	; 0x08
    1bee:	79 85       	ldd	r23, Y+9	; 0x09
    1bf0:	0e 94 41 0c 	call	0x1882	; 0x1882 <glcd_putchar>
    1bf4:	1e 5f       	subi	r17, 0xFE	; 254
    1bf6:	c8 cf       	rjmp	.-112    	; 0x1b88 <glcd_puts+0x17c>
    1bf8:	29 96       	adiw	r28, 0x09	; 9
    1bfa:	0f b6       	in	r0, 0x3f	; 63
    1bfc:	f8 94       	cli
    1bfe:	de bf       	out	0x3e, r29	; 62
    1c00:	0f be       	out	0x3f, r0	; 63
    1c02:	cd bf       	out	0x3d, r28	; 61
    1c04:	df 91       	pop	r29
    1c06:	cf 91       	pop	r28
    1c08:	1f 91       	pop	r17
    1c0a:	0f 91       	pop	r16
    1c0c:	ff 90       	pop	r15
    1c0e:	ef 90       	pop	r14
    1c10:	df 90       	pop	r13
    1c12:	cf 90       	pop	r12
    1c14:	bf 90       	pop	r11
    1c16:	af 90       	pop	r10
    1c18:	9f 90       	pop	r9
    1c1a:	8f 90       	pop	r8
    1c1c:	7f 90       	pop	r7
    1c1e:	6f 90       	pop	r6
    1c20:	5f 90       	pop	r5
    1c22:	4f 90       	pop	r4
    1c24:	3f 90       	pop	r3
    1c26:	2f 90       	pop	r2
    1c28:	08 95       	ret

00001c2a <ball>:
#include <util/delay.h>
#include "glcd.h"


void ball(unsigned int x,unsigned int y, byte c)
 {
    1c2a:	ef 92       	push	r14
    1c2c:	ff 92       	push	r15
    1c2e:	0f 93       	push	r16
    1c30:	1f 93       	push	r17
    1c32:	cf 93       	push	r28
    1c34:	df 93       	push	r29
    1c36:	7c 01       	movw	r14, r24
    1c38:	eb 01       	movw	r28, r22
    h_line(x, y - 1, BALL_SIZE, 0, c);
    1c3a:	61 50       	subi	r22, 0x01	; 1
    1c3c:	71 09       	sbc	r23, r1
    1c3e:	04 2f       	mov	r16, r20
    1c40:	20 e0       	ldi	r18, 0x00	; 0
    1c42:	43 e0       	ldi	r20, 0x03	; 3
    1c44:	0e 94 be 0a 	call	0x157c	; 0x157c <h_line>
    h_line(x, y, BALL_SIZE, 0, c);
    1c48:	20 e0       	ldi	r18, 0x00	; 0
    1c4a:	43 e0       	ldi	r20, 0x03	; 3
    1c4c:	be 01       	movw	r22, r28
    1c4e:	c7 01       	movw	r24, r14
    1c50:	0e 94 be 0a 	call	0x157c	; 0x157c <h_line>
    h_line(x, y + 1, BALL_SIZE, 0, c);
    1c54:	be 01       	movw	r22, r28
    1c56:	6f 5f       	subi	r22, 0xFF	; 255
    1c58:	7f 4f       	sbci	r23, 0xFF	; 255
    1c5a:	20 e0       	ldi	r18, 0x00	; 0
    1c5c:	43 e0       	ldi	r20, 0x03	; 3
    1c5e:	c7 01       	movw	r24, r14
    1c60:	0e 94 be 0a 	call	0x157c	; 0x157c <h_line>
 }
    1c64:	df 91       	pop	r29
    1c66:	cf 91       	pop	r28
    1c68:	1f 91       	pop	r17
    1c6a:	0f 91       	pop	r16
    1c6c:	ff 90       	pop	r15
    1c6e:	ef 90       	pop	r14
    1c70:	08 95       	ret

00001c72 <main>:

int main(void)
{
    DDRA = 0xF0; // Pin 4 bis 7 auf Ausgang
    1c72:	80 ef       	ldi	r24, 0xF0	; 240
    1c74:	81 b9       	out	0x01, r24	; 1

    PORTA = 0xF0 ;
    1c76:	82 b9       	out	0x02, r24	; 2

    glcd_init();
    1c78:	0e 94 54 0a 	call	0x14a8	; 0x14a8 <glcd_init>
    
    glcd_puts("Ping Pong",20,3,0,1,0);
    1c7c:	e1 2c       	mov	r14, r1
    1c7e:	01 e0       	ldi	r16, 0x01	; 1
    1c80:	20 e0       	ldi	r18, 0x00	; 0
    1c82:	43 e0       	ldi	r20, 0x03	; 3
    1c84:	50 e0       	ldi	r21, 0x00	; 0
    1c86:	64 e1       	ldi	r22, 0x14	; 20
    1c88:	70 e0       	ldi	r23, 0x00	; 0
    1c8a:	82 e0       	ldi	r24, 0x02	; 2
    1c8c:	91 e0       	ldi	r25, 0x01	; 1
    1c8e:	0e 94 06 0d 	call	0x1a0c	; 0x1a0c <glcd_puts>
	#else
		//round up by default
		__ticks_dc = (uint32_t)(ceil(fabs(__tmp)));
	#endif

	__builtin_avr_delay_cycles(__ticks_dc);
    1c92:	2f ef       	ldi	r18, 0xFF	; 255
    1c94:	83 ed       	ldi	r24, 0xD3	; 211
    1c96:	90 e3       	ldi	r25, 0x30	; 48
    1c98:	21 50       	subi	r18, 0x01	; 1
    1c9a:	80 40       	sbci	r24, 0x00	; 0
    1c9c:	90 40       	sbci	r25, 0x00	; 0
    1c9e:	e1 f7       	brne	.-8      	; 0x1c98 <main+0x26>
    1ca0:	00 c0       	rjmp	.+0      	; 0x1ca2 <main+0x30>
    1ca2:	00 00       	nop

    _delay_ms(1000);
    glcd_clear();
    1ca4:	0e 94 24 0a 	call	0x1448	; 0x1448 <glcd_clear>
    rectangle(FIELD_SPACE,0, FIELD_SIZE + FIELD_SPACE, FIELD_SIZE - 1, 0, 1);
    1ca8:	ee 24       	eor	r14, r14
    1caa:	e3 94       	inc	r14
    1cac:	00 e0       	ldi	r16, 0x00	; 0
    1cae:	2f e3       	ldi	r18, 0x3F	; 63
    1cb0:	30 e0       	ldi	r19, 0x00	; 0
    1cb2:	40 e6       	ldi	r20, 0x60	; 96
    1cb4:	50 e0       	ldi	r21, 0x00	; 0
    1cb6:	60 e0       	ldi	r22, 0x00	; 0
    1cb8:	70 e0       	ldi	r23, 0x00	; 0
    1cba:	80 e2       	ldi	r24, 0x20	; 32
    1cbc:	90 e0       	ldi	r25, 0x00	; 0
    1cbe:	0e 94 10 0b 	call	0x1620	; 0x1620 <rectangle>
    v_line(PLAYER_LEFT_RANGE, PLAYER_LINE_START, PLAYER_SIZE, 0, 1);
    1cc2:	01 e0       	ldi	r16, 0x01	; 1
    1cc4:	20 e0       	ldi	r18, 0x00	; 0
    1cc6:	4a e0       	ldi	r20, 0x0A	; 10
    1cc8:	50 e0       	ldi	r21, 0x00	; 0
    1cca:	6b e1       	ldi	r22, 0x1B	; 27
    1ccc:	70 e0       	ldi	r23, 0x00	; 0
    1cce:	82 e2       	ldi	r24, 0x22	; 34
    1cd0:	90 e0       	ldi	r25, 0x00	; 0
    1cd2:	0e 94 e8 0a 	call	0x15d0	; 0x15d0 <v_line>
    v_line(PLAYER_RIGHT_RANGE, PLAYER_LINE_START, PLAYER_SIZE, 0, 1);
    1cd6:	20 e0       	ldi	r18, 0x00	; 0
    1cd8:	4a e0       	ldi	r20, 0x0A	; 10
    1cda:	50 e0       	ldi	r21, 0x00	; 0
    1cdc:	6b e1       	ldi	r22, 0x1B	; 27
    1cde:	70 e0       	ldi	r23, 0x00	; 0
    1ce0:	8e e5       	ldi	r24, 0x5E	; 94
    1ce2:	90 e0       	ldi	r25, 0x00	; 0
    1ce4:	0e 94 e8 0a 	call	0x15d0	; 0x15d0 <v_line>
    h_line(x, y, BALL_SIZE, 0, c);
    h_line(x, y + 1, BALL_SIZE, 0, c);
 }

int main(void)
{
    1ce8:	c3 e2       	ldi	r28, 0x23	; 35
    1cea:	d0 e0       	ldi	r29, 0x00	; 0
    
    while (1) 
    {
       for (uint8_t i = PLAYER_LEFT_RANGE + 1; i < PLAYER_RIGHT_RANGE - 2; i++)
       {
           ball( i, 32, 1);
    1cec:	41 e0       	ldi	r20, 0x01	; 1
    1cee:	60 e2       	ldi	r22, 0x20	; 32
    1cf0:	70 e0       	ldi	r23, 0x00	; 0
    1cf2:	ce 01       	movw	r24, r28
    1cf4:	0e 94 15 0e 	call	0x1c2a	; 0x1c2a <ball>
    1cf8:	2f ef       	ldi	r18, 0xFF	; 255
    1cfa:	86 e7       	ldi	r24, 0x76	; 118
    1cfc:	91 e0       	ldi	r25, 0x01	; 1
    1cfe:	21 50       	subi	r18, 0x01	; 1
    1d00:	80 40       	sbci	r24, 0x00	; 0
    1d02:	90 40       	sbci	r25, 0x00	; 0
    1d04:	e1 f7       	brne	.-8      	; 0x1cfe <main+0x8c>
    1d06:	00 c0       	rjmp	.+0      	; 0x1d08 <main+0x96>
    1d08:	00 00       	nop
           _delay_ms(30);
           ball( i, 32, 0);
    1d0a:	40 e0       	ldi	r20, 0x00	; 0
    1d0c:	60 e2       	ldi	r22, 0x20	; 32
    1d0e:	70 e0       	ldi	r23, 0x00	; 0
    1d10:	ce 01       	movw	r24, r28
    1d12:	0e 94 15 0e 	call	0x1c2a	; 0x1c2a <ball>
    1d16:	21 96       	adiw	r28, 0x01	; 1
   
   
    
    while (1) 
    {
       for (uint8_t i = PLAYER_LEFT_RANGE + 1; i < PLAYER_RIGHT_RANGE - 2; i++)
    1d18:	cc 35       	cpi	r28, 0x5C	; 92
    1d1a:	d1 05       	cpc	r29, r1
    1d1c:	39 f7       	brne	.-50     	; 0x1cec <main+0x7a>
    1d1e:	cb e5       	ldi	r28, 0x5B	; 91
    1d20:	d0 e0       	ldi	r29, 0x00	; 0
           ball( i, 32, 0);
       }
        
       for (uint8_t i = PLAYER_RIGHT_RANGE - 3; i > PLAYER_LEFT_RANGE + 2; i--)
       {
           ball( i, 32, 1);
    1d22:	41 e0       	ldi	r20, 0x01	; 1
    1d24:	60 e2       	ldi	r22, 0x20	; 32
    1d26:	70 e0       	ldi	r23, 0x00	; 0
    1d28:	ce 01       	movw	r24, r28
    1d2a:	0e 94 15 0e 	call	0x1c2a	; 0x1c2a <ball>
    1d2e:	2f ef       	ldi	r18, 0xFF	; 255
    1d30:	86 e7       	ldi	r24, 0x76	; 118
    1d32:	91 e0       	ldi	r25, 0x01	; 1
    1d34:	21 50       	subi	r18, 0x01	; 1
    1d36:	80 40       	sbci	r24, 0x00	; 0
    1d38:	90 40       	sbci	r25, 0x00	; 0
    1d3a:	e1 f7       	brne	.-8      	; 0x1d34 <main+0xc2>
    1d3c:	00 c0       	rjmp	.+0      	; 0x1d3e <main+0xcc>
    1d3e:	00 00       	nop
           _delay_ms(30);
           ball( i, 32, 0);
    1d40:	40 e0       	ldi	r20, 0x00	; 0
    1d42:	60 e2       	ldi	r22, 0x20	; 32
    1d44:	70 e0       	ldi	r23, 0x00	; 0
    1d46:	ce 01       	movw	r24, r28
    1d48:	0e 94 15 0e 	call	0x1c2a	; 0x1c2a <ball>
    1d4c:	21 97       	sbiw	r28, 0x01	; 1
           ball( i, 32, 1);
           _delay_ms(30);
           ball( i, 32, 0);
       }
        
       for (uint8_t i = PLAYER_RIGHT_RANGE - 3; i > PLAYER_LEFT_RANGE + 2; i--)
    1d4e:	c4 32       	cpi	r28, 0x24	; 36
    1d50:	d1 05       	cpc	r29, r1
    1d52:	39 f7       	brne	.-50     	; 0x1d22 <main+0xb0>
    1d54:	c9 cf       	rjmp	.-110    	; 0x1ce8 <main+0x76>

00001d56 <_exit>:
    1d56:	f8 94       	cli

00001d58 <__stop_program>:
    1d58:	ff cf       	rjmp	.-2      	; 0x1d58 <__stop_program>
