
NewStack_1_3_1.elf:     file format elf32-avr

Sections:
Idx Name          Size      VMA       LMA       File off  Algn
  0 .text         00007f98  00000000  00000000  00000094  2**1
                  CONTENTS, ALLOC, LOAD, READONLY, CODE
  1 .data         00000166  00800060  00007f98  0000802c  2**0
                  CONTENTS, ALLOC, LOAD, DATA
  2 .bss          000003ef  008001c6  008001c6  00008192  2**0
                  ALLOC
  3 .comment      0000005c  00000000  00000000  00008192  2**0
                  CONTENTS, READONLY
  4 .note.gnu.avr.deviceinfo 0000003c  00000000  00000000  000081f0  2**2
                  CONTENTS, READONLY
  5 .debug_aranges 00000160  00000000  00000000  00008230  2**3
                  CONTENTS, READONLY, DEBUGGING
  6 .debug_info   0000558e  00000000  00000000  00008390  2**0
                  CONTENTS, READONLY, DEBUGGING
  7 .debug_abbrev 000012f6  00000000  00000000  0000d91e  2**0
                  CONTENTS, READONLY, DEBUGGING
  8 .debug_line   00002eb6  00000000  00000000  0000ec14  2**0
                  CONTENTS, READONLY, DEBUGGING
  9 .debug_frame  00000c84  00000000  00000000  00011acc  2**2
                  CONTENTS, READONLY, DEBUGGING
 10 .debug_str    00001099  00000000  00000000  00012750  2**0
                  CONTENTS, READONLY, DEBUGGING
 11 .debug_loc    000019e6  00000000  00000000  000137e9  2**0
                  CONTENTS, READONLY, DEBUGGING

Disassembly of section .text:

00000000 <__vectors>:
       0:	0c 94 89 11 	jmp	0x2312	; 0x2312 <__ctors_end>
       4:	0c 94 a6 11 	jmp	0x234c	; 0x234c <__bad_interrupt>
       8:	0c 94 a6 11 	jmp	0x234c	; 0x234c <__bad_interrupt>
       c:	0c 94 68 25 	jmp	0x4ad0	; 0x4ad0 <__vector_3>
      10:	0c 94 a6 11 	jmp	0x234c	; 0x234c <__bad_interrupt>
      14:	0c 94 a6 11 	jmp	0x234c	; 0x234c <__bad_interrupt>
      18:	0c 94 a6 11 	jmp	0x234c	; 0x234c <__bad_interrupt>
      1c:	0c 94 7e 39 	jmp	0x72fc	; 0x72fc <__vector_7>
      20:	0c 94 a6 11 	jmp	0x234c	; 0x234c <__bad_interrupt>
      24:	0c 94 a6 11 	jmp	0x234c	; 0x234c <__bad_interrupt>
      28:	0c 94 a6 11 	jmp	0x234c	; 0x234c <__bad_interrupt>
      2c:	0c 94 a6 11 	jmp	0x234c	; 0x234c <__bad_interrupt>
      30:	0c 94 a6 11 	jmp	0x234c	; 0x234c <__bad_interrupt>
      34:	0c 94 83 3b 	jmp	0x7706	; 0x7706 <__vector_13>
      38:	0c 94 a6 11 	jmp	0x234c	; 0x234c <__bad_interrupt>
      3c:	0c 94 a6 11 	jmp	0x234c	; 0x234c <__bad_interrupt>
      40:	0c 94 a6 11 	jmp	0x234c	; 0x234c <__bad_interrupt>
      44:	0c 94 a6 11 	jmp	0x234c	; 0x234c <__bad_interrupt>
      48:	0c 94 a6 11 	jmp	0x234c	; 0x234c <__bad_interrupt>
      4c:	0c 94 a6 11 	jmp	0x234c	; 0x234c <__bad_interrupt>
      50:	0c 94 a6 11 	jmp	0x234c	; 0x234c <__bad_interrupt>

00000054 <__trampolines_end>:
      54:	52 45       	sbci	r21, 0x52	; 82
      56:	53 45       	sbci	r21, 0x53	; 83
      58:	54 20       	and	r5, r4
      5a:	20 2d       	mov	r18, r0
      5c:	20 72       	andi	r18, 0x20	; 32
      5e:	65 73       	andi	r22, 0x35	; 53
      60:	65 74       	andi	r22, 0x45	; 69
      62:	20 74       	andi	r18, 0x40	; 64
      64:	68 65       	ori	r22, 0x58	; 88
      66:	20 41       	sbci	r18, 0x10	; 16
      68:	56 52       	subi	r21, 0x26	; 38
      6a:	20 2d       	mov	r18, r0
      6c:	20 43       	sbci	r18, 0x30	; 48
      6e:	6f 6e       	ori	r22, 0xEF	; 239
      70:	74 72       	andi	r23, 0x24	; 36
      72:	6f 6c       	ori	r22, 0xCF	; 207
      74:	6c 65       	ori	r22, 0x5C	; 92
      76:	72 0d       	add	r23, r2
      78:	0a 41       	sbci	r16, 0x1A	; 26
      7a:	52 50       	subi	r21, 0x02	; 2
      7c:	20 20       	and	r2, r0
      7e:	20 20       	and	r2, r0
      80:	2d 20       	and	r2, r13
      82:	6c 69       	ori	r22, 0x9C	; 156
      84:	73 74       	andi	r23, 0x43	; 67
      86:	20 74       	andi	r18, 0x40	; 64
      88:	68 65       	ori	r22, 0x58	; 88
      8a:	20 41       	sbci	r18, 0x10	; 16
      8c:	52 50       	subi	r21, 0x02	; 2
      8e:	20 74       	andi	r18, 0x40	; 64
      90:	61 62       	ori	r22, 0x21	; 33
      92:	6c 65       	ori	r22, 0x5C	; 92
      94:	0d 0a       	sbc	r0, r29
      96:	54 43       	sbci	r21, 0x34	; 52
      98:	50 20       	and	r5, r0
      9a:	20 20       	and	r2, r0
      9c:	20 2d       	mov	r18, r0
      9e:	20 6c       	ori	r18, 0xC0	; 192
      a0:	69 73       	andi	r22, 0x39	; 57
      a2:	74 20       	and	r7, r4
      a4:	74 68       	ori	r23, 0x84	; 132
      a6:	65 20       	and	r6, r5
      a8:	74 63       	ori	r23, 0x34	; 52
      aa:	70 20       	and	r7, r0
      ac:	74 61       	ori	r23, 0x14	; 20
      ae:	62 6c       	ori	r22, 0xC2	; 194
      b0:	65 0d       	add	r22, r5
      b2:	0a 49       	sbci	r16, 0x9A	; 154
      b4:	50 20       	and	r5, r0
      b6:	20 20       	and	r2, r0
      b8:	20 20       	and	r2, r0
      ba:	2d 20       	and	r2, r13
      bc:	6c 69       	ori	r22, 0x9C	; 156
      be:	73 74       	andi	r23, 0x43	; 67
      c0:	2f 63       	ori	r18, 0x3F	; 63
      c2:	68 61       	ori	r22, 0x18	; 24
      c4:	6e 67       	ori	r22, 0x7E	; 126
      c6:	65 20       	and	r6, r5
      c8:	69 70       	andi	r22, 0x09	; 9
      ca:	0d 0a       	sbc	r0, r29
      cc:	4e 45       	sbci	r20, 0x5E	; 94
      ce:	54 20       	and	r5, r4
      d0:	20 20       	and	r2, r0
      d2:	20 2d       	mov	r18, r0
      d4:	20 6c       	ori	r18, 0xC0	; 192
      d6:	69 73       	andi	r22, 0x39	; 57
      d8:	74 2f       	mov	r23, r20
      da:	63 68       	ori	r22, 0x83	; 131
      dc:	61 6e       	ori	r22, 0xE1	; 225
      de:	67 65       	ori	r22, 0x57	; 87
      e0:	20 6e       	ori	r18, 0xE0	; 224
      e2:	65 74       	andi	r22, 0x45	; 69
      e4:	6d 61       	ori	r22, 0x1D	; 29
      e6:	73 6b       	ori	r23, 0xB3	; 179
      e8:	0d 0a       	sbc	r0, r29
      ea:	52 4f       	sbci	r21, 0xF2	; 242
      ec:	55 54       	subi	r21, 0x45	; 69
      ee:	45 52       	subi	r20, 0x25	; 37
      f0:	20 2d       	mov	r18, r0
      f2:	20 6c       	ori	r18, 0xC0	; 192
      f4:	69 73       	andi	r22, 0x39	; 57
      f6:	74 2f       	mov	r23, r20
      f8:	63 68       	ori	r22, 0x83	; 131
      fa:	61 6e       	ori	r22, 0xE1	; 225
      fc:	67 65       	ori	r22, 0x57	; 87
      fe:	20 72       	andi	r18, 0x20	; 32
     100:	6f 75       	andi	r22, 0x5F	; 95
     102:	74 65       	ori	r23, 0x54	; 84
     104:	72 20       	and	r7, r2
     106:	69 70       	andi	r22, 0x09	; 9
     108:	0d 0a       	sbc	r0, r29
     10a:	4e 54       	subi	r20, 0x4E	; 78
     10c:	50 20       	and	r5, r0
     10e:	20 20       	and	r2, r0
     110:	20 2d       	mov	r18, r0
     112:	20 6c       	ori	r18, 0xC0	; 192
     114:	69 73       	andi	r22, 0x39	; 57
     116:	74 2f       	mov	r23, r20
     118:	63 68       	ori	r22, 0x83	; 131
     11a:	61 6e       	ori	r22, 0xE1	; 225
     11c:	67 65       	ori	r22, 0x57	; 87
     11e:	20 4e       	sbci	r18, 0xE0	; 224
     120:	54 50       	subi	r21, 0x04	; 4
     122:	0d 0a       	sbc	r0, r29
     124:	4e 54       	subi	r20, 0x4E	; 78
     126:	50 52       	subi	r21, 0x20	; 32
     128:	20 20       	and	r2, r0
     12a:	20 2d       	mov	r18, r0
     12c:	20 4e       	sbci	r18, 0xE0	; 224
     12e:	54 50       	subi	r21, 0x04	; 4
     130:	20 52       	subi	r18, 0x20	; 32
     132:	65 66       	ori	r22, 0x65	; 101
     134:	72 65       	ori	r23, 0x52	; 82
     136:	73 68       	ori	r23, 0x83	; 131
     138:	0d 0a       	sbc	r0, r29
     13a:	4d 41       	sbci	r20, 0x1D	; 29
     13c:	43 20       	and	r4, r3
     13e:	20 20       	and	r2, r0
     140:	20 2d       	mov	r18, r0
     142:	20 6c       	ori	r18, 0xC0	; 192
     144:	69 73       	andi	r22, 0x39	; 57
     146:	74 20       	and	r7, r4
     148:	4d 41       	sbci	r20, 0x1D	; 29
     14a:	43 2d       	mov	r20, r3
     14c:	61 64       	ori	r22, 0x41	; 65
     14e:	64 72       	andi	r22, 0x24	; 36
     150:	65 73       	andi	r22, 0x35	; 53
     152:	73 0d       	add	r23, r3
     154:	0a 56       	subi	r16, 0x6A	; 106
     156:	45 52       	subi	r20, 0x25	; 37
     158:	20 20       	and	r2, r0
     15a:	20 20       	and	r2, r0
     15c:	2d 20       	and	r2, r13
     15e:	6c 69       	ori	r22, 0x9C	; 156
     160:	73 74       	andi	r23, 0x43	; 67
     162:	20 65       	ori	r18, 0x50	; 80
     164:	6e 63       	ori	r22, 0x3E	; 62
     166:	20 76       	andi	r18, 0x60	; 96
     168:	65 72       	andi	r22, 0x25	; 37
     16a:	73 69       	ori	r23, 0x93	; 147
     16c:	6f 6e       	ori	r22, 0xEF	; 239
     16e:	20 6e       	ori	r18, 0xE0	; 224
     170:	75 6d       	ori	r23, 0xD5	; 213
     172:	62 65       	ori	r22, 0x52	; 82
     174:	72 0d       	add	r23, r2
     176:	0a 53       	subi	r16, 0x3A	; 58
     178:	56 20       	and	r5, r6
     17a:	20 20       	and	r2, r0
     17c:	20 20       	and	r2, r0
     17e:	2d 20       	and	r2, r13
     180:	73 65       	ori	r23, 0x53	; 83
     182:	74 20       	and	r7, r4
     184:	76 61       	ori	r23, 0x16	; 22
     186:	72 69       	ori	r23, 0x92	; 146
     188:	61 62       	ori	r22, 0x21	; 33
     18a:	6c 65       	ori	r22, 0x5C	; 92
     18c:	0d 0a       	sbc	r0, r29
     18e:	50 49       	sbci	r21, 0x90	; 144
     190:	4e 47       	sbci	r20, 0x7E	; 126
     192:	20 20       	and	r2, r0
     194:	20 2d       	mov	r18, r0
     196:	20 73       	andi	r18, 0x30	; 48
     198:	65 6e       	ori	r22, 0xE5	; 229
     19a:	64 20       	and	r6, r4
     19c:	50 69       	ori	r21, 0x90	; 144
     19e:	6e 67       	ori	r22, 0x7E	; 126
     1a0:	0d 0a       	sbc	r0, r29
     1a2:	54 49       	sbci	r21, 0x94	; 148
     1a4:	4d 45       	sbci	r20, 0x5D	; 93
     1a6:	20 20       	and	r2, r0
     1a8:	20 2d       	mov	r18, r0
     1aa:	20 67       	ori	r18, 0x70	; 112
     1ac:	65 74       	andi	r22, 0x45	; 69
     1ae:	20 74       	andi	r18, 0x40	; 64
     1b0:	69 6d       	ori	r22, 0xD9	; 217
     1b2:	65 0d       	add	r22, r5
     1b4:	0a 48       	sbci	r16, 0x8A	; 138
     1b6:	45 4c       	sbci	r20, 0xC5	; 197
     1b8:	50 20       	and	r5, r0
     1ba:	20 20       	and	r2, r0
     1bc:	2d 20       	and	r2, r13
     1be:	70 72       	andi	r23, 0x20	; 32
     1c0:	69 6e       	ori	r22, 0xE9	; 233
     1c2:	74 20       	and	r7, r4
     1c4:	48 65       	ori	r20, 0x58	; 88
     1c6:	6c 70       	andi	r22, 0x0C	; 12
     1c8:	74 65       	ori	r23, 0x54	; 84
     1ca:	78 74       	andi	r23, 0x48	; 72
     1cc:	0d 0a       	sbc	r0, r29
     1ce:	3f 20       	and	r3, r15
     1d0:	20 20       	and	r2, r0
     1d2:	20 20       	and	r2, r0
     1d4:	20 2d       	mov	r18, r0
     1d6:	20 70       	andi	r18, 0x00	; 0
     1d8:	72 69       	ori	r23, 0x92	; 146
     1da:	6e 74       	andi	r22, 0x4E	; 78
     1dc:	20 48       	sbci	r18, 0x80	; 128
     1de:	65 6c       	ori	r22, 0xC5	; 197
     1e0:	70 74       	andi	r23, 0x40	; 64
     1e2:	65 78       	andi	r22, 0x85	; 133
     1e4:	74 0d       	add	r23, r4
     1e6:	0a 00       	.word	0x000a	; ????

000001e8 <__c.2482>:
     1e8:	4d 79 20 49 50 3a 20 25 31 69 2e 25 31 69 2e 25     My IP: %1i.%1i.%
     1f8:	31 69 2e 25 31 69 0d 0a 00                          1i.%1i...

00000201 <__c.2499>:
     201:	4e 45 54 4d 41 53 4b 3a 20 25 31 69 2e 25 31 69     NETMASK: %1i.%1i
     211:	2e 25 31 69 2e 25 31 69 0d 0a 00                    .%1i.%1i...

0000021c <__c.2504>:
     21c:	52 6f 75 74 65 72 20 49 50 3a 20 25 31 69 2e 25     Router IP: %1i.%
     22c:	31 69 2e 25 31 69 2e 25 31 69 0d 0a 00              1i.%1i.%1i...

00000239 <__c.2509>:
     239:	4d 79 20 4d 41 43 3a 20 25 32 78 3a 25 32 78 3a     My MAC: %2x:%2x:
     249:	25 32 78 3a 25 32 78 3a 25 32 78 3a 25 32 78 0d     %2x:%2x:%2x:%2x.
     259:	0a 00                                               ..

0000025b <__c.2514>:
     25b:	45 4e 43 32 38 4a 36 30 2d 56 65 72 73 69 6f 6e     ENC28J60-Version
     26b:	3a 20 25 31 78 0d 0a 00                             : %1x...

00000273 <__c.2520>:
     273:	25 32 69 20 20 4d 41 43 3a 25 32 78 00              %2i  MAC:%2x.

00000280 <__c.2522>:
     280:	2e 25 32 78 00                                      .%2x.

00000285 <__c.2524>:
     285:	2e 25 32 78 00                                      .%2x.

0000028a <__c.2526>:
     28a:	2e 25 32 78 00                                      .%2x.

0000028f <__c.2528>:
     28f:	2e 25 32 78 00                                      .%2x.

00000294 <__c.2530>:
     294:	2e 25 32 78 00                                      .%2x.

00000299 <__c.2532>:
     299:	20 20 49 50 3a 25 33 69 00                            IP:%3i.

000002a2 <__c.2534>:
     2a2:	2e 25 33 69 00                                      .%3i.

000002a7 <__c.2536>:
     2a7:	2e 25 33 69 00                                      .%3i.

000002ac <__c.2538>:
     2ac:	2e 25 33 69 00                                      .%3i.

000002b1 <__c.2540>:
     2b1:	20 20 54 69 6d 65 3a 25 34 69 0d 0a 00                Time:%4i...

000002be <__c.2549>:
     2be:	25 32 69 00                                         %2i.

000002c2 <__c.2551>:
     2c2:	20 20 49 50 3a 25 33 69 00                            IP:%3i.

000002cb <__c.2553>:
     2cb:	2e 25 33 69 00                                      .%3i.

000002d0 <__c.2555>:
     2d0:	2e 25 33 69 00                                      .%3i.

000002d5 <__c.2557>:
     2d5:	2e 25 33 69 00                                      .%3i.

000002da <__c.2559>:
     2da:	20 20 50 4f 52 54 3a 25 34 69 00                      PORT:%4i.

000002e5 <__c.2561>:
     2e5:	20 20 54 69 6d 65 3a 25 34 69 0d 0a 00                Time:%4i...

000002f2 <__c.2569>:
     2f2:	49 6e 68 61 6c 74 20 64 65 72 20 56 61 72 69 61     Inhalt der Varia
     302:	62 6c 65 5b 25 32 69 5d 20 3d 20 25 32 69 0d 0a     ble[%2i] = %2i..
	...

00000313 <__c.2577>:
     313:	0a 0d 54 49 4d 45 3a 20 25 32 69 3a 25 32 69 3a     ..TIME: %2i:%2i:
     323:	25 32 69 0d 0a 00                                   %2i...

00000329 <__c.2596>:
     329:	25 63 00                                            %c.

0000032c <Page1>:
     32c:	3c 21 44 4f 43 54 59 50 45 20 68 74 6d 6c 20 50     <!DOCTYPE html P
     33c:	55 42 4c 49 43 20 22 2d 2f 2f 57 33 43 2f 2f 44     UBLIC "-//W3C//D
     34c:	54 44 20 48 54 4d 4c 20 34 2e 30 31 20 54 72 61     TD HTML 4.01 Tra
     35c:	6e 73 69 74 69 6f 6e 61 6c 2f 2f 45 4e 22 20 22     nsitional//EN" "
     36c:	68 74 74 70 3a 2f 2f 77 77 77 2e 77 33 2e 6f 72     http://www.w3.or
     37c:	67 2f 54 52 2f 68 74 6d 6c 34 2f 6c 6f 6f 73 65     g/TR/html4/loose
     38c:	2e 64 74 64 22 3e 0d 0a 3c 68 74 6d 6c 3e 3c 68     .dtd">..<html><h
     39c:	65 61 64 3e 0d 0a 3c 6d 65 74 61 20 68 74 74 70     ead>..<meta http
     3ac:	2d 65 71 75 69 76 3d 22 63 6f 6e 74 65 6e 74 2d     -equiv="content-
     3bc:	74 79 70 65 22 20 63 6f 6e 74 65 6e 74 3d 22 74     type" content="t
     3cc:	65 78 74 2f 68 74 6d 6c 3b 20 63 68 61 72 73 65     ext/html; charse
     3dc:	74 3d 49 53 4f 2d 38 38 35 39 2d 31 22 3e 0d 0a     t=ISO-8859-1">..
     3ec:	3c 74 69 74 6c 65 3e 41 56 52 20 6d 69 6e 69 20     <title>AVR mini 
     3fc:	57 65 62 73 65 72 76 65 72 20 3a 20 48 6f 6d 65     Webserver : Home
     40c:	3c 2f 74 69 74 6c 65 3e 0d 0a 3c 6c 69 6e 6b 20     </title>..<link 
     41c:	72 65 6c 3d 22 73 74 79 6c 65 73 68 65 65 74 22     rel="stylesheet"
     42c:	20 74 79 70 65 3d 22 74 65 78 74 2f 63 73 73 22      type="text/css"
     43c:	20 20 68 72 65 66 3d 22 73 74 79 6c 65 73 2e 63       href="styles.c
     44c:	73 73 22 3e 3c 2f 68 65 61 64 3e 3c 62 6f 64 79     ss"></head><body
     45c:	3e 0d 0a 3c 68 31 3e 41 56 52 20 6d 69 6e 69 20     >..<h1>AVR mini 
     46c:	57 65 62 73 65 72 76 65 72 20 3a 20 48 6f 6d 65     Webserver : Home
     47c:	3c 2f 68 31 3e 0d 0a 3c 64 69 76 20 69 64 3d 22     </h1>..<div id="
     48c:	6e 61 76 22 3e 3c 61 20 68 72 65 66 3d 22 69 6e     nav"><a href="in
     49c:	64 65 78 2e 68 74 6d 22 3e 48 6f 6d 65 3c 2f 61     dex.htm">Home</a
     4ac:	3e 3c 61 20 68 72 65 66 3d 22 73 74 61 74 75 73     ><a href="status
     4bc:	2e 68 74 6d 22 3e 53 74 61 74 75 73 3c 2f 61 3e     .htm">Status</a>
     4cc:	3c 2f 64 69 76 3e 0d 0a 3c 64 69 76 20 69 64 3d     </div>..<div id=
     4dc:	22 6d 61 69 6e 22 3e 3c 68 32 3e 47 6c fc 63 6b     "main"><h2>Gl.ck
     4ec:	77 75 6e 73 63 68 21 3c 2f 68 32 3e 3c 62 72 3e     wunsch!</h2><br>
     4fc:	0d 0a 3c 69 6d 67 20 73 72 63 3d 22 72 61 6b 65     ..<img src="rake
     50c:	74 2e 67 69 66 22 20 77 69 64 74 68 3d 22 39 30     t.gif" width="90
     51c:	22 20 68 65 69 67 68 74 3d 22 39 32 22 20 61 6c     " height="92" al
     52c:	74 3d 22 22 3e 3c 62 72 3e 3c 62 72 3e 0d 0a 3c     t=""><br><br>..<
     53c:	70 3e 44 75 20 68 61 73 74 20 65 73 20 67 65 73     p>Du hast es ges
     54c:	63 68 61 66 66 74 3a 20 44 65 72 20 57 65 62 73     chafft: Der Webs
     55c:	65 72 76 65 72 20 6c e4 75 66 74 21 3c 2f 70 3e     erver l.uft!</p>
     56c:	3c 62 72 3e 3c 68 72 3e 3c 62 72 3e 0d 0a 3c 64     <br><hr><br>..<d
     57c:	69 76 20 73 74 79 6c 65 3d 22 77 69 64 74 68 3a     iv style="width:
     58c:	32 30 30 70 78 3b 6d 61 72 67 69 6e 3a 20 30 20     200px;margin: 0 
     59c:	61 75 74 6f 3b 22 3e 0d 0a 3c 64 69 76 20 73 74     auto;">..<div st
     5ac:	79 6c 65 3d 22 66 6c 6f 61 74 3a 6c 65 66 74 3b     yle="float:left;
     5bc:	77 69 64 74 68 3a 31 30 30 70 78 22 3e 0d 0a 3c     width:100px">..<
     5cc:	66 6f 72 6d 20 6d 65 74 68 6f 64 3d 22 70 6f 73     form method="pos
     5dc:	74 22 20 61 63 74 69 6f 6e 3d 22 69 6e 64 65 78     t" action="index
     5ec:	2e 68 74 6d 22 3e 0d 0a 3c 69 6e 70 75 74 20 6e     .htm">..<input n
     5fc:	61 6d 65 3d 22 4f 55 54 22 20 74 79 70 65 3d 22     ame="OUT" type="
     60c:	63 68 65 63 6b 62 6f 78 22 20 76 61 6c 75 65 3d     checkbox" value=
     61c:	22 41 22 20 25 50 4f 52 54 41 30 3e 50 6f 72 74     "A" %PORTA0>Port
     62c:	20 41 20 50 69 6e 20 30 3c 62 72 3e 0d 0a 3c 69      A Pin 0<br>..<i
     63c:	6e 70 75 74 20 6e 61 6d 65 3d 22 4f 55 54 22 20     nput name="OUT" 
     64c:	74 79 70 65 3d 22 63 68 65 63 6b 62 6f 78 22 20     type="checkbox" 
     65c:	76 61 6c 75 65 3d 22 42 22 20 25 50 4f 52 54 41     value="B" %PORTA
     66c:	31 3e 50 6f 72 74 20 41 20 50 69 6e 20 31 3c 62     1>Port A Pin 1<b
     67c:	72 3e 0d 0a 3c 69 6e 70 75 74 20 6e 61 6d 65 3d     r>..<input name=
     68c:	22 4f 55 54 22 20 74 79 70 65 3d 22 63 68 65 63     "OUT" type="chec
     69c:	6b 62 6f 78 22 20 76 61 6c 75 65 3d 22 43 22 20     kbox" value="C" 
     6ac:	25 50 4f 52 54 41 32 3e 50 6f 72 74 20 41 20 50     %PORTA2>Port A P
     6bc:	69 6e 20 32 3c 62 72 3e 3c 62 72 3e 0d 0a 3c 69     in 2<br><br>..<i
     6cc:	6e 70 75 74 20 6e 61 6d 65 3d 22 53 55 42 22 20     nput name="SUB" 
     6dc:	76 61 6c 75 65 3d 22 53 65 6e 64 65 6e 22 20 74     value="Senden" t
     6ec:	79 70 65 3d 22 73 75 62 6d 69 74 22 3e 0d 0a 3c     ype="submit">..<
     6fc:	2f 66 6f 72 6d 3e 3c 2f 64 69 76 3e 0d 0a 3c 64     /form></div>..<d
     70c:	69 76 20 73 74 79 6c 65 3d 22 66 6c 6f 61 74 3a     iv style="float:
     71c:	6c 65 66 74 3b 20 77 69 64 74 68 3a 31 30 30 70     left; width:100p
     72c:	78 22 3e 0d 0a 3c 69 6d 67 20 73 72 63 3d 22 25     x">..<img src="%
     73c:	50 49 4e 44 37 22 20 61 6c 74 3d 22 22 3e 20 50     PIND7" alt=""> P
     74c:	6f 72 74 20 44 20 50 69 6e 20 37 3c 62 72 3e 3c     ort D Pin 7<br><
     75c:	69 6d 67 20 73 72 63 3d 22 25 50 49 4e 44 36 22     img src="%PIND6"
     76c:	20 61 6c 74 3d 22 22 3e 20 50 6f 72 74 20 44 20      alt=""> Port D 
     77c:	50 69 6e 20 36 3c 62 72 3e 3c 69 6d 67 20 73 72     Pin 6<br><img sr
     78c:	63 3d 22 25 50 49 4e 44 35 22 20 61 6c 74 3d 22     c="%PIND5" alt="
     79c:	22 3e 20 50 6f 72 74 20 44 20 50 69 6e 20 35 3c     "> Port D Pin 5<
     7ac:	62 72 3e 3c 2f 64 69 76 3e 3c 2f 64 69 76 3e 0d     br></div></div>.
     7bc:	0a 3c 64 69 76 20 63 6c 61 73 73 3d 22 63 6c 65     .<div class="cle
     7cc:	61 72 22 3e 3c 2f 64 69 76 3e 0d 0a 3c 62 72 3e     ar"></div>..<br>
     7dc:	3c 68 72 3e 3c 62 72 3e 0d 0a 3c 74 61 62 6c 65     <hr><br>..<table
     7ec:	20 62 6f 72 64 65 72 3d 22 30 22 20 63 6c 61 73      border="0" clas
     7fc:	73 3d 22 74 65 6d 70 54 62 6c 22 20 61 6c 69 67     s="tempTbl" alig
     80c:	6e 3d 22 63 65 6e 74 65 72 22 20 77 69 64 74 68     n="center" width
     81c:	3d 22 34 30 30 70 78 3b 22 3e 0d 0a 3c 74 72 3e     ="400px;">..<tr>
     82c:	0d 0a 3c 74 68 3e 45 69 6e 67 61 6e 67 3c 2f 74     ..<th>Eingang</t
     83c:	68 3e 0d 0a 3c 74 68 3e 42 61 6c 6b 65 6e 3c 2f     h>..<th>Balken</
     84c:	74 68 3e 0d 0a 3c 74 68 3e 54 65 6d 70 65 72 61     th>..<th>Tempera
     85c:	74 75 72 20 5b b0 43 5d 3c 2f 74 68 3e 0d 0a 3c     tur [.C]</th>..<
     86c:	2f 74 72 3e 3c 74 72 3e 0d 0a 3c 74 64 3e 41 44     /tr><tr>..<td>AD
     87c:	2d 4b 61 6e 61 6c 30 3c 2f 74 64 3e 0d 0a 3c 74     -Kanal0</td>..<t
     88c:	64 20 73 74 79 6c 65 3d 22 74 65 78 74 2d 61 6c     d style="text-al
     89c:	69 67 6e 3a 6c 65 66 74 22 3e 3c 69 6d 67 20 73     ign:left"><img s
     8ac:	72 63 3d 22 69 6e 64 65 78 2d 44 61 74 65 69 65     rc="index-Dateie
     8bc:	6e 2f 62 61 6c 6b 65 2e 67 69 66 22 20 61 6c 74     n/balke.gif" alt
     8cc:	3d 22 22 20 68 65 69 67 68 74 3d 22 31 30 22 20     ="" height="10" 
     8dc:	77 69 64 74 68 3d 22 25 56 41 40 30 30 22 3e 3c     width="%VA@00"><
     8ec:	2f 74 64 3e 0d 0a 3c 74 64 3e 25 56 41 40 30 30     /td>..<td>%VA@00
     8fc:	3c 2f 74 64 3e 0d 0a 3c 2f 74 72 3e 3c 74 72 3e     </td>..</tr><tr>
     90c:	0d 0a 3c 74 64 3e 41 44 2d 4b 61 6e 61 6c 31 3c     ..<td>AD-Kanal1<
     91c:	2f 74 64 3e 0d 0a 3c 74 64 20 73 74 79 6c 65 3d     /td>..<td style=
     92c:	22 74 65 78 74 2d 61 6c 69 67 6e 3a 6c 65 66 74     "text-align:left
     93c:	22 3e 3c 69 6d 67 20 73 72 63 3d 22 69 6e 64 65     "><img src="inde
     94c:	78 2d 44 61 74 65 69 65 6e 2f 62 61 6c 6b 65 2e     x-Dateien/balke.
     95c:	67 69 66 22 20 61 6c 74 3d 22 22 20 68 65 69 67     gif" alt="" heig
     96c:	68 74 3d 22 31 30 22 20 77 69 64 74 68 3d 22 25     ht="10" width="%
     97c:	56 41 40 30 31 22 3e 3c 2f 74 64 3e 0d 0a 3c 74     VA@01"></td>..<t
     98c:	64 3e 25 56 41 40 30 31 3c 2f 74 64 3e 0d 0a 3c     d>%VA@01</td>..<
     99c:	2f 74 72 3e 3c 74 72 3e 0d 0a 3c 74 64 3e 41 44     /tr><tr>..<td>AD
     9ac:	2d 4b 61 6e 61 6c 32 3c 2f 74 64 3e 0d 0a 3c 74     -Kanal2</td>..<t
     9bc:	64 20 73 74 79 6c 65 3d 22 74 65 78 74 2d 61 6c     d style="text-al
     9cc:	69 67 6e 3a 6c 65 66 74 22 3e 3c 69 6d 67 20 73     ign:left"><img s
     9dc:	72 63 3d 22 69 6e 64 65 78 2d 44 61 74 65 69 65     rc="index-Dateie
     9ec:	6e 2f 62 61 6c 6b 65 2e 67 69 66 22 20 61 6c 74     n/balke.gif" alt
     9fc:	3d 22 22 20 68 65 69 67 68 74 3d 22 31 30 22 20     ="" height="10" 
     a0c:	77 69 64 74 68 3d 22 25 56 41 40 30 32 22 3e 3c     width="%VA@02"><
     a1c:	2f 74 64 3e 0d 0a 3c 74 64 3e 25 56 41 40 30 32     /td>..<td>%VA@02
     a2c:	3c 2f 74 64 3e 0d 0a 3c 2f 74 72 3e 3c 74 72 3e     </td>..</tr><tr>
     a3c:	0d 0a 3c 74 64 3e 41 44 2d 4b 61 6e 61 6c 33 3c     ..<td>AD-Kanal3<
     a4c:	2f 74 64 3e 0d 0a 3c 74 64 20 73 74 79 6c 65 3d     /td>..<td style=
     a5c:	22 74 65 78 74 2d 61 6c 69 67 6e 3a 6c 65 66 74     "text-align:left
     a6c:	22 3e 3c 69 6d 67 20 73 72 63 3d 22 69 6e 64 65     "><img src="inde
     a7c:	78 2d 44 61 74 65 69 65 6e 2f 62 61 6c 6b 65 2e     x-Dateien/balke.
     a8c:	67 69 66 22 20 61 6c 74 3d 22 22 20 68 65 69 67     gif" alt="" heig
     a9c:	68 74 3d 22 31 30 22 20 77 69 64 74 68 3d 22 25     ht="10" width="%
     aac:	56 41 40 30 33 22 3e 3c 2f 74 64 3e 0d 0a 3c 74     VA@03"></td>..<t
     abc:	64 3e 25 56 41 40 30 33 3c 2f 74 64 3e 0d 0a 3c     d>%VA@03</td>..<
     acc:	2f 74 72 3e 0d 0a 3c 2f 74 61 62 6c 65 3e 0d 0a     /tr>..</table>..
     adc:	3c 2f 64 69 76 3e 3c 64 69 76 20 69 64 3d 22 74     </div><div id="t
     aec:	61 69 6c 22 3e 3c 61 20 68 72 65 66 3d 22 68 74     ail"><a href="ht
     afc:	74 70 3a 2f 2f 77 77 77 2e 75 6c 72 69 63 68 72     tp://www.ulrichr
     b0c:	61 64 69 67 2e 64 65 22 3e 77 77 77 2e 75 6c 72     adig.de">www.ulr
     b1c:	69 63 68 72 61 64 69 67 2e 64 65 3c 2f 61 3e 20     ichradig.de</a> 
     b2c:	55 6c 72 69 63 68 20 52 61 64 69 67 20 32 30 30     Ulrich Radig 200
     b3c:	38 3c 2f 64 69 76 3e 0d 0a 3c 2f 62 6f 64 79 3e     8</div>..</body>
     b4c:	3c 2f 68 74 6d 6c 3e 25 45 4e 44 00                 </html>%END.

00000b58 <Page2>:
     b58:	3c 21 44 4f 43 54 59 50 45 20 68 74 6d 6c 20 50     <!DOCTYPE html P
     b68:	55 42 4c 49 43 20 22 2d 2f 2f 57 33 43 2f 2f 44     UBLIC "-//W3C//D
     b78:	54 44 20 48 54 4d 4c 20 34 2e 30 31 20 54 72 61     TD HTML 4.01 Tra
     b88:	6e 73 69 74 69 6f 6e 61 6c 2f 2f 45 4e 22 20 22     nsitional//EN" "
     b98:	68 74 74 70 3a 2f 2f 77 77 77 2e 77 33 2e 6f 72     http://www.w3.or
     ba8:	67 2f 54 52 2f 68 74 6d 6c 34 2f 6c 6f 6f 73 65     g/TR/html4/loose
     bb8:	2e 64 74 64 22 3e 0d 0a 3c 68 74 6d 6c 3e 3c 68     .dtd">..<html><h
     bc8:	65 61 64 3e 0d 0a 3c 6d 65 74 61 20 68 74 74 70     ead>..<meta http
     bd8:	2d 65 71 75 69 76 3d 22 63 6f 6e 74 65 6e 74 2d     -equiv="content-
     be8:	74 79 70 65 22 20 63 6f 6e 74 65 6e 74 3d 22 74     type" content="t
     bf8:	65 78 74 2f 68 74 6d 6c 3b 20 63 68 61 72 73 65     ext/html; charse
     c08:	74 3d 49 53 4f 2d 38 38 35 39 2d 31 22 3e 0d 0a     t=ISO-8859-1">..
     c18:	3c 74 69 74 6c 65 3e 41 56 52 20 6d 69 6e 69 20     <title>AVR mini 
     c28:	57 65 62 73 65 72 76 65 72 20 3a 20 53 74 61 74     Webserver : Stat
     c38:	75 73 3c 2f 74 69 74 6c 65 3e 0d 0a 3c 6c 69 6e     us</title>..<lin
     c48:	6b 20 72 65 6c 3d 22 73 74 79 6c 65 73 68 65 65     k rel="styleshee
     c58:	74 22 20 74 79 70 65 3d 22 74 65 78 74 2f 63 73     t" type="text/cs
     c68:	73 22 20 20 68 72 65 66 3d 22 73 74 79 6c 65 73     s"  href="styles
     c78:	2e 63 73 73 22 3e 3c 2f 68 65 61 64 3e 3c 62 6f     .css"></head><bo
     c88:	64 79 3e 3c 68 31 3e 41 56 52 20 6d 69 6e 69 20     dy><h1>AVR mini 
     c98:	57 65 62 73 65 72 76 65 72 20 3a 20 53 74 61 74     Webserver : Stat
     ca8:	75 73 3c 2f 68 31 3e 0d 0a 3c 64 69 76 20 69 64     us</h1>..<div id
     cb8:	3d 22 6e 61 76 22 3e 3c 61 20 68 72 65 66 3d 22     ="nav"><a href="
     cc8:	69 6e 64 65 78 2e 68 74 6d 22 3e 48 6f 6d 65 3c     index.htm">Home<
     cd8:	2f 61 3e 3c 61 20 68 72 65 66 3d 22 73 74 61 74     /a><a href="stat
     ce8:	75 73 2e 68 74 6d 22 3e 53 74 61 74 75 73 3c 2f     us.htm">Status</
     cf8:	61 3e 3c 2f 64 69 76 3e 0d 0a 3c 64 69 76 20 69     a></div>..<div i
     d08:	64 3d 22 6d 61 69 6e 22 3e 0d 0a 43 6f 6d 70 69     d="main">..Compi
     d18:	6c 69 65 72 74 20 61 6d 20 44 65 63 20 31 31 20     liert am Dec 11 
     d28:	32 30 31 36 20 75 6d 20 31 32 3a 31 33 3a 31 33     2016 um 12:13:13
     d38:	3c 62 72 3e 3c 62 72 3e 0d 0a 43 6f 6d 70 69 6c     <br><br>..Compil
     d48:	69 65 72 74 20 6d 69 74 20 47 43 43 20 56 65 72     iert mit GCC Ver
     d58:	73 69 6f 6e 20 34 2e 39 2e 32 3c 62 72 3e 3c 62     sion 4.9.2<br><b
     d68:	72 3e 0d 0a 42 65 73 75 63 68 65 72 20 73 65 69     r>..Besucher sei
     d78:	74 20 53 74 61 72 74 20 64 65 73 20 57 65 62 73     t Start des Webs
     d88:	65 72 76 65 72 73 20 28 25 56 41 40 30 39 29 3c     ervers (%VA@09)<
     d98:	62 72 3e 3c 62 72 3e 0d 0a 3c 2f 64 69 76 3e 3c     br><br>..</div><
     da8:	64 69 76 20 69 64 3d 22 74 61 69 6c 22 3e 3c 61     div id="tail"><a
     db8:	20 68 72 65 66 3d 22 68 74 74 70 3a 2f 2f 77 77      href="http://ww
     dc8:	77 2e 75 6c 72 69 63 68 72 61 64 69 67 2e 64 65     w.ulrichradig.de
     dd8:	22 3e 77 77 77 2e 75 6c 72 69 63 68 72 61 64 69     ">www.ulrichradi
     de8:	67 2e 64 65 3c 2f 61 3e 20 55 6c 72 69 63 68 20     g.de</a> Ulrich 
     df8:	52 61 64 69 67 20 32 30 30 38 3c 2f 64 69 76 3e     Radig 2008</div>
     e08:	0d 0a 3c 2f 62 6f 64 79 3e 3c 2f 68 74 6d 6c 3e     ..</body></html>
     e18:	0d 0a 25 45 4e 44 00                                ..%END.

00000e1f <Page3>:
     e1f:	62 6f 64 79 7b 6d 61 72 67 69 6e 3a 20 34 30 70     body{margin: 40p
     e2f:	78 3b 7d 20 62 6f 64 79 2c 70 2c 64 69 76 2c 68     x;} body,p,div,h
     e3f:	31 2c 68 32 2c 74 64 2c 74 68 7b 66 6f 6e 74 2d     1,h2,td,th{font-
     e4f:	66 61 6d 69 6c 79 3a 73 61 6e 73 2d 73 65 72 69     family:sans-seri
     e5f:	66 3b 66 6f 6e 74 2d 73 69 7a 65 3a 31 31 70 78     f;font-size:11px
     e6f:	7d 68 31 7b 66 6f 6e 74 2d 73 69 7a 65 3a 32 30     }h1{font-size:20
     e7f:	70 78 3b 63 6f 6c 6f 72 3a 77 68 69 74 65 3b 20     px;color:white; 
     e8f:	62 61 63 6b 67 72 6f 75 6e 64 2d 63 6f 6c 6f 72     background-color
     e9f:	3a 23 39 36 42 31 31 43 3b 6d 61 72 67 69 6e 3a     :#96B11C;margin:
     eaf:	31 70 78 3b 70 61 64 64 69 6e 67 3a 35 70 78 3b     1px;padding:5px;
     ebf:	74 65 78 74 2d 61 6c 69 67 6e 3a 63 65 6e 74 65     text-align:cente
     ecf:	72 3b 7d 68 32 7b 66 6f 6e 74 2d 73 69 7a 65 3a     r;}h2{font-size:
     edf:	31 38 70 78 3b 63 6f 6c 6f 72 3a 23 39 36 42 31     18px;color:#96B1
     eef:	31 43 7d 70 2c 68 32 7b 6d 61 72 67 69 6e 3a 30     1C}p,h2{margin:0
     eff:	70 78 30 70 78 35 70 78 30 70 78 7d 69 6d 67 7b     px0px5px0px}img{
     f0f:	62 6f 72 64 65 72 3a 30 7d 68 72 7b 63 6f 6c 6f     border:0}hr{colo
     f1f:	72 3a 73 69 6c 76 65 72 3b 20 62 61 63 6b 67 72     r:silver; backgr
     f2f:	6f 75 6e 64 2d 63 6f 6c 6f 72 3a 73 69 6c 76 65     ound-color:silve
     f3f:	72 3b 62 6f 72 64 65 72 3a 30 3b 68 65 69 67 68     r;border:0;heigh
     f4f:	74 3a 31 70 78 7d 23 6e 61 76 7b 66 6f 6e 74 2d     t:1px}#nav{font-
     f5f:	73 69 7a 65 3a 20 31 36 70 78 3b 20 62 61 63 6b     size: 16px; back
     f6f:	67 72 6f 75 6e 64 2d 63 6f 6c 6f 72 3a 73 69 6c     ground-color:sil
     f7f:	76 65 72 3b 6d 61 72 67 69 6e 3a 31 70 78 3b 70     ver;margin:1px;p
     f8f:	61 64 64 69 6e 67 3a 35 70 78 3b 66 6f 6e 74 2d     adding:5px;font-
     f9f:	77 65 69 67 68 74 3a 62 6f 6c 64 7d 23 6e 61 76     weight:bold}#nav
     faf:	20 61 2c 20 23 74 61 69 6c 20 61 7b 63 6f 6c 6f      a, #tail a{colo
     fbf:	72 3a 77 68 69 74 65 3b 20 70 61 64 64 69 6e 67     r:white; padding
     fcf:	3a 31 30 70 78 3b 74 65 78 74 2d 64 65 63 6f 72     :10px;text-decor
     fdf:	61 74 69 6f 6e 3a 6e 6f 6e 65 7d 23 6e 61 76 20     ation:none}#nav 
     fef:	61 3a 68 6f 76 65 72 2c 23 74 61 69 6c 20 61 3a     a:hover,#tail a:
     fff:	68 6f 76 65 72 7b 74 65 78 74 2d 64 65 63 6f 72     hover{text-decor
    100f:	61 74 69 6f 6e 3a 75 6e 64 65 72 6c 69 6e 65 7d     ation:underline}
    101f:	23 74 61 69 6c 7b 20 63 6f 6c 6f 72 3a 77 68 69     #tail{ color:whi
    102f:	74 65 3b 20 62 61 63 6b 67 72 6f 75 6e 64 2d 63     te; background-c
    103f:	6f 6c 6f 72 3a 73 69 6c 76 65 72 3b 74 65 78 74     olor:silver;text
    104f:	2d 61 6c 69 67 6e 3a 63 65 6e 74 65 72 3b 70 61     -align:center;pa
    105f:	64 64 69 6e 67 3a 35 70 78 7d 23 6d 61 69 6e 7b     dding:5px}#main{
    106f:	74 65 78 74 2d 61 6c 69 67 6e 3a 63 65 6e 74 65     text-align:cente
    107f:	72 3b 6d 61 72 67 69 6e 3a 32 30 70 78 7d 2e 63     r;margin:20px}.c
    108f:	6c 65 61 72 7b 63 6c 65 61 72 3a 6c 65 66 74 7d     lear{clear:left}
    109f:	2e 74 65 6d 70 54 62 6c 20 7b 74 61 62 6c 65 2d     .tempTbl {table-
    10af:	6c 61 79 6f 75 74 3a 61 75 74 6f 3b 62 6f 72 64     layout:auto;bord
    10bf:	65 72 2d 73 70 61 63 69 6e 67 3a 30 7d 2e 74 65     er-spacing:0}.te
    10cf:	6d 70 54 62 6c 20 74 64 7b 74 65 78 74 2d 61 6c     mpTbl td{text-al
    10df:	69 67 6e 3a 63 65 6e 74 65 72 3b 70 61 64 64 69     ign:center;paddi
    10ef:	6e 67 3a 37 70 78 7d 2e 74 65 6d 70 54 62 6c 20     ng:7px}.tempTbl 
    10ff:	74 68 7b 62 61 63 6b 67 72 6f 75 6e 64 2d 63 6f     th{background-co
    110f:	6c 6f 72 3a 73 69 6c 76 65 72 7d 25 45 4e 44 00     lor:silver}%END.

0000111f <led_on>:
    111f:	47 49 46 38 39 61 11 00 11 00 a2 07 00 62 62 62     GIF89a.......bbb
    112f:	19 ad 21 21 e2 2c a5 a5 a5 64 e6 6b a5 f3 a9 d5     ..!!.,...d.k....
    113f:	d5 d5 ff ff ff 21 f9 04 01 00 00 07 00 2c 00 00     .....!.......,..
    114f:	00 00 11 00 11 00 00 03 60 78 aa d6 f3 66 c9 d3     ........`x...f..
    115f:	ea bb 51 56 12 7a 17 00 30 2c 4d f1 09 a8 d0 85     ..QV.z..0,M.....
    116f:	59 13 08 44 4c a4 6a 48 19 2a 51 ec 73 ba 0e 2e     Y..DL.jH.*Q.s...
    117f:	d8 ae 10 a3 05 44 41 1d 8f 56 13 0d 5e b2 a2 31     .....DA..V..^..1
    118f:	f4 78 a1 7a cc a3 d3 ca 9c 02 0c 4f 6e f7 77 a8     .x.z.......On.w.
    119f:	76 7d 36 4a e8 e4 d3 8e 14 83 b5 c7 43 9d 18 42     v}6J........C..B
    11af:	f8 fc 7b 52 8e e3 f7 0a 09 00 3b 25 45 4e 44        ..{R......;%END

000011be <led_off>:
    11be:	47 49 46 38 39 61 11 00 11 00 a2 07 00 57 56 57     GIF89a.......WVW
    11ce:	69 69 69 7e 7e 7e 90 91 91 b0 b0 b0 c8 c8 c8 e7     iii~~~..........
    11de:	e7 e7 ff ff ff 21 f9 04 01 00 00 07 00 2c 00 00     .....!.......,..
    11ee:	00 00 11 00 11 00 00 03 6f 78 aa 56 45 b0 ac 79     ........ox.VE..y
    11fe:	4c 73 70 68 39 ad 19 01 20 06 42 49 2c 56 41 6a     Lsph9... .BI,VAj
    120e:	43 19 90 01 67 05 03 44 68 a5 f0 0a 55 d1 12 8e     C...g..Dh...U...
    121e:	47 cb a5 03 aa 6a 85 c6 2d a7 a3 39 00 48 cc b0     G....j..-..9.H..
    122e:	34 82 40 6b 99 a9 40 04 b0 0a 58 38 66 15 c4 2c     4.@k..@...X8f..,
    123e:	bb 00 02 9f ce 9c 23 75 0f 2d 12 5b 07 08 28 0a     ......#u.-.[..(.
    124e:	2e 79 3b f4 56 10 76 7c 75 7c 27 13 78 2f 5c 55     .y;.V.v|u|'.x/\U
    125e:	14 0b 37 21 24 84 0b 09 00 3b 25 45 4e 44           ..7!$....;%END

0000126c <bild_balken>:
    126c:	47 49 46 38 39 61 02 00 0a 00 a2 00 00 a2 a5 ed     GIF89a..........
    127c:	84 8f e5 66 7c dd 49 60 d6 21 44 da fe 01 02 00     ...f|.I`.!D.....
    128c:	00 00 00 00 00 21 f9 04 05 14 00 05 00 2c 00 00     .....!.......,..
    129c:	00 00 02 00 0a 00 00 03 0a 48 34 23 12 01 48 00     .........H4#..H.
    12ac:	1d 53 09 00 3b 25 45 4e 44                          .S..;%END

000012b5 <bild_rakete>:
    12b5:	47 49 46 38 39 61 5a 00 5c 00 a2 04 00 79 79 d8     GIF89aZ.\....yy.
    12c5:	f6 f4 e1 c9 c9 e0 9c 98 d8 ff ff ff f4 f6 b0 f9     ................
    12d5:	fd 7c a6 a4 8e 21 f9 04 01 00 00 04 00 2c 00 00     .|...!.......,..
    12e5:	00 00 5a 00 5c 00 00 03 ff 48 ba dc fe 2e 2c 49     ..Z.\....H....,I
    12f5:	82 a5 b3 5a 21 b4 96 18 06 8d 64 69 7a 8d 85 a6     ...Z!.....diz...
    1305:	5c a5 a8 8f 78 ce b4 29 bf 99 30 0c 54 1f d7 c0     \...x..)..0.T...
    1315:	e0 0b 36 c4 65 08 03 c0 c0 18 e8 4c 6e c2 28 e9     ..6.e......Ln.(.
    1325:	c2 2c 10 61 80 2c 2e b0 93 7a 69 a0 4b 58 61 4d     .,.a.,...zi.KXaM
    1335:	55 b2 cb 85 40 09 83 7e df 9f de 6e 27 08 5f d6     U...@..~...n'._.
    1345:	ec 57 b2 fe 72 c2 83 6e 16 56 20 49 3b 59 7c 61     .W..r..n.V I;Y|a
    1355:	78 3c 15 49 79 4d 7c 7f 80 44 2f 05 65 5c 4a 0b     x<.IyM|..D/.e\J.
    1365:	7b 4f 8a 99 68 12 6b 7e 91 33 62 2e 13 95 9f 8e     {O..h.k~.3b.....
    1375:	4d 59 22 8a 1b 9e 4d 7b 6e 66 a2 71 22 01 95 05     MY"...M{nf.q"...
    1385:	67 75 03 3a af 13 9a 04 78 1d 97 69 a5 b4 53 62     gu.:....x..i..Sb
    1395:	b6 b8 16 00 bb 59 9e 4f 3b 20 6b 3c aa bc c6 47     .....Y.O; k<...G
    13a5:	c7 0c 17 83 20 15 cb 01 ab c1 07 07 90 df 05 2d     .... ..........-
    13b5:	15 3a 20 87 a3 b2 52 82 a7 21 05 06 a7 85 f1 76     .: ...R..!.....v
    13c5:	b7 dd 1a 75 e8 e5 b6 93 b0 45 0a 03 ce 14 bd 41     ...u.....E.....A
    13d5:	b1 e4 a9 08 60 a0 5e 08 7c 43 64 f8 78 57 63 e2     ....`.^.|Cd.xWc.
    13e5:	b9 65 94 e8 d5 3b d3 0c ff 1c 88 86 95 9e dc f2     .e...;..........
    13f5:	a1 a0 0e ac 39 73 9c 48 8c 71 65 24 a1 45 fa 1c     ....9s.H.qe$.E..
    1405:	6a a8 04 12 15 00 8f b7 40 e6 a2 60 a5 9b 0e 43     j.......@..`...C
    1415:	4a 9e 3d e3 45 d1 86 3e 66 8e 34 26 d3 b8 f1 d2     J.=.E..>f.4&....
    1425:	81 53 df 1a ca bc 50 ae 97 d0 43 1c 1a 35 0b 18     .S....P...C..5..
    1435:	45 9f 95 a1 fd 6a 4e 90 ba 33 cb 01 7d 51 1d 3e     E....jN..3..}Q.>
    1445:	d2 2a 94 68 8f 4b 5b 6d 40 00 78 50 11 9b 9c 21     .*.h.K[m@.xP...!
    1455:	3f 8a 4d 38 08 97 d5 ab bc 4c 4e e8 40 cd dc 08     ?.M8.....LN.@...
    1465:	2a db 20 e0 6a 64 88 17 cd 41 15 c8 5a d8 03 4e     *. .jd...A..Z..N
    1475:	c0 01 b6 87 da 20 a9 c3 81 83 12 95 46 be e8 63     ..... ......F..c
    1485:	2c 54 80 c6 53 4c cb 91 13 40 d6 0a 1e 34 90 30     ,T..SL...@...4.0
    1495:	f0 a0 16 b8 5d 9c 6c 53 04 fe 6a 86 f9 a9 ce d4     ....].lS..j.....
    14a5:	e5 68 d6 3b 35 d4 1b 15 09 85 b0 66 8e e0 42 56     .h.;5......f..BV
    14b5:	b2 e3 5b 92 70 e9 dd fa f7 63 72 95 5e a7 21 d5     ..[.p....cr.^.!.
    14c5:	44 95 a7 7b 22 b9 23 73 c9 1d 39 00 58 cd d0 30     D..{".#s..9.X..0
    14d5:	05 29 b5 3d f6 ec cf 86 25 4e fe b9 d1 73 85 2b     .).=....%N...s.+
    14e5:	e6 c6 53 78 61 55 60 61 ff eb b5 d7 5e 01 c1 55     ..SxaU`a....^..U
    14f5:	72 40 7c 0f 55 03 56 2f 1b e0 82 13 18 5e 61 24     r@|.U.V/.....^a$
    1505:	cc 1c 43 ad 67 a1 81 3d 3d a5 9d 1c 48 f0 32 14     ..C.g..==...H.2.
    1515:	01 99 71 e0 a0 3c 15 cd 34 a2 77 57 79 72 da 7a     ..q..<..4.wWyr.z
    1525:	67 79 15 5c 38 f1 bd 70 de 6b 5b 09 13 c0 59 27     gy.\8..p.k[...Y'
    1535:	3a f7 03 37 23 fe 44 5f 85 02 36 74 a0 69 fe 3c     :..7#.D_..6t.i.<
    1545:	f5 d5 87 c8 79 86 20 6c ef ed 03 cf 7e 12 d6 87     ....y. l....~...
    1555:	c6 79 41 d6 43 8e 95 37 59 71 a0 50 14 50 83 20     .yA.C..7Yq.P.P. 
    1565:	35 16 f8 06 99 6e 42 c4 54 53 2c ae b0 56 e5 63     5....nB.TS,..V.c
    1575:	00 b4 a8 15 63 ea b4 e5 dd 2d ef 8d 51 d4 2c 89     ....c....-..Q.,.
    1585:	e5 44 96 5d 42 05 28 5c 43 9c 31 56 07 82 48 3c     .D.]B.(\C.1V..H<
    1595:	33 d9 56 4d 32 57 62 0a f1 90 55 08 5b a6 91 85     3.VM2Wb...U.[...
    15a5:	9d 90 e8 30 e6 ca 2b 9c 30 68 59 4f c6 55 f4 dc     ...0..+.0hYO.U..
    15b5:	0d 66 1a 30 64 56 66 31 45 a0 98 5a c6 08 17 1a     .f.0dVf1E..Z....
    15c5:	25 11 95 84 86 26 71 f5 9c 19 50 e6 f8 c4 41 05     %....&q...P...A.
    15d5:	60 b6 ca 80 a6 b2 45 c1 a3 99 75 07 63 76 6d f0     `.....E...u.cvm.
    15e5:	38 a2 93 db 1c 7b ac 18 ff 8f f9 08 54 a4 41 12     8....{......T.A.
    15f5:	78 95 0b b1 14 32 0c 1e 46 da e1 20 af 24 ea 37     x....2..F.. .$.7
    1605:	a2 80 ca c2 d8 99 b5 7e 0a e3 8b 74 c1 3c 6a 15     .......~...t.<j.
    1615:	91 3d 05 d8 da 98 4f b0 f4 a7 4e 96 b1 ab 88 56     .=....O...N....V
    1625:	be ed 69 df 67 bf 02 10 4c 8a 86 6e bb 26 b2 c5     ..i.g...L..n.&..
    1635:	ca ea 15 48 34 66 7b d9 b8 87 9c f6 9a 35 54 ec     ...H4f{......5T.
    1645:	01 70 a9 55 0e 47 0a 9e 57 14 01 25 8d 6d 1a 59     .p.U.G..W..%.m.Y
    1655:	18 8d cb c0 09 a6 0b 1c 6f d5 c4 a4 d1 96 81 5b     ........o......[
    1665:	62 cc d9 52 52 85 a7 56 a2 6b 96 d2 f2 4b 4d 29     b..RR..V.k...KM)
    1675:	34 3a e6 2e af c9 cc 45 e6 0f 71 b2 01 d2 01 f5     4:.....E..q.....
    1685:	e8 6a e4 96 e2 c4 f2 72 71 a7 55 dc cd c5 9e 7e     .j.....rq.U....~
    1695:	ca ce 56 b8 10 6d 40 ce 05 be f9 b2 13 34 b2 eb     ..V..m@......4..
    16a5:	1a 39 4d 3e 8d 4f cf 2d d7 9a 23 9a b8 0c fd 2a     .9M>.O.-..#....*
    16b5:	bb 48 c7 05 0a 47 66 dd 62 d9 96 55 85 1d 61 b8     .H...Gf.b..U..a.
    16c5:	0b 35 d7 e8 c0 1e 1f f8 cf 85 b8 e6 3a 25 d7 e7     .5..........:%..
    16d5:	ad 1a a9 6b 6e 55 6d f5 80 03 f3 c7 6c da 55 1a     ...knUm.....l.U.
    16e5:	59 29 d8 57 ae d9 c8 4f ff bf fc 95 2f e5 94 43     Y).W...O..../..C
    16f5:	5e 31 7b 39 ce 1a d1 b1 55 3d f2 c8 dc e0 a2 e3     ^1{9....U=......
    1705:	09 26 2a 68 1e a0 88 a7 fe 9d b2 e3 52 bb 7c eb     .&*h........R.|.
    1715:	20 73 73 6e 64 b4 5b 32 13 1b 5c 44 46 db d0 a1      ssnd.[2..\DF...
    1725:	f9 e2 5d 82 8e 79 67 44 d3 e2 03 8a ab ce 22 0a     ..]..ygD......".
    1735:	5c 6e aa e7 c3 c7 e7 a0 e8 de 00 b1 d0 e3 6b 0e     \n............k.
    1745:	78 39 72 d0 c3 c8 c3 8a 93 12 0d 5f c3 0f de 89     x9r........_....
    1755:	8d 32 02 37 ee f1 33 24 2f 81 94 98 ef d5 5f 95     .2.7..3$/....._.
    1765:	56 d0 0e 47 b0 7e 2c 5f f4 b9 90 1a aa 1f ab d4     V..G.~,_........
    1775:	60 9e 7c e9 ef 46 47 6b 5b 9b f2 67 1d a9 f9 cc     `.|..FGk[..g....
    1785:	7f ff 93 0a 76 e6 86 a2 d8 f0 e2 55 01 5a 8d a9     ....v......U.Z..
    1795:	74 37 af d9 89 ed 2d a3 eb e0 ff d0 91 1d 67 d0     t7....-.......g.
    17a5:	81 01 ad e0 dd bc 8e 55 8f 08 86 4e 6f ca 8a e1     .......U...No...
    17b5:	63 36 28 b9 09 85 42 7a 11 74 a1 0c f1 b6 bd bb     c6(...Bz.t......
    17c5:	d1 0e 4a 8c 1b 1a 1b 38 10 86 86 e5 50 87 a8 b9     ..J....8....P...
    17d5:	cf a7 22 20 3a bd 85 2a 48 30 6a dd d4 76 77 44     .." :..*H0j..vwD
    17e5:	1d e6 ad 76 ea 63 94 9e ff 2a 76 89 d6 a5 eb 33     ...v.c...*v....3
    17f5:	3b 63 4f 15 6b 92 3d a8 e1 c9 04 d4 ab 92 30 4a     ;cO.k.=.......0J
    1805:	02 17 03 02 50 7f 22 1c a1 ca 7e 16 af c3 ec 2d     ....P."...~....-
    1815:	75 92 61 15 7a d8 60 21 c9 51 6e 8c 3a e1 8a f6     u.a.z.`!.Qn.:...
    1825:	0e 96 ba b4 11 cb 50 87 2a 5c 0c 75 f7 b9 6f b5     ......P.*\.u..o.
    1835:	26 7b 92 e8 a0 b2 84 f8 93 14 d5 41 77 c1 d9 54     &{.........Aw..T
    1845:	1a b9 b5 37 8f 94 08 88 18 e9 a4 22 2a f9 8c 00     ...7......."*...
    1855:	2e 90 54 03 10 8e 6b e2 08 99 5a 91 d1 1d 3e b4     ..T...k...Z...>.
    1865:	c4 4c c8 d2 16 54 4a 4e 75 6e 42 5f ec 82 17 2d     .L...TJNunB_...-
    1875:	f6 31 05 31 3e c3 62 06 b6 68 00 5d 71 86 98 aa     .1.1>.b..h.]q...
    1885:	4b 65 01 86 62 96 dc b1 92 24 fb 21 1b 4b 7a e6     Ke..b....$.!.Kz.
    1895:	32 64 4e e9 2a 6e 04 49 47 96 59 1a 7d cc ed 99     2dN.*n.IG.Y.}...
    18a5:	47 70 a0 1d a1 d3 80 15 82 02 33 8e e1 1d 6b 6a     Gp........3...kj
    18b5:	36 00 03 62 c8 91 3a 99 26 30 73 13 10 64 de 88     6..b..:.&0s..d..
    18c5:	07 80 b1 4c e4 8a 47 0e 62 5a 89 8c 2b 7c 48 44     ...L..G.bZ..+|HD
    18d5:	44 63 21 df d1 c6 3f 37 99 9d 75 b8 f5 48 41 f0     Dc!...?7..u..HA.
    18e5:	0a 68 80 30 91 64 54 71 ff 23 25 5c ae 9d 3b 0b     .h.0.dTq.#%\..;.
    18f5:	e3 bb 4c 35 04 55 ce 11 0e 66 bb 03 0f 86 64 ad     ..L5.U...f....d.
    1905:	dd c5 b1 3a 13 35 d5 3c 66 f8 d1 ae 18 ab 58 5b     ...:.5.<f.....X[
    1915:	39 44 7c bc e6 27 86 02 54 a5 5b 98 a1 20 07 79     9D|..'..T.[.. .y
    1925:	94 b7 b4 93 18 36 62 21 4a 6b 52 50 33 85 a4 14     .....6b!JkRP3...
    1935:	11 9a a7 24 66 75 12 ef 0c aa 4d 2b 5a 61 41 ff     ...$fu....M+ZaA.
    1945:	d4 0d 43 42 b3 20 4f 22 9b e9 d0 a3 20 a8 02 34     ..CB. O".... ..4
    1955:	a5 60 25 63 27 03 91 45 79 02 73 21 df a3 86 2a     .`%c'..Ey.s!...*
    1965:	1d fa 55 b1 4a c6 14 81 0c 8d 5c ff 10 02 1b fd     ..U.J.....\.....
    1975:	44 4f 55 0d ab 5a b6 98 8b 8c 58 2c 04 da 88 c0     DOU..Z....X,....
    1985:	1a 61 11 16 85 ac 68 ac b3 94 89 f2 a0 12 58 a4     .a....h.......X.
    1995:	12 22 58 2d c0 2b b3 c4 2a d9 c4 ce f1 a5 2b 39     ."X-.+..*.....+9
    19a5:	06 7a 04 73 bb bd 4a 96 1b 62 01 01 46 b6 70 14     .z.s..J..b..F.p.
    19b5:	45 95 69 1b 5d b2 d6 27 22 1b a1 5b ed f5 1c 8a     E.i.]..'"..[....
    19c5:	bd 88 2c 6b 51 d6 13 1c e7 24 a0 e9 8e 89 64 e9     ..,kQ....$....d.
    19d5:	d0 cb e2 e5 b6 58 75 62 63 7b e1 96 fe 8d cd b5     .....Xubc{......
    19e5:	1f fd 6d b2 ba e5 c4 da 5b e6 46 1d 88 e8 5f 08     ..m.....[.F..._.
    19f5:	79 eb 15 5f 22 e6 b8 2b 13 45 35 41 f8 96 9e c2     y.._"..+.E5A....
    1a05:	90 b1 ca a3 4b 4b 03 2b 50 63 40 41 10 9a b9 88     ....KK.+Pc@A....
    1a15:	75 49 6b c6 c6 9a 96 4c e8 15 6f 5f 6f 75 d6 f6     uIk....L..o_ou..
    1a25:	ba 77 a9 a0 02 6f 47 eb a9 d4 fb 9e 96 89 06 0b     .w...oG.........
    1a35:	b0 73 fd 6b 94 f3 f6 97 c0 8d dd a9 7d 11 4c 5e     .s.k........}.L^
    1a45:	e4 21 38 01 00 3b 25 45 4e 44                       .!8..;%END

00001a4f <http_header0>:
    1a4f:	48 54 54 50 2f 31 2e 30 20 32 30 30 20 44 6f 63     HTTP/1.0 200 Doc
    1a5f:	75 6d 65 6e 74 20 66 6f 6c 6c 6f 77 73 0d 0a 53     ument follows..S
    1a6f:	65 72 76 65 72 3a 20 41 56 52 5f 53 6d 61 6c 6c     erver: AVR_Small
    1a7f:	5f 57 65 62 73 65 72 76 65 72 0d 0a 43 6f 6e 74     _Webserver..Cont
    1a8f:	65 6e 74 2d 54 79 70 65 3a 20 74 65 78 74 2f 70     ent-Type: text/p
    1a9f:	6c 61 69 6e 0d 0a 0d 0a 00                          lain.....

00001aa8 <http_header1>:
    1aa8:	48 54 54 50 2f 31 2e 30 20 32 30 30 20 44 6f 63     HTTP/1.0 200 Doc
    1ab8:	75 6d 65 6e 74 20 66 6f 6c 6c 6f 77 73 0d 0a 53     ument follows..S
    1ac8:	65 72 76 65 72 3a 20 41 56 52 5f 53 6d 61 6c 6c     erver: AVR_Small
    1ad8:	5f 57 65 62 73 65 72 76 65 72 0d 0a 43 6f 6e 74     _Webserver..Cont
    1ae8:	65 6e 74 2d 54 79 70 65 3a 20 74 65 78 74 2f 68     ent-Type: text/h
    1af8:	74 6d 6c 0d 0a 0d 0a 00                             tml.....

00001b00 <http_header2>:
    1b00:	48 54 54 50 2f 31 2e 30 20 34 30 31 20 55 6e 61     HTTP/1.0 401 Una
    1b10:	75 74 68 6f 72 69 7a 65 64 0d 0a 53 65 72 76 65     uthorized..Serve
    1b20:	72 3a 20 41 56 52 5f 53 6d 61 6c 6c 5f 57 65 62     r: AVR_Small_Web
    1b30:	73 65 72 76 65 72 0d 0a 57 57 57 2d 41 75 74 68     server..WWW-Auth
    1b40:	65 6e 74 69 63 61 74 65 3a 20 42 61 73 69 63 20     enticate: Basic 
    1b50:	72 65 61 6c 6d 3d 22 4e 65 65 64 50 61 73 73 77     realm="NeedPassw
    1b60:	6f 72 64 22 0d 0a 43 6f 6e 74 65 6e 74 2d 54 79     ord"..Content-Ty
    1b70:	70 65 3a 20 74 65 78 74 2f 68 74 6d 6c 0d 0a 0d     pe: text/html...
    1b80:	0a 00                                               ..

00001b82 <http_header3>:
    1b82:	48 54 54 50 2f 31 2e 30 20 32 30 30 20 44 6f 63     HTTP/1.0 200 Doc
    1b92:	75 6d 65 6e 74 20 66 6f 6c 6c 6f 77 73 0d 0a 53     ument follows..S
    1ba2:	65 72 76 65 72 3a 20 41 56 52 5f 53 6d 61 6c 6c     erver: AVR_Small
    1bb2:	5f 57 65 62 73 65 72 76 65 72 0d 0a 43 6f 6e 74     _Webserver..Cont
    1bc2:	65 6e 74 2d 54 79 70 65 3a 20 69 6d 61 67 65 2f     ent-Type: image/
    1bd2:	6a 70 65 67 0d 0a 0d 0a 00                          jpeg.....

00001bdb <http_header4>:
    1bdb:	48 54 54 50 2f 31 2e 30 20 32 30 30 20 44 6f 63     HTTP/1.0 200 Doc
    1beb:	75 6d 65 6e 74 20 66 6f 6c 6c 6f 77 73 0d 0a 53     ument follows..S
    1bfb:	65 72 76 65 72 3a 20 41 56 52 5f 53 6d 61 6c 6c     erver: AVR_Small
    1c0b:	5f 57 65 62 73 65 72 76 65 72 0d 0a 43 61 63 68     _Webserver..Cach
    1c1b:	65 2d 43 6f 6e 74 72 6f 6c 3a 20 6d 61 78 2d 61     e-Control: max-a
    1c2b:	67 65 3d 36 30 30 30 30 30 30 0d 0a 43 6f 6e 74     ge=6000000..Cont
    1c3b:	65 6e 74 2d 54 79 70 65 3a 20 69 6d 61 67 65 2f     ent-Type: image/
    1c4b:	67 69 66 0d 0a 0d 0a 00                             gif.....

00001c53 <http_header5>:
    1c53:	48 54 54 50 2f 31 2e 30 20 32 30 30 20 44 6f 63     HTTP/1.0 200 Doc
    1c63:	75 6d 65 6e 74 20 66 6f 6c 6c 6f 77 73 0d 0a 53     ument follows..S
    1c73:	65 72 76 65 72 3a 20 41 56 52 5f 53 6d 61 6c 6c     erver: AVR_Small
    1c83:	5f 57 65 62 73 65 72 76 65 72 0d 0a 43 61 63 68     _Webserver..Cach
    1c93:	65 2d 43 6f 6e 74 72 6f 6c 3a 20 6d 61 78 2d 61     e-Control: max-a
    1ca3:	67 65 3d 36 30 30 30 30 30 30 0d 0a 43 6f 6e 74     ge=6000000..Cont
    1cb3:	65 6e 74 2d 54 79 70 65 3a 20 74 65 78 74 2f 63     ent-Type: text/c
    1cc3:	73 73 0d 0a 0d 0a 00                                ss.....

00001cca <Page0>:
    1cca:	34 30 31 20 55 6e 61 75 74 68 6f 72 69 7a 65 64     401 Unauthorized
    1cda:	25 45 4e 44 00                                      %END.

00001cdf <__c.2401>:
    1cdf:	50 4f 53 54 00                                      POST.

00001ce4 <__c.2454>:
    1ce4:	63 68 65 63 6b 65 64 00                             checked.

00001cec <__c.2456>:
	...

00001cee <__c.2470>:
    1cee:	6c 65 64 6f 6e 2e 67 69 66 00                       ledon.gif.

00001cf8 <__c.2472>:
    1cf8:	6c 65 64 6f 66 66 2e 67 69 66 00                    ledoff.gif.

00001d03 <__c.2172>:
    1d03:	0a 0d 53 79 73 74 65 6d 20 52 65 61 64 79 0a 0d     ..System Ready..
	...

00001d14 <__c.2174>:
    1d14:	43 6f 6d 70 69 6c 69 65 72 74 20 61 6d 20 44 65     Compiliert am De
    1d24:	63 20 31 31 20 32 30 31 36 20 75 6d 20 31 32 3a     c 11 2016 um 12:
    1d34:	35 36 3a 32 39 0d 0a 00                             56:29...

00001d3c <__c.2176>:
    1d3c:	43 6f 6d 70 69 6c 69 65 72 74 20 6d 69 74 20 47     Compiliert mit G
    1d4c:	43 43 20 56 65 72 73 69 6f 6e 20 34 2e 39 2e 32     CC Version 4.9.2
    1d5c:	0d 0a 00                                            ...

00001d5f <__c.2181>:
    1d5f:	0d 0a 49 50 20 20 20 25 31 69 2e 25 31 69 2e 25     ..IP   %1i.%1i.%
    1d6f:	31 69 2e 25 31 69 0d 0a 00                          1i.%1i...

00001d78 <__c.2183>:
    1d78:	4d 41 53 4b 20 25 31 69 2e 25 31 69 2e 25 31 69     MASK %1i.%1i.%1i
    1d88:	2e 25 31 69 0d 0a 00                                .%1i...

00001d8f <__c.2185>:
    1d8f:	47 57 20 20 20 25 31 69 2e 25 31 69 2e 25 31 69     GW   %1i.%1i.%1i
    1d9f:	2e 25 31 69 0d 0a 00                                .%1i...

00001da6 <__c.2187>:
    1da6:	0d 0a 00                                            ...

00001da9 <__c.2189>:
    1da9:	52 65 61 64 79 0d 0a 0d 0a 00                       Ready.....

00001db3 <__c.2191>:
    1db3:	45 52 52 4f 52 0d 0a 0d 0a 00                       ERROR.....

00001dbd <__c.2193>:
    1dbd:	47 65 74 20 50 4f 4e 47 3a 20 25 69 2e 25 69 2e     Get PONG: %i.%i.
    1dcd:	25 69 2e 25 69 0d 0a 00                             %i.%i...

00001dd5 <enc_configdata>:
    1dd5:	04 00 05 1a 06 ff 07 1f 08 00 09 00 0a ff 0b 19     ................
    1de5:	c1 00 c0 0d c2 33 ca ee cb 05 c4 15 c6 12 e4 00     .....3..........
    1df5:	e5 20 e2 18 e3 b1 e0 15 e1 6f 75 00 ff ff 00 01     . .......ou.....
    1e05:	00 14 07 42 ff ff                                   ...B..

00001e0b <__c.2048>:
    1e0b:	0a 0a 0a 53 4e 4d 50 20 4e 61 63 68 72 69 63 68     ...SNMP Nachrich
    1e1b:	74 0a 56 65 72 73 69 6f 6e 3a 20 25 69 20 0a 43     t.Version: %i .C
    1e2b:	6f 6d 6d 3a 20 25 73 20 0a 50 44 55 3a 20 25 69     omm: %s .PDU: %i
    1e3b:	20 0a 52 65 71 20 49 44 3a 20 25 69 0a 20 45 72      .Req ID: %i. Er
    1e4b:	72 6f 72 3a 20 25 69 20 0a 45 72 72 6f 72 20 49     ror: %i .Error I
    1e5b:	64 78 3a 20 25 69 0a 0a 00                          dx: %i...

00001e64 <__c.2294>:
    1e64:	0a 0d 4e 49 43 20 69 6e 69 74 3a 00                 ..NIC init:.

00001e70 <__c.2296>:
    1e70:	4d 79 20 49 50 3a 20 25 31 69 2e 25 31 69 2e 25     My IP: %1i.%1i.%
    1e80:	31 69 2e 25 31 69 0d 0a 0d 0a 00                    1i.%1i.....

00001e8b <__c.2313>:
    1e8b:	45 69 6e 74 72 61 67 20 77 69 72 64 20 65 6e 74     Eintrag wird ent
    1e9b:	66 65 72 6e 74 20 4d 41 58 5f 45 52 52 4f 52 20     fernt MAX_ERROR 
    1eab:	53 54 41 43 4b 3a 25 69 0d 0a 00                    STACK:%i...

00001eb6 <__c.2315>:
    1eb6:	50 61 63 6b 65 74 20 77 69 72 64 20 65 72 6e 65     Packet wird erne
    1ec6:	75 74 20 67 65 73 65 6e 64 65 74 20 53 54 41 43     ut gesendet STAC
    1ed6:	4b 3a 25 69 0d 0a 00                                K:%i...

00001edd <__c.2340>:
    1edd:	54 43 50 20 5a 75 76 69 65 6c 65 20 41 6e 77 65     TCP Zuviele Anwe
    1eed:	6e 64 75 6e 67 65 6e 20 77 75 72 64 65 6e 20 67     ndungen wurden g
    1efd:	65 73 74 61 72 74 65 74 0d 0a 00                    estartet...

00001f08 <__c.2342>:
    1f08:	54 43 50 20 41 6e 77 65 6e 64 75 6e 67 20 77 69     TCP Anwendung wi
    1f18:	72 64 20 69 6e 20 4c 69 73 74 65 20 65 69 6e 67     rd in Liste eing
    1f28:	65 74 72 61 67 65 6e 3a 20 45 69 6e 74 72 61 67     etragen: Eintrag
    1f38:	20 25 69 0d 0a 00                                    %i...

00001f3e <__c.2352>:
    1f3e:	28 50 6f 72 74 e4 6e 64 65 72 75 6e 67 29 20 50     (Port.nderung) P
    1f4e:	6f 72 74 20 77 75 72 64 65 20 6e 69 63 68 74 20     ort wurde nicht 
    1f5e:	67 65 66 75 6e 64 65 6e 0d 0a 00                    gefunden...

00001f69 <__c.2354>:
    1f69:	54 43 50 20 41 6e 77 65 6e 64 75 6e 67 20 50 6f     TCP Anwendung Po
    1f79:	72 74 20 e4 6e 64 65 72 6e 3a 20 45 69 6e 74 72     rt .ndern: Eintr
    1f89:	61 67 20 25 69 0d 0a 00                             ag %i...

00001f91 <__c.2365>:
    1f91:	5a 75 76 69 65 6c 65 20 55 44 50 20 41 6e 77 65     Zuviele UDP Anwe
    1fa1:	6e 64 75 6e 67 65 6e 20 77 75 72 64 65 6e 20 67     ndungen wurden g
    1fb1:	65 73 74 61 72 74 65 74 0d 0a 00                    estartet...

00001fbc <__c.2367>:
    1fbc:	55 44 50 20 41 6e 77 65 6e 64 75 6e 67 20 77 69     UDP Anwendung wi
    1fcc:	72 64 20 69 6e 20 4c 69 73 74 65 20 65 69 6e 67     rd in Liste eing
    1fdc:	65 74 72 61 67 65 6e 3a 20 45 69 6e 74 72 61 67     etragen: Eintrag
    1fec:	20 25 69 0d 0a 00                                    %i...

00001ff2 <__c.2397>:
    1ff2:	25 69 00                                            %i.

00001ff5 <__c.2399>:
    1ff5:	2e 25 69 00                                         .%i.

00001ff9 <__c.2401>:
    1ff9:	2e 25 69 00                                         .%i.

00001ffd <__c.2403>:
    1ffd:	2e 25 69 20 3a 00                                   .%i :.

00002003 <__c.2432>:
    2003:	4b 65 69 6e 20 41 52 50 20 6f 64 65 72 20 49 50     Kein ARP oder IP
    2013:	20 50 61 63 6b 65 74 21 0d 0a 00                     Packet!...

0000201e <__c.2437>:
    201e:	41 52 50 20 65 6e 74 72 79 20 74 61 62 65 6c 6c     ARP entry tabell
    202e:	65 20 76 6f 6c 6c 21 0d 0a 00                       e voll!...

00002038 <__c.2457>:
    2038:	41 52 50 20 45 69 6e 74 72 61 67 20 6e 69 63 68     ARP Eintrag nich
    2048:	74 20 67 65 66 75 6e 64 65 6e 2a 0d 0a 00           t gefunden*...

00002056 <__c.2472>:
    2056:	41 52 50 20 45 69 6e 74 72 61 67 20 6e 69 63 68     ARP Eintrag nich
    2066:	74 20 67 65 66 75 6e 64 65 6e 0d 0a 00              t gefunden...

00002073 <__c.2474>:
    2073:	41 52 50 20 52 45 50 4c 59 20 45 4d 50 46 41 4e     ARP REPLY EMPFAN
    2083:	47 45 4e 21 0d 0a 00                                GEN!...

0000208a <__c.2487>:
    208a:	4d 59 20 4e 45 54 57 4f 52 4b 21 0d 0a 00           MY NETWORK!...

00002098 <__c.2489>:
    2098:	52 4f 55 54 49 4e 47 21 0d 0a 00                    ROUTING!...

000020a3 <__c.2494>:
    20a3:	41 52 50 20 45 49 4e 54 52 41 47 20 47 45 46 55     ARP EINTRAG GEFU
    20b3:	4e 44 45 4e 21 0d 0a 00                             NDEN!...

000020bb <__c.2499>:
    20bb:	2a 2a 4b 45 49 4e 45 4e 20 41 52 50 20 45 49 4e     **KEINEN ARP EIN
    20cb:	54 52 41 47 20 47 45 46 55 4e 44 45 4e 2a 2a 0d     TRAG GEFUNDEN**.
    20db:	0a 00                                               ..

000020dd <__c.2539>:
    20dd:	54 43 50 20 45 6e 74 72 79 20 67 65 66 75 6e 64     TCP Entry gefund
    20ed:	65 6e 20 25 69 0d 0a 00                             en %i...

000020f5 <__c.2545>:
    20f5:	54 43 50 20 45 6e 74 72 79 20 6e 65 75 65 72 20     TCP Entry neuer 
    2105:	45 69 6e 74 72 61 67 20 25 69 0d 0a 00              Eintrag %i...

00002112 <__c.2550>:
    2112:	53 65 72 76 65 72 20 42 75 73 79 20 28 4e 4f 20     Server Busy (NO 
    2122:	4d 4f 52 45 20 43 4f 4e 4e 45 43 54 49 4f 4e 53     MORE CONNECTIONS
    2132:	29 21 0d 0a 00                                      )!...

00002137 <__c.2568>:
    2137:	55 44 50 20 4b 65 69 6e 65 20 41 6e 77 65 6e 64     UDP Keine Anwend
    2147:	75 6e 67 20 67 65 66 75 6e 64 65 6e 21 0d 0a 00     ung gefunden!...

00002157 <__c.2591>:
    2157:	54 43 50 20 4b 65 69 6e 65 20 41 6e 77 65 6e 64     TCP Keine Anwend
    2167:	75 6e 67 20 67 65 66 75 6e 64 65 6e 21 0d 0a 00     ung gefunden!...

00002177 <__c.2593>:
    2177:	54 43 50 20 45 69 6e 74 72 61 67 20 6e 69 63 68     TCP Eintrag nich
    2187:	74 20 65 72 66 6f 6c 67 72 65 69 63 68 21 0d 0a     t erfolgreich!..
	...

00002198 <__c.2595>:
    2198:	54 43 50 20 50 6f 72 74 20 77 75 72 64 65 20 76     TCP Port wurde v
    21a8:	6f 6d 20 53 65 72 76 65 72 20 67 65 f6 66 66 6e     om Server ge.ffn
    21b8:	65 74 20 53 54 41 43 4b 3a 25 69 0d 0a 00           et STACK:%i...

000021c6 <__c.2597>:
    21c6:	54 43 50 20 45 69 6e 74 72 61 67 20 6e 69 63 68     TCP Eintrag nich
    21d6:	74 20 65 72 66 6f 6c 67 72 65 69 63 68 21 0d 0a     t erfolgreich!..
	...

000021e7 <__c.2599>:
    21e7:	54 43 50 20 4e 65 77 20 53 45 52 56 45 52 20 43     TCP New SERVER C
    21f7:	6f 6e 6e 65 63 74 69 6f 6e 21 20 53 54 41 43 4b     onnection! STACK
    2207:	3a 25 69 0d 0a 00                                   :%i...

0000220d <__c.2601>:
    220d:	54 43 50 20 45 69 6e 74 72 61 67 20 6e 69 63 68     TCP Eintrag nich
    221d:	74 20 67 65 66 75 6e 64 65 6e 0d 0a 00              t gefunden...

0000222a <__c.2603>:
    222a:	54 43 50 2d 53 74 61 63 6b 20 45 69 6e 74 72 61     TCP-Stack Eintra
    223a:	67 20 67 65 6c f6 73 63 68 74 21 20 53 54 41 43     g gel.scht! STAC
    224a:	4b 3a 25 69 0d 0a 00                                K:%i...

00002251 <__c.2605>:
    2251:	54 43 50 2d 53 74 61 63 6b 20 45 69 6e 74 72 61     TCP-Stack Eintra
    2261:	67 20 67 65 6c f6 73 63 68 74 21 20 53 54 41 43     g gel.scht! STAC
    2271:	4b 3a 25 69 0d 0a 00                                K:%i...

00002278 <__c.2616>:
    2278:	54 43 50 20 53 72 63 50 6f 72 74 20 25 34 69 0d     TCP SrcPort %4i.
    2288:	0a 00                                               ..

0000228a <__c.2621>:
    228a:	50 6f 72 74 20 77 69 72 64 20 69 6d 20 54 43 50     Port wird im TCP
    229a:	20 53 74 61 63 6b 20 67 65 73 63 68 6c 6f 73 73      Stack geschloss
    22aa:	65 6e 20 53 54 41 43 4b 3a 25 69 0d 0a 00           en STACK:%i...

000022b8 <__c.2636>:
    22b8:	4f 65 66 66 65 6e 20 65 69 6e 65 73 20 50 6f 72     Oeffen eines Por
    22c8:	74 73 20 6d 69 74 20 53 65 72 76 65 72 0d 0a 00     ts mit Server...

000022d8 <__c.2638>:
    22d8:	54 43 50 20 4f 70 65 6e 20 6e 65 75 65 72 20 45     TCP Open neuer E
    22e8:	69 6e 74 72 61 67 20 25 69 0d 0a 00                 intrag %i...

000022f4 <__c.2643>:
    22f4:	42 75 73 79 20 28 4e 4f 20 4d 4f 52 45 20 43 4f     Busy (NO MORE CO
    2304:	4e 4e 45 43 54 49 4f 4e 53 29 21 0d 0a 00           NNECTIONS)!...

00002312 <__ctors_end>:
    2312:	11 24       	eor	r1, r1
    2314:	1f be       	out	0x3f, r1	; 63
    2316:	cf e5       	ldi	r28, 0x5F	; 95
    2318:	d8 e0       	ldi	r29, 0x08	; 8
    231a:	de bf       	out	0x3e, r29	; 62
    231c:	cd bf       	out	0x3d, r28	; 61

0000231e <__do_copy_data>:
    231e:	11 e0       	ldi	r17, 0x01	; 1
    2320:	a0 e6       	ldi	r26, 0x60	; 96
    2322:	b0 e0       	ldi	r27, 0x00	; 0
    2324:	e8 e9       	ldi	r30, 0x98	; 152
    2326:	ff e7       	ldi	r31, 0x7F	; 127
    2328:	02 c0       	rjmp	.+4      	; 0x232e <__do_copy_data+0x10>
    232a:	05 90       	lpm	r0, Z+
    232c:	0d 92       	st	X+, r0
    232e:	a6 3c       	cpi	r26, 0xC6	; 198
    2330:	b1 07       	cpc	r27, r17
    2332:	d9 f7       	brne	.-10     	; 0x232a <__do_copy_data+0xc>

00002334 <__do_clear_bss>:
    2334:	25 e0       	ldi	r18, 0x05	; 5
    2336:	a6 ec       	ldi	r26, 0xC6	; 198
    2338:	b1 e0       	ldi	r27, 0x01	; 1
    233a:	01 c0       	rjmp	.+2      	; 0x233e <.do_clear_bss_start>

0000233c <.do_clear_bss_loop>:
    233c:	1d 92       	st	X+, r1

0000233e <.do_clear_bss_start>:
    233e:	a5 3b       	cpi	r26, 0xB5	; 181
    2340:	b2 07       	cpc	r27, r18
    2342:	e1 f7       	brne	.-8      	; 0x233c <.do_clear_bss_loop>
    2344:	0e 94 05 19 	call	0x320a	; 0x320a <main>
    2348:	0c 94 ca 3f 	jmp	0x7f94	; 0x7f94 <_exit>

0000234c <__bad_interrupt>:
    234c:	0c 94 00 00 	jmp	0	; 0x0 <__vectors>

00002350 <extract_cmd>:
#endif

//------------------------------------------------------------------------------
//Commando auswerten
unsigned char extract_cmd (char *string_pointer)
{
    2350:	0f 93       	push	r16
    2352:	1f 93       	push	r17
    2354:	cf 93       	push	r28
    2356:	df 93       	push	r29
    2358:	00 d0       	rcall	.+0      	; 0x235a <extract_cmd+0xa>
    235a:	00 d0       	rcall	.+0      	; 0x235c <extract_cmd+0xc>
    235c:	00 d0       	rcall	.+0      	; 0x235e <extract_cmd+0xe>
    235e:	cd b7       	in	r28, 0x3d	; 61
    2360:	de b7       	in	r29, 0x3e	; 62
    2362:	9e 83       	std	Y+6, r25	; 0x06
    2364:	8d 83       	std	Y+5, r24	; 0x05
	//Stringzeiger;
	char *string_pointer_tmp;
	unsigned char cmd_index = 0;
    2366:	19 82       	std	Y+1, r1	; 0x01
 
    string_pointer_tmp = strsep(&string_pointer," "); 
    2368:	ce 01       	movw	r24, r28
    236a:	05 96       	adiw	r24, 0x05	; 5
    236c:	66 e4       	ldi	r22, 0x46	; 70
    236e:	71 e0       	ldi	r23, 0x01	; 1
    2370:	0e 94 f1 3e 	call	0x7de2	; 0x7de2 <strsep>
    2374:	9c 83       	std	Y+4, r25	; 0x04
    2376:	8b 83       	std	Y+3, r24	; 0x03

	//Kommando in Tabelle suchen
	while(strcasecmp(COMMAND_TABELLE[cmd_index].cmd,string_pointer_tmp))
    2378:	13 c0       	rjmp	.+38     	; 0x23a0 <extract_cmd+0x50>
    {
        //Abruch Whileschleife und Unterprogramm verlassen 
        if (COMMAND_TABELLE[++cmd_index].cmd == 0) return(0);
    237a:	89 81       	ldd	r24, Y+1	; 0x01
    237c:	8f 5f       	subi	r24, 0xFF	; 255
    237e:	89 83       	std	Y+1, r24	; 0x01
    2380:	89 81       	ldd	r24, Y+1	; 0x01
    2382:	88 2f       	mov	r24, r24
    2384:	90 e0       	ldi	r25, 0x00	; 0
    2386:	88 0f       	add	r24, r24
    2388:	99 1f       	adc	r25, r25
    238a:	88 0f       	add	r24, r24
    238c:	99 1f       	adc	r25, r25
    238e:	80 5a       	subi	r24, 0xA0	; 160
    2390:	9f 4f       	sbci	r25, 0xFF	; 255
    2392:	fc 01       	movw	r30, r24
    2394:	80 81       	ld	r24, Z
    2396:	91 81       	ldd	r25, Z+1	; 0x01
    2398:	89 2b       	or	r24, r25
    239a:	11 f4       	brne	.+4      	; 0x23a0 <extract_cmd+0x50>
    239c:	80 e0       	ldi	r24, 0x00	; 0
    239e:	48 c0       	rjmp	.+144    	; 0x2430 <extract_cmd+0xe0>
	unsigned char cmd_index = 0;
 
    string_pointer_tmp = strsep(&string_pointer," "); 

	//Kommando in Tabelle suchen
	while(strcasecmp(COMMAND_TABELLE[cmd_index].cmd,string_pointer_tmp))
    23a0:	89 81       	ldd	r24, Y+1	; 0x01
    23a2:	88 2f       	mov	r24, r24
    23a4:	90 e0       	ldi	r25, 0x00	; 0
    23a6:	88 0f       	add	r24, r24
    23a8:	99 1f       	adc	r25, r25
    23aa:	88 0f       	add	r24, r24
    23ac:	99 1f       	adc	r25, r25
    23ae:	80 5a       	subi	r24, 0xA0	; 160
    23b0:	9f 4f       	sbci	r25, 0xFF	; 255
    23b2:	fc 01       	movw	r30, r24
    23b4:	80 81       	ld	r24, Z
    23b6:	91 81       	ldd	r25, Z+1	; 0x01
    23b8:	2b 81       	ldd	r18, Y+3	; 0x03
    23ba:	3c 81       	ldd	r19, Y+4	; 0x04
    23bc:	b9 01       	movw	r22, r18
    23be:	0e 94 cc 3e 	call	0x7d98	; 0x7d98 <strcasecmp>
    23c2:	89 2b       	or	r24, r25
    23c4:	d1 f6       	brne	.-76     	; 0x237a <extract_cmd+0x2a>
        //Abruch Whileschleife und Unterprogramm verlassen 
        if (COMMAND_TABELLE[++cmd_index].cmd == 0) return(0);
    }
    
    //Variablen finden und auswerten
	for (unsigned char a = 0; a<MAX_VAR;a++)
    23c6:	1a 82       	std	Y+2, r1	; 0x02
    23c8:	21 c0       	rjmp	.+66     	; 0x240c <extract_cmd+0xbc>
	{ 
        string_pointer_tmp = strsep(&string_pointer,"., ");  
    23ca:	ce 01       	movw	r24, r28
    23cc:	05 96       	adiw	r24, 0x05	; 5
    23ce:	68 e4       	ldi	r22, 0x48	; 72
    23d0:	71 e0       	ldi	r23, 0x01	; 1
    23d2:	0e 94 f1 3e 	call	0x7de2	; 0x7de2 <strsep>
    23d6:	9c 83       	std	Y+4, r25	; 0x04
    23d8:	8b 83       	std	Y+3, r24	; 0x03
		variable[a] = strtol(string_pointer_tmp,NULL,0);
    23da:	8a 81       	ldd	r24, Y+2	; 0x02
    23dc:	08 2f       	mov	r16, r24
    23de:	10 e0       	ldi	r17, 0x00	; 0
    23e0:	8b 81       	ldd	r24, Y+3	; 0x03
    23e2:	9c 81       	ldd	r25, Y+4	; 0x04
    23e4:	40 e0       	ldi	r20, 0x00	; 0
    23e6:	50 e0       	ldi	r21, 0x00	; 0
    23e8:	60 e0       	ldi	r22, 0x00	; 0
    23ea:	70 e0       	ldi	r23, 0x00	; 0
    23ec:	0e 94 94 3d 	call	0x7b28	; 0x7b28 <strtol>
    23f0:	dc 01       	movw	r26, r24
    23f2:	cb 01       	movw	r24, r22
    23f4:	9c 01       	movw	r18, r24
    23f6:	c8 01       	movw	r24, r16
    23f8:	88 0f       	add	r24, r24
    23fa:	99 1f       	adc	r25, r25
    23fc:	88 56       	subi	r24, 0x68	; 104
    23fe:	9d 4f       	sbci	r25, 0xFD	; 253
    2400:	fc 01       	movw	r30, r24
    2402:	31 83       	std	Z+1, r19	; 0x01
    2404:	20 83       	st	Z, r18
        //Abruch Whileschleife und Unterprogramm verlassen 
        if (COMMAND_TABELLE[++cmd_index].cmd == 0) return(0);
    }
    
    //Variablen finden und auswerten
	for (unsigned char a = 0; a<MAX_VAR;a++)
    2406:	8a 81       	ldd	r24, Y+2	; 0x02
    2408:	8f 5f       	subi	r24, 0xFF	; 255
    240a:	8a 83       	std	Y+2, r24	; 0x02
    240c:	8a 81       	ldd	r24, Y+2	; 0x02
    240e:	8a 30       	cpi	r24, 0x0A	; 10
    2410:	e0 f2       	brcs	.-72     	; 0x23ca <extract_cmd+0x7a>
        string_pointer_tmp = strsep(&string_pointer,"., ");  
		variable[a] = strtol(string_pointer_tmp,NULL,0);
	}

    //Kommando ausfhren
	COMMAND_TABELLE[cmd_index].fp();
    2412:	89 81       	ldd	r24, Y+1	; 0x01
    2414:	88 2f       	mov	r24, r24
    2416:	90 e0       	ldi	r25, 0x00	; 0
    2418:	88 0f       	add	r24, r24
    241a:	99 1f       	adc	r25, r25
    241c:	88 0f       	add	r24, r24
    241e:	99 1f       	adc	r25, r25
    2420:	8e 59       	subi	r24, 0x9E	; 158
    2422:	9f 4f       	sbci	r25, 0xFF	; 255
    2424:	fc 01       	movw	r30, r24
    2426:	80 81       	ld	r24, Z
    2428:	91 81       	ldd	r25, Z+1	; 0x01
    242a:	fc 01       	movw	r30, r24
    242c:	09 95       	icall
	return(1); 
    242e:	81 e0       	ldi	r24, 0x01	; 1
}
    2430:	26 96       	adiw	r28, 0x06	; 6
    2432:	0f b6       	in	r0, 0x3f	; 63
    2434:	f8 94       	cli
    2436:	de bf       	out	0x3e, r29	; 62
    2438:	0f be       	out	0x3f, r0	; 63
    243a:	cd bf       	out	0x3d, r28	; 61
    243c:	df 91       	pop	r29
    243e:	cf 91       	pop	r28
    2440:	1f 91       	pop	r17
    2442:	0f 91       	pop	r16
    2444:	08 95       	ret

00002446 <command_reset>:

//------------------------------------------------------------------------------
//Reset ausfhren
void command_reset (void)
{
    2446:	cf 93       	push	r28
    2448:	df 93       	push	r29
    244a:	cd b7       	in	r28, 0x3d	; 61
    244c:	de b7       	in	r29, 0x3e	; 62
	RESET();
    244e:	e0 e0       	ldi	r30, 0x00	; 0
    2450:	f0 e0       	ldi	r31, 0x00	; 0
    2452:	09 94       	ijmp
}
    2454:	df 91       	pop	r29
    2456:	cf 91       	pop	r28
    2458:	08 95       	ret

0000245a <command_ip>:

//------------------------------------------------------------------------------
//print/edit own IP
void command_ip (void)
{
    245a:	0f 93       	push	r16
    245c:	1f 93       	push	r17
    245e:	cf 93       	push	r28
    2460:	df 93       	push	r29
    2462:	cd b7       	in	r28, 0x3d	; 61
    2464:	de b7       	in	r29, 0x3e	; 62
	write_eeprom_ip(IP_EEPROM_STORE);
    2466:	8e e1       	ldi	r24, 0x1E	; 30
    2468:	90 e0       	ldi	r25, 0x00	; 0
    246a:	0e 94 a0 12 	call	0x2540	; 0x2540 <write_eeprom_ip>
	(*((unsigned long*)&myip[0])) = get_eeprom_value(IP_EEPROM_STORE,MYIP);
    246e:	0e e9       	ldi	r16, 0x9E	; 158
    2470:	15 e0       	ldi	r17, 0x05	; 5
    2472:	40 ec       	ldi	r20, 0xC0	; 192
    2474:	58 ea       	ldi	r21, 0xA8	; 168
    2476:	61 e0       	ldi	r22, 0x01	; 1
    2478:	73 e6       	ldi	r23, 0x63	; 99
    247a:	8e e1       	ldi	r24, 0x1E	; 30
    247c:	90 e0       	ldi	r25, 0x00	; 0
    247e:	0e 94 60 22 	call	0x44c0	; 0x44c0 <get_eeprom_value>
    2482:	dc 01       	movw	r26, r24
    2484:	cb 01       	movw	r24, r22
    2486:	f8 01       	movw	r30, r16
    2488:	80 83       	st	Z, r24
    248a:	91 83       	std	Z+1, r25	; 0x01
    248c:	a2 83       	std	Z+2, r26	; 0x02
    248e:	b3 83       	std	Z+3, r27	; 0x03
	usart_write("My IP: %1i.%1i.%1i.%1i\r\n",myip[0],myip[1],myip[2],myip[3]);
    2490:	80 91 a1 05 	lds	r24, 0x05A1	; 0x8005a1 <myip+0x3>
    2494:	e8 2f       	mov	r30, r24
    2496:	f0 e0       	ldi	r31, 0x00	; 0
    2498:	80 91 a0 05 	lds	r24, 0x05A0	; 0x8005a0 <myip+0x2>
    249c:	68 2f       	mov	r22, r24
    249e:	70 e0       	ldi	r23, 0x00	; 0
    24a0:	80 91 9f 05 	lds	r24, 0x059F	; 0x80059f <myip+0x1>
    24a4:	48 2f       	mov	r20, r24
    24a6:	50 e0       	ldi	r21, 0x00	; 0
    24a8:	80 91 9e 05 	lds	r24, 0x059E	; 0x80059e <myip>
    24ac:	28 2f       	mov	r18, r24
    24ae:	30 e0       	ldi	r19, 0x00	; 0
    24b0:	88 ee       	ldi	r24, 0xE8	; 232
    24b2:	91 e0       	ldi	r25, 0x01	; 1
    24b4:	af 2f       	mov	r26, r31
    24b6:	af 93       	push	r26
    24b8:	ef 93       	push	r30
    24ba:	e7 2f       	mov	r30, r23
    24bc:	ef 93       	push	r30
    24be:	6f 93       	push	r22
    24c0:	65 2f       	mov	r22, r21
    24c2:	6f 93       	push	r22
    24c4:	4f 93       	push	r20
    24c6:	43 2f       	mov	r20, r19
    24c8:	4f 93       	push	r20
    24ca:	2f 93       	push	r18
    24cc:	29 2f       	mov	r18, r25
    24ce:	2f 93       	push	r18
    24d0:	8f 93       	push	r24
    24d2:	0e 94 31 3a 	call	0x7462	; 0x7462 <usart_write_P>
    24d6:	8d b7       	in	r24, 0x3d	; 61
    24d8:	9e b7       	in	r25, 0x3e	; 62
    24da:	0a 96       	adiw	r24, 0x0a	; 10
    24dc:	0f b6       	in	r0, 0x3f	; 63
    24de:	f8 94       	cli
    24e0:	de bf       	out	0x3e, r29	; 62
    24e2:	0f be       	out	0x3f, r0	; 63
    24e4:	cd bf       	out	0x3d, r28	; 61
	//Broadcast-Adresse berechnen
	(*((unsigned long*)&broadcast_ip[0])) = (((*((unsigned long*)&myip[0])) & (*((unsigned long*)&netmask[0]))) | (~(*((unsigned long*)&netmask[0]))));
    24e6:	6b ea       	ldi	r22, 0xAB	; 171
    24e8:	75 e0       	ldi	r23, 0x05	; 5
    24ea:	8e e9       	ldi	r24, 0x9E	; 158
    24ec:	95 e0       	ldi	r25, 0x05	; 5
    24ee:	fc 01       	movw	r30, r24
    24f0:	20 81       	ld	r18, Z
    24f2:	31 81       	ldd	r19, Z+1	; 0x01
    24f4:	42 81       	ldd	r20, Z+2	; 0x02
    24f6:	53 81       	ldd	r21, Z+3	; 0x03
    24f8:	86 ea       	ldi	r24, 0xA6	; 166
    24fa:	95 e0       	ldi	r25, 0x05	; 5
    24fc:	fc 01       	movw	r30, r24
    24fe:	80 81       	ld	r24, Z
    2500:	91 81       	ldd	r25, Z+1	; 0x01
    2502:	a2 81       	ldd	r26, Z+2	; 0x02
    2504:	b3 81       	ldd	r27, Z+3	; 0x03
    2506:	28 23       	and	r18, r24
    2508:	39 23       	and	r19, r25
    250a:	4a 23       	and	r20, r26
    250c:	5b 23       	and	r21, r27
    250e:	86 ea       	ldi	r24, 0xA6	; 166
    2510:	95 e0       	ldi	r25, 0x05	; 5
    2512:	fc 01       	movw	r30, r24
    2514:	80 81       	ld	r24, Z
    2516:	91 81       	ldd	r25, Z+1	; 0x01
    2518:	a2 81       	ldd	r26, Z+2	; 0x02
    251a:	b3 81       	ldd	r27, Z+3	; 0x03
    251c:	80 95       	com	r24
    251e:	90 95       	com	r25
    2520:	a0 95       	com	r26
    2522:	b0 95       	com	r27
    2524:	82 2b       	or	r24, r18
    2526:	93 2b       	or	r25, r19
    2528:	a4 2b       	or	r26, r20
    252a:	b5 2b       	or	r27, r21
    252c:	fb 01       	movw	r30, r22
    252e:	80 83       	st	Z, r24
    2530:	91 83       	std	Z+1, r25	; 0x01
    2532:	a2 83       	std	Z+2, r26	; 0x02
    2534:	b3 83       	std	Z+3, r27	; 0x03

}
    2536:	df 91       	pop	r29
    2538:	cf 91       	pop	r28
    253a:	1f 91       	pop	r17
    253c:	0f 91       	pop	r16
    253e:	08 95       	ret

00002540 <write_eeprom_ip>:

//------------------------------------------------------------------------------
//
void write_eeprom_ip (unsigned int eeprom_adresse)
{
    2540:	cf 93       	push	r28
    2542:	df 93       	push	r29
    2544:	00 d0       	rcall	.+0      	; 0x2546 <write_eeprom_ip+0x6>
    2546:	1f 92       	push	r1
    2548:	cd b7       	in	r28, 0x3d	; 61
    254a:	de b7       	in	r29, 0x3e	; 62
    254c:	9b 83       	std	Y+3, r25	; 0x03
    254e:	8a 83       	std	Y+2, r24	; 0x02
	if (*((unsigned int*)&variable[0]) != 0x00000000)
    2550:	88 e9       	ldi	r24, 0x98	; 152
    2552:	92 e0       	ldi	r25, 0x02	; 2
    2554:	fc 01       	movw	r30, r24
    2556:	80 81       	ld	r24, Z
    2558:	91 81       	ldd	r25, Z+1	; 0x01
    255a:	89 2b       	or	r24, r25
    255c:	39 f1       	breq	.+78     	; 0x25ac <write_eeprom_ip+0x6c>
	{	
		//value ins EEPROM schreiben
		for (unsigned char count = 0; count<4;count++)
    255e:	19 82       	std	Y+1, r1	; 0x01
    2560:	22 c0       	rjmp	.+68     	; 0x25a6 <write_eeprom_ip+0x66>
		{
			eeprom_busy_wait ();
    2562:	8c e3       	ldi	r24, 0x3C	; 60
    2564:	90 e0       	ldi	r25, 0x00	; 0
    2566:	fc 01       	movw	r30, r24
    2568:	80 81       	ld	r24, Z
    256a:	88 2f       	mov	r24, r24
    256c:	90 e0       	ldi	r25, 0x00	; 0
    256e:	82 70       	andi	r24, 0x02	; 2
    2570:	99 27       	eor	r25, r25
    2572:	89 2b       	or	r24, r25
    2574:	b1 f7       	brne	.-20     	; 0x2562 <write_eeprom_ip+0x22>
			eeprom_write_byte((unsigned char *)(eeprom_adresse + count),variable[count]);
    2576:	89 81       	ldd	r24, Y+1	; 0x01
    2578:	88 2f       	mov	r24, r24
    257a:	90 e0       	ldi	r25, 0x00	; 0
    257c:	88 0f       	add	r24, r24
    257e:	99 1f       	adc	r25, r25
    2580:	88 56       	subi	r24, 0x68	; 104
    2582:	9d 4f       	sbci	r25, 0xFD	; 253
    2584:	fc 01       	movw	r30, r24
    2586:	80 81       	ld	r24, Z
    2588:	91 81       	ldd	r25, Z+1	; 0x01
    258a:	48 2f       	mov	r20, r24
    258c:	89 81       	ldd	r24, Y+1	; 0x01
    258e:	28 2f       	mov	r18, r24
    2590:	30 e0       	ldi	r19, 0x00	; 0
    2592:	8a 81       	ldd	r24, Y+2	; 0x02
    2594:	9b 81       	ldd	r25, Y+3	; 0x03
    2596:	82 0f       	add	r24, r18
    2598:	93 1f       	adc	r25, r19
    259a:	64 2f       	mov	r22, r20
    259c:	0e 94 5c 3f 	call	0x7eb8	; 0x7eb8 <eeprom_write_byte>
void write_eeprom_ip (unsigned int eeprom_adresse)
{
	if (*((unsigned int*)&variable[0]) != 0x00000000)
	{	
		//value ins EEPROM schreiben
		for (unsigned char count = 0; count<4;count++)
    25a0:	89 81       	ldd	r24, Y+1	; 0x01
    25a2:	8f 5f       	subi	r24, 0xFF	; 255
    25a4:	89 83       	std	Y+1, r24	; 0x01
    25a6:	89 81       	ldd	r24, Y+1	; 0x01
    25a8:	84 30       	cpi	r24, 0x04	; 4
    25aa:	d8 f2       	brcs	.-74     	; 0x2562 <write_eeprom_ip+0x22>
		{
			eeprom_busy_wait ();
			eeprom_write_byte((unsigned char *)(eeprom_adresse + count),variable[count]);
		}
	}
}
    25ac:	0f 90       	pop	r0
    25ae:	0f 90       	pop	r0
    25b0:	0f 90       	pop	r0
    25b2:	df 91       	pop	r29
    25b4:	cf 91       	pop	r28
    25b6:	08 95       	ret

000025b8 <command_ntp>:

//------------------------------------------------------------------------------
//print/edit NTP Server IP
void command_ntp (void)
{
    25b8:	cf 93       	push	r28
    25ba:	df 93       	push	r29
    25bc:	cd b7       	in	r28, 0x3d	; 61
    25be:	de b7       	in	r29, 0x3e	; 62
	#if USE_NTP
	write_eeprom_ip(NTP_IP_EEPROM_STORE);
	(*((unsigned long*)&ntp_server_ip[0])) = get_eeprom_value(NTP_IP_EEPROM_STORE,NTP_IP);
	usart_write("NTP_Server: %1i.%1i.%1i.%1i\r\n",ntp_server_ip[0],ntp_server_ip[1],ntp_server_ip[2],ntp_server_ip[3]);
	#endif //USE_NTP
}
    25c0:	df 91       	pop	r29
    25c2:	cf 91       	pop	r28
    25c4:	08 95       	ret

000025c6 <command_net>:

//------------------------------------------------------------------------------
//print/edit Netmask
void command_net (void)
{
    25c6:	0f 93       	push	r16
    25c8:	1f 93       	push	r17
    25ca:	cf 93       	push	r28
    25cc:	df 93       	push	r29
    25ce:	cd b7       	in	r28, 0x3d	; 61
    25d0:	de b7       	in	r29, 0x3e	; 62
	write_eeprom_ip(NETMASK_EEPROM_STORE);
    25d2:	82 e2       	ldi	r24, 0x22	; 34
    25d4:	90 e0       	ldi	r25, 0x00	; 0
    25d6:	0e 94 a0 12 	call	0x2540	; 0x2540 <write_eeprom_ip>
	(*((unsigned long*)&netmask[0])) = get_eeprom_value(NETMASK_EEPROM_STORE,NETMASK);
    25da:	06 ea       	ldi	r16, 0xA6	; 166
    25dc:	15 e0       	ldi	r17, 0x05	; 5
    25de:	4f ef       	ldi	r20, 0xFF	; 255
    25e0:	5f ef       	ldi	r21, 0xFF	; 255
    25e2:	6f ef       	ldi	r22, 0xFF	; 255
    25e4:	70 e0       	ldi	r23, 0x00	; 0
    25e6:	82 e2       	ldi	r24, 0x22	; 34
    25e8:	90 e0       	ldi	r25, 0x00	; 0
    25ea:	0e 94 60 22 	call	0x44c0	; 0x44c0 <get_eeprom_value>
    25ee:	dc 01       	movw	r26, r24
    25f0:	cb 01       	movw	r24, r22
    25f2:	f8 01       	movw	r30, r16
    25f4:	80 83       	st	Z, r24
    25f6:	91 83       	std	Z+1, r25	; 0x01
    25f8:	a2 83       	std	Z+2, r26	; 0x02
    25fa:	b3 83       	std	Z+3, r27	; 0x03
	usart_write("NETMASK: %1i.%1i.%1i.%1i\r\n",netmask[0],netmask[1],netmask[2],netmask[3]);
    25fc:	80 91 a9 05 	lds	r24, 0x05A9	; 0x8005a9 <netmask+0x3>
    2600:	e8 2f       	mov	r30, r24
    2602:	f0 e0       	ldi	r31, 0x00	; 0
    2604:	80 91 a8 05 	lds	r24, 0x05A8	; 0x8005a8 <netmask+0x2>
    2608:	68 2f       	mov	r22, r24
    260a:	70 e0       	ldi	r23, 0x00	; 0
    260c:	80 91 a7 05 	lds	r24, 0x05A7	; 0x8005a7 <netmask+0x1>
    2610:	48 2f       	mov	r20, r24
    2612:	50 e0       	ldi	r21, 0x00	; 0
    2614:	80 91 a6 05 	lds	r24, 0x05A6	; 0x8005a6 <netmask>
    2618:	28 2f       	mov	r18, r24
    261a:	30 e0       	ldi	r19, 0x00	; 0
    261c:	81 e0       	ldi	r24, 0x01	; 1
    261e:	92 e0       	ldi	r25, 0x02	; 2
    2620:	af 2f       	mov	r26, r31
    2622:	af 93       	push	r26
    2624:	ef 93       	push	r30
    2626:	e7 2f       	mov	r30, r23
    2628:	ef 93       	push	r30
    262a:	6f 93       	push	r22
    262c:	65 2f       	mov	r22, r21
    262e:	6f 93       	push	r22
    2630:	4f 93       	push	r20
    2632:	43 2f       	mov	r20, r19
    2634:	4f 93       	push	r20
    2636:	2f 93       	push	r18
    2638:	29 2f       	mov	r18, r25
    263a:	2f 93       	push	r18
    263c:	8f 93       	push	r24
    263e:	0e 94 31 3a 	call	0x7462	; 0x7462 <usart_write_P>
    2642:	8d b7       	in	r24, 0x3d	; 61
    2644:	9e b7       	in	r25, 0x3e	; 62
    2646:	0a 96       	adiw	r24, 0x0a	; 10
    2648:	0f b6       	in	r0, 0x3f	; 63
    264a:	f8 94       	cli
    264c:	de bf       	out	0x3e, r29	; 62
    264e:	0f be       	out	0x3f, r0	; 63
    2650:	cd bf       	out	0x3d, r28	; 61
	//Broadcast-Adresse berechnen
    (*((unsigned long*)&broadcast_ip[0])) = (((*((unsigned long*)&myip[0])) & (*((unsigned long*)&netmask[0]))) | (~(*((unsigned long*)&netmask[0]))));
    2652:	6b ea       	ldi	r22, 0xAB	; 171
    2654:	75 e0       	ldi	r23, 0x05	; 5
    2656:	8e e9       	ldi	r24, 0x9E	; 158
    2658:	95 e0       	ldi	r25, 0x05	; 5
    265a:	fc 01       	movw	r30, r24
    265c:	20 81       	ld	r18, Z
    265e:	31 81       	ldd	r19, Z+1	; 0x01
    2660:	42 81       	ldd	r20, Z+2	; 0x02
    2662:	53 81       	ldd	r21, Z+3	; 0x03
    2664:	86 ea       	ldi	r24, 0xA6	; 166
    2666:	95 e0       	ldi	r25, 0x05	; 5
    2668:	fc 01       	movw	r30, r24
    266a:	80 81       	ld	r24, Z
    266c:	91 81       	ldd	r25, Z+1	; 0x01
    266e:	a2 81       	ldd	r26, Z+2	; 0x02
    2670:	b3 81       	ldd	r27, Z+3	; 0x03
    2672:	28 23       	and	r18, r24
    2674:	39 23       	and	r19, r25
    2676:	4a 23       	and	r20, r26
    2678:	5b 23       	and	r21, r27
    267a:	86 ea       	ldi	r24, 0xA6	; 166
    267c:	95 e0       	ldi	r25, 0x05	; 5
    267e:	fc 01       	movw	r30, r24
    2680:	80 81       	ld	r24, Z
    2682:	91 81       	ldd	r25, Z+1	; 0x01
    2684:	a2 81       	ldd	r26, Z+2	; 0x02
    2686:	b3 81       	ldd	r27, Z+3	; 0x03
    2688:	80 95       	com	r24
    268a:	90 95       	com	r25
    268c:	a0 95       	com	r26
    268e:	b0 95       	com	r27
    2690:	82 2b       	or	r24, r18
    2692:	93 2b       	or	r25, r19
    2694:	a4 2b       	or	r26, r20
    2696:	b5 2b       	or	r27, r21
    2698:	fb 01       	movw	r30, r22
    269a:	80 83       	st	Z, r24
    269c:	91 83       	std	Z+1, r25	; 0x01
    269e:	a2 83       	std	Z+2, r26	; 0x02
    26a0:	b3 83       	std	Z+3, r27	; 0x03
}
    26a2:	df 91       	pop	r29
    26a4:	cf 91       	pop	r28
    26a6:	1f 91       	pop	r17
    26a8:	0f 91       	pop	r16
    26aa:	08 95       	ret

000026ac <command_router>:

//------------------------------------------------------------------------------
//print/edit Router IP
void command_router (void)
{
    26ac:	0f 93       	push	r16
    26ae:	1f 93       	push	r17
    26b0:	cf 93       	push	r28
    26b2:	df 93       	push	r29
    26b4:	cd b7       	in	r28, 0x3d	; 61
    26b6:	de b7       	in	r29, 0x3e	; 62
	write_eeprom_ip(ROUTER_IP_EEPROM_STORE);
    26b8:	86 e2       	ldi	r24, 0x26	; 38
    26ba:	90 e0       	ldi	r25, 0x00	; 0
    26bc:	0e 94 a0 12 	call	0x2540	; 0x2540 <write_eeprom_ip>
	(*((unsigned long*)&router_ip[0])) = get_eeprom_value(ROUTER_IP_EEPROM_STORE,ROUTER_IP);
    26c0:	02 ea       	ldi	r16, 0xA2	; 162
    26c2:	15 e0       	ldi	r17, 0x05	; 5
    26c4:	40 ec       	ldi	r20, 0xC0	; 192
    26c6:	58 ea       	ldi	r21, 0xA8	; 168
    26c8:	61 e0       	ldi	r22, 0x01	; 1
    26ca:	71 e0       	ldi	r23, 0x01	; 1
    26cc:	86 e2       	ldi	r24, 0x26	; 38
    26ce:	90 e0       	ldi	r25, 0x00	; 0
    26d0:	0e 94 60 22 	call	0x44c0	; 0x44c0 <get_eeprom_value>
    26d4:	dc 01       	movw	r26, r24
    26d6:	cb 01       	movw	r24, r22
    26d8:	f8 01       	movw	r30, r16
    26da:	80 83       	st	Z, r24
    26dc:	91 83       	std	Z+1, r25	; 0x01
    26de:	a2 83       	std	Z+2, r26	; 0x02
    26e0:	b3 83       	std	Z+3, r27	; 0x03
	usart_write("Router IP: %1i.%1i.%1i.%1i\r\n",router_ip[0],router_ip[1],router_ip[2],router_ip[3]);
    26e2:	80 91 a5 05 	lds	r24, 0x05A5	; 0x8005a5 <router_ip+0x3>
    26e6:	e8 2f       	mov	r30, r24
    26e8:	f0 e0       	ldi	r31, 0x00	; 0
    26ea:	80 91 a4 05 	lds	r24, 0x05A4	; 0x8005a4 <router_ip+0x2>
    26ee:	68 2f       	mov	r22, r24
    26f0:	70 e0       	ldi	r23, 0x00	; 0
    26f2:	80 91 a3 05 	lds	r24, 0x05A3	; 0x8005a3 <router_ip+0x1>
    26f6:	48 2f       	mov	r20, r24
    26f8:	50 e0       	ldi	r21, 0x00	; 0
    26fa:	80 91 a2 05 	lds	r24, 0x05A2	; 0x8005a2 <router_ip>
    26fe:	28 2f       	mov	r18, r24
    2700:	30 e0       	ldi	r19, 0x00	; 0
    2702:	8c e1       	ldi	r24, 0x1C	; 28
    2704:	92 e0       	ldi	r25, 0x02	; 2
    2706:	af 2f       	mov	r26, r31
    2708:	af 93       	push	r26
    270a:	ef 93       	push	r30
    270c:	e7 2f       	mov	r30, r23
    270e:	ef 93       	push	r30
    2710:	6f 93       	push	r22
    2712:	65 2f       	mov	r22, r21
    2714:	6f 93       	push	r22
    2716:	4f 93       	push	r20
    2718:	43 2f       	mov	r20, r19
    271a:	4f 93       	push	r20
    271c:	2f 93       	push	r18
    271e:	29 2f       	mov	r18, r25
    2720:	2f 93       	push	r18
    2722:	8f 93       	push	r24
    2724:	0e 94 31 3a 	call	0x7462	; 0x7462 <usart_write_P>
    2728:	8d b7       	in	r24, 0x3d	; 61
    272a:	9e b7       	in	r25, 0x3e	; 62
    272c:	0a 96       	adiw	r24, 0x0a	; 10
    272e:	0f b6       	in	r0, 0x3f	; 63
    2730:	f8 94       	cli
    2732:	de bf       	out	0x3e, r29	; 62
    2734:	0f be       	out	0x3f, r0	; 63
    2736:	cd bf       	out	0x3d, r28	; 61
}
    2738:	df 91       	pop	r29
    273a:	cf 91       	pop	r28
    273c:	1f 91       	pop	r17
    273e:	0f 91       	pop	r16
    2740:	08 95       	ret

00002742 <command_mac>:

//------------------------------------------------------------------------------
//print own mac
void command_mac (void)
{
    2742:	ff 92       	push	r15
    2744:	0f 93       	push	r16
    2746:	1f 93       	push	r17
    2748:	cf 93       	push	r28
    274a:	df 93       	push	r29
    274c:	cd b7       	in	r28, 0x3d	; 61
    274e:	de b7       	in	r29, 0x3e	; 62
	usart_write("My MAC: %2x:%2x:%2x:%2x:%2x:%2x\r\n",mymac[0],mymac[1],mymac[2],mymac[3],mymac[4],mymac[5]);
    2750:	80 91 3c 03 	lds	r24, 0x033C	; 0x80033c <mymac+0x5>
    2754:	08 2f       	mov	r16, r24
    2756:	10 e0       	ldi	r17, 0x00	; 0
    2758:	80 91 3b 03 	lds	r24, 0x033B	; 0x80033b <mymac+0x4>
    275c:	a8 2f       	mov	r26, r24
    275e:	b0 e0       	ldi	r27, 0x00	; 0
    2760:	80 91 3a 03 	lds	r24, 0x033A	; 0x80033a <mymac+0x3>
    2764:	e8 2f       	mov	r30, r24
    2766:	f0 e0       	ldi	r31, 0x00	; 0
    2768:	80 91 39 03 	lds	r24, 0x0339	; 0x800339 <mymac+0x2>
    276c:	68 2f       	mov	r22, r24
    276e:	70 e0       	ldi	r23, 0x00	; 0
    2770:	80 91 38 03 	lds	r24, 0x0338	; 0x800338 <mymac+0x1>
    2774:	48 2f       	mov	r20, r24
    2776:	50 e0       	ldi	r21, 0x00	; 0
    2778:	80 91 37 03 	lds	r24, 0x0337	; 0x800337 <mymac>
    277c:	28 2f       	mov	r18, r24
    277e:	30 e0       	ldi	r19, 0x00	; 0
    2780:	89 e3       	ldi	r24, 0x39	; 57
    2782:	92 e0       	ldi	r25, 0x02	; 2
    2784:	f1 2e       	mov	r15, r17
    2786:	ff 92       	push	r15
    2788:	10 2f       	mov	r17, r16
    278a:	1f 93       	push	r17
    278c:	1b 2f       	mov	r17, r27
    278e:	1f 93       	push	r17
    2790:	af 93       	push	r26
    2792:	af 2f       	mov	r26, r31
    2794:	af 93       	push	r26
    2796:	ef 93       	push	r30
    2798:	e7 2f       	mov	r30, r23
    279a:	ef 93       	push	r30
    279c:	6f 93       	push	r22
    279e:	65 2f       	mov	r22, r21
    27a0:	6f 93       	push	r22
    27a2:	4f 93       	push	r20
    27a4:	43 2f       	mov	r20, r19
    27a6:	4f 93       	push	r20
    27a8:	2f 93       	push	r18
    27aa:	29 2f       	mov	r18, r25
    27ac:	2f 93       	push	r18
    27ae:	8f 93       	push	r24
    27b0:	0e 94 31 3a 	call	0x7462	; 0x7462 <usart_write_P>
    27b4:	8d b7       	in	r24, 0x3d	; 61
    27b6:	9e b7       	in	r25, 0x3e	; 62
    27b8:	0e 96       	adiw	r24, 0x0e	; 14
    27ba:	0f b6       	in	r0, 0x3f	; 63
    27bc:	f8 94       	cli
    27be:	de bf       	out	0x3e, r29	; 62
    27c0:	0f be       	out	0x3f, r0	; 63
    27c2:	cd bf       	out	0x3d, r28	; 61
}
    27c4:	df 91       	pop	r29
    27c6:	cf 91       	pop	r28
    27c8:	1f 91       	pop	r17
    27ca:	0f 91       	pop	r16
    27cc:	ff 90       	pop	r15
    27ce:	08 95       	ret

000027d0 <command_ver>:

//------------------------------------------------------------------------------
//print enc28j60 chip version
void command_ver (void)
{
    27d0:	cf 93       	push	r28
    27d2:	df 93       	push	r29
    27d4:	cd b7       	in	r28, 0x3d	; 61
    27d6:	de b7       	in	r29, 0x3e	; 62
#if USE_ENC28J60
	usart_write("ENC28J60-Version: %1x\r\n", enc28j60_revision);
    27d8:	80 91 c6 01 	lds	r24, 0x01C6	; 0x8001c6 <__data_end>
    27dc:	28 2f       	mov	r18, r24
    27de:	30 e0       	ldi	r19, 0x00	; 0
    27e0:	8b e5       	ldi	r24, 0x5B	; 91
    27e2:	92 e0       	ldi	r25, 0x02	; 2
    27e4:	43 2f       	mov	r20, r19
    27e6:	4f 93       	push	r20
    27e8:	2f 93       	push	r18
    27ea:	29 2f       	mov	r18, r25
    27ec:	2f 93       	push	r18
    27ee:	8f 93       	push	r24
    27f0:	0e 94 31 3a 	call	0x7462	; 0x7462 <usart_write_P>
    27f4:	0f 90       	pop	r0
    27f6:	0f 90       	pop	r0
    27f8:	0f 90       	pop	r0
    27fa:	0f 90       	pop	r0
#endif

#if USE_RTL8019
	usart_write("RTL8019 Ethernetcard\r\n");
#endif
}
    27fc:	df 91       	pop	r29
    27fe:	cf 91       	pop	r28
    2800:	08 95       	ret

00002802 <command_arp>:

//------------------------------------------------------------------------------
//print ARP table
void command_arp (void)
{
    2802:	cf 93       	push	r28
    2804:	df 93       	push	r29
    2806:	1f 92       	push	r1
    2808:	cd b7       	in	r28, 0x3d	; 61
    280a:	de b7       	in	r29, 0x3e	; 62
	for (unsigned char index = 0;index<MAX_ARP_ENTRY;index++)
    280c:	19 82       	std	Y+1, r1	; 0x01
    280e:	9e c1       	rjmp	.+828    	; 0x2b4c <command_arp+0x34a>
	{
		usart_write("%2i  MAC:%2x",index,arp_entry[index].arp_t_mac[0]);
    2810:	89 81       	ldd	r24, Y+1	; 0x01
    2812:	28 2f       	mov	r18, r24
    2814:	30 e0       	ldi	r19, 0x00	; 0
    2816:	c9 01       	movw	r24, r18
    2818:	88 0f       	add	r24, r24
    281a:	99 1f       	adc	r25, r25
    281c:	82 0f       	add	r24, r18
    281e:	93 1f       	adc	r25, r19
    2820:	88 0f       	add	r24, r24
    2822:	99 1f       	adc	r25, r25
    2824:	88 0f       	add	r24, r24
    2826:	99 1f       	adc	r25, r25
    2828:	85 5a       	subi	r24, 0xA5	; 165
    282a:	9d 4f       	sbci	r25, 0xFD	; 253
    282c:	fc 01       	movw	r30, r24
    282e:	80 81       	ld	r24, Z
    2830:	48 2f       	mov	r20, r24
    2832:	50 e0       	ldi	r21, 0x00	; 0
    2834:	89 81       	ldd	r24, Y+1	; 0x01
    2836:	28 2f       	mov	r18, r24
    2838:	30 e0       	ldi	r19, 0x00	; 0
    283a:	83 e7       	ldi	r24, 0x73	; 115
    283c:	92 e0       	ldi	r25, 0x02	; 2
    283e:	65 2f       	mov	r22, r21
    2840:	6f 93       	push	r22
    2842:	4f 93       	push	r20
    2844:	43 2f       	mov	r20, r19
    2846:	4f 93       	push	r20
    2848:	2f 93       	push	r18
    284a:	29 2f       	mov	r18, r25
    284c:	2f 93       	push	r18
    284e:	8f 93       	push	r24
    2850:	0e 94 31 3a 	call	0x7462	; 0x7462 <usart_write_P>
    2854:	0f 90       	pop	r0
    2856:	0f 90       	pop	r0
    2858:	0f 90       	pop	r0
    285a:	0f 90       	pop	r0
    285c:	0f 90       	pop	r0
    285e:	0f 90       	pop	r0
		usart_write(".%2x",arp_entry[index].arp_t_mac[1]);
    2860:	89 81       	ldd	r24, Y+1	; 0x01
    2862:	28 2f       	mov	r18, r24
    2864:	30 e0       	ldi	r19, 0x00	; 0
    2866:	c9 01       	movw	r24, r18
    2868:	88 0f       	add	r24, r24
    286a:	99 1f       	adc	r25, r25
    286c:	82 0f       	add	r24, r18
    286e:	93 1f       	adc	r25, r19
    2870:	88 0f       	add	r24, r24
    2872:	99 1f       	adc	r25, r25
    2874:	88 0f       	add	r24, r24
    2876:	99 1f       	adc	r25, r25
    2878:	84 5a       	subi	r24, 0xA4	; 164
    287a:	9d 4f       	sbci	r25, 0xFD	; 253
    287c:	fc 01       	movw	r30, r24
    287e:	80 81       	ld	r24, Z
    2880:	28 2f       	mov	r18, r24
    2882:	30 e0       	ldi	r19, 0x00	; 0
    2884:	80 e8       	ldi	r24, 0x80	; 128
    2886:	92 e0       	ldi	r25, 0x02	; 2
    2888:	43 2f       	mov	r20, r19
    288a:	4f 93       	push	r20
    288c:	2f 93       	push	r18
    288e:	29 2f       	mov	r18, r25
    2890:	2f 93       	push	r18
    2892:	8f 93       	push	r24
    2894:	0e 94 31 3a 	call	0x7462	; 0x7462 <usart_write_P>
    2898:	0f 90       	pop	r0
    289a:	0f 90       	pop	r0
    289c:	0f 90       	pop	r0
    289e:	0f 90       	pop	r0
		usart_write(".%2x",arp_entry[index].arp_t_mac[2]);
    28a0:	89 81       	ldd	r24, Y+1	; 0x01
    28a2:	28 2f       	mov	r18, r24
    28a4:	30 e0       	ldi	r19, 0x00	; 0
    28a6:	c9 01       	movw	r24, r18
    28a8:	88 0f       	add	r24, r24
    28aa:	99 1f       	adc	r25, r25
    28ac:	82 0f       	add	r24, r18
    28ae:	93 1f       	adc	r25, r19
    28b0:	88 0f       	add	r24, r24
    28b2:	99 1f       	adc	r25, r25
    28b4:	88 0f       	add	r24, r24
    28b6:	99 1f       	adc	r25, r25
    28b8:	83 5a       	subi	r24, 0xA3	; 163
    28ba:	9d 4f       	sbci	r25, 0xFD	; 253
    28bc:	fc 01       	movw	r30, r24
    28be:	80 81       	ld	r24, Z
    28c0:	28 2f       	mov	r18, r24
    28c2:	30 e0       	ldi	r19, 0x00	; 0
    28c4:	85 e8       	ldi	r24, 0x85	; 133
    28c6:	92 e0       	ldi	r25, 0x02	; 2
    28c8:	43 2f       	mov	r20, r19
    28ca:	4f 93       	push	r20
    28cc:	2f 93       	push	r18
    28ce:	29 2f       	mov	r18, r25
    28d0:	2f 93       	push	r18
    28d2:	8f 93       	push	r24
    28d4:	0e 94 31 3a 	call	0x7462	; 0x7462 <usart_write_P>
    28d8:	0f 90       	pop	r0
    28da:	0f 90       	pop	r0
    28dc:	0f 90       	pop	r0
    28de:	0f 90       	pop	r0
		usart_write(".%2x",arp_entry[index].arp_t_mac[3]);
    28e0:	89 81       	ldd	r24, Y+1	; 0x01
    28e2:	28 2f       	mov	r18, r24
    28e4:	30 e0       	ldi	r19, 0x00	; 0
    28e6:	c9 01       	movw	r24, r18
    28e8:	88 0f       	add	r24, r24
    28ea:	99 1f       	adc	r25, r25
    28ec:	82 0f       	add	r24, r18
    28ee:	93 1f       	adc	r25, r19
    28f0:	88 0f       	add	r24, r24
    28f2:	99 1f       	adc	r25, r25
    28f4:	88 0f       	add	r24, r24
    28f6:	99 1f       	adc	r25, r25
    28f8:	82 5a       	subi	r24, 0xA2	; 162
    28fa:	9d 4f       	sbci	r25, 0xFD	; 253
    28fc:	fc 01       	movw	r30, r24
    28fe:	80 81       	ld	r24, Z
    2900:	28 2f       	mov	r18, r24
    2902:	30 e0       	ldi	r19, 0x00	; 0
    2904:	8a e8       	ldi	r24, 0x8A	; 138
    2906:	92 e0       	ldi	r25, 0x02	; 2
    2908:	43 2f       	mov	r20, r19
    290a:	4f 93       	push	r20
    290c:	2f 93       	push	r18
    290e:	29 2f       	mov	r18, r25
    2910:	2f 93       	push	r18
    2912:	8f 93       	push	r24
    2914:	0e 94 31 3a 	call	0x7462	; 0x7462 <usart_write_P>
    2918:	0f 90       	pop	r0
    291a:	0f 90       	pop	r0
    291c:	0f 90       	pop	r0
    291e:	0f 90       	pop	r0
		usart_write(".%2x",arp_entry[index].arp_t_mac[4]);
    2920:	89 81       	ldd	r24, Y+1	; 0x01
    2922:	28 2f       	mov	r18, r24
    2924:	30 e0       	ldi	r19, 0x00	; 0
    2926:	c9 01       	movw	r24, r18
    2928:	88 0f       	add	r24, r24
    292a:	99 1f       	adc	r25, r25
    292c:	82 0f       	add	r24, r18
    292e:	93 1f       	adc	r25, r19
    2930:	88 0f       	add	r24, r24
    2932:	99 1f       	adc	r25, r25
    2934:	88 0f       	add	r24, r24
    2936:	99 1f       	adc	r25, r25
    2938:	81 5a       	subi	r24, 0xA1	; 161
    293a:	9d 4f       	sbci	r25, 0xFD	; 253
    293c:	fc 01       	movw	r30, r24
    293e:	80 81       	ld	r24, Z
    2940:	28 2f       	mov	r18, r24
    2942:	30 e0       	ldi	r19, 0x00	; 0
    2944:	8f e8       	ldi	r24, 0x8F	; 143
    2946:	92 e0       	ldi	r25, 0x02	; 2
    2948:	43 2f       	mov	r20, r19
    294a:	4f 93       	push	r20
    294c:	2f 93       	push	r18
    294e:	29 2f       	mov	r18, r25
    2950:	2f 93       	push	r18
    2952:	8f 93       	push	r24
    2954:	0e 94 31 3a 	call	0x7462	; 0x7462 <usart_write_P>
    2958:	0f 90       	pop	r0
    295a:	0f 90       	pop	r0
    295c:	0f 90       	pop	r0
    295e:	0f 90       	pop	r0
		usart_write(".%2x",arp_entry[index].arp_t_mac[5]);
    2960:	89 81       	ldd	r24, Y+1	; 0x01
    2962:	28 2f       	mov	r18, r24
    2964:	30 e0       	ldi	r19, 0x00	; 0
    2966:	c9 01       	movw	r24, r18
    2968:	88 0f       	add	r24, r24
    296a:	99 1f       	adc	r25, r25
    296c:	82 0f       	add	r24, r18
    296e:	93 1f       	adc	r25, r19
    2970:	88 0f       	add	r24, r24
    2972:	99 1f       	adc	r25, r25
    2974:	88 0f       	add	r24, r24
    2976:	99 1f       	adc	r25, r25
    2978:	80 5a       	subi	r24, 0xA0	; 160
    297a:	9d 4f       	sbci	r25, 0xFD	; 253
    297c:	fc 01       	movw	r30, r24
    297e:	80 81       	ld	r24, Z
    2980:	28 2f       	mov	r18, r24
    2982:	30 e0       	ldi	r19, 0x00	; 0
    2984:	84 e9       	ldi	r24, 0x94	; 148
    2986:	92 e0       	ldi	r25, 0x02	; 2
    2988:	43 2f       	mov	r20, r19
    298a:	4f 93       	push	r20
    298c:	2f 93       	push	r18
    298e:	29 2f       	mov	r18, r25
    2990:	2f 93       	push	r18
    2992:	8f 93       	push	r24
    2994:	0e 94 31 3a 	call	0x7462	; 0x7462 <usart_write_P>
    2998:	0f 90       	pop	r0
    299a:	0f 90       	pop	r0
    299c:	0f 90       	pop	r0
    299e:	0f 90       	pop	r0
		
		usart_write("  IP:%3i",(arp_entry[index].arp_t_ip&0x000000FF));
    29a0:	89 81       	ldd	r24, Y+1	; 0x01
    29a2:	28 2f       	mov	r18, r24
    29a4:	30 e0       	ldi	r19, 0x00	; 0
    29a6:	c9 01       	movw	r24, r18
    29a8:	88 0f       	add	r24, r24
    29aa:	99 1f       	adc	r25, r25
    29ac:	82 0f       	add	r24, r18
    29ae:	93 1f       	adc	r25, r19
    29b0:	88 0f       	add	r24, r24
    29b2:	99 1f       	adc	r25, r25
    29b4:	88 0f       	add	r24, r24
    29b6:	99 1f       	adc	r25, r25
    29b8:	8f 59       	subi	r24, 0x9F	; 159
    29ba:	9d 4f       	sbci	r25, 0xFD	; 253
    29bc:	fc 01       	movw	r30, r24
    29be:	80 81       	ld	r24, Z
    29c0:	91 81       	ldd	r25, Z+1	; 0x01
    29c2:	a2 81       	ldd	r26, Z+2	; 0x02
    29c4:	b3 81       	ldd	r27, Z+3	; 0x03
    29c6:	99 27       	eor	r25, r25
    29c8:	aa 27       	eor	r26, r26
    29ca:	bb 27       	eor	r27, r27
    29cc:	29 e9       	ldi	r18, 0x99	; 153
    29ce:	32 e0       	ldi	r19, 0x02	; 2
    29d0:	4b 2f       	mov	r20, r27
    29d2:	4f 93       	push	r20
    29d4:	4a 2f       	mov	r20, r26
    29d6:	4f 93       	push	r20
    29d8:	49 2f       	mov	r20, r25
    29da:	4f 93       	push	r20
    29dc:	8f 93       	push	r24
    29de:	83 2f       	mov	r24, r19
    29e0:	8f 93       	push	r24
    29e2:	82 2f       	mov	r24, r18
    29e4:	8f 93       	push	r24
    29e6:	0e 94 31 3a 	call	0x7462	; 0x7462 <usart_write_P>
    29ea:	0f 90       	pop	r0
    29ec:	0f 90       	pop	r0
    29ee:	0f 90       	pop	r0
    29f0:	0f 90       	pop	r0
    29f2:	0f 90       	pop	r0
    29f4:	0f 90       	pop	r0
		usart_write(".%3i",((arp_entry[index].arp_t_ip&0x0000FF00)>>8));
    29f6:	89 81       	ldd	r24, Y+1	; 0x01
    29f8:	28 2f       	mov	r18, r24
    29fa:	30 e0       	ldi	r19, 0x00	; 0
    29fc:	c9 01       	movw	r24, r18
    29fe:	88 0f       	add	r24, r24
    2a00:	99 1f       	adc	r25, r25
    2a02:	82 0f       	add	r24, r18
    2a04:	93 1f       	adc	r25, r19
    2a06:	88 0f       	add	r24, r24
    2a08:	99 1f       	adc	r25, r25
    2a0a:	88 0f       	add	r24, r24
    2a0c:	99 1f       	adc	r25, r25
    2a0e:	8f 59       	subi	r24, 0x9F	; 159
    2a10:	9d 4f       	sbci	r25, 0xFD	; 253
    2a12:	fc 01       	movw	r30, r24
    2a14:	80 81       	ld	r24, Z
    2a16:	91 81       	ldd	r25, Z+1	; 0x01
    2a18:	a2 81       	ldd	r26, Z+2	; 0x02
    2a1a:	b3 81       	ldd	r27, Z+3	; 0x03
    2a1c:	88 27       	eor	r24, r24
    2a1e:	aa 27       	eor	r26, r26
    2a20:	bb 27       	eor	r27, r27
    2a22:	89 2f       	mov	r24, r25
    2a24:	9a 2f       	mov	r25, r26
    2a26:	ab 2f       	mov	r26, r27
    2a28:	bb 27       	eor	r27, r27
    2a2a:	22 ea       	ldi	r18, 0xA2	; 162
    2a2c:	32 e0       	ldi	r19, 0x02	; 2
    2a2e:	4b 2f       	mov	r20, r27
    2a30:	4f 93       	push	r20
    2a32:	4a 2f       	mov	r20, r26
    2a34:	4f 93       	push	r20
    2a36:	49 2f       	mov	r20, r25
    2a38:	4f 93       	push	r20
    2a3a:	8f 93       	push	r24
    2a3c:	83 2f       	mov	r24, r19
    2a3e:	8f 93       	push	r24
    2a40:	82 2f       	mov	r24, r18
    2a42:	8f 93       	push	r24
    2a44:	0e 94 31 3a 	call	0x7462	; 0x7462 <usart_write_P>
    2a48:	0f 90       	pop	r0
    2a4a:	0f 90       	pop	r0
    2a4c:	0f 90       	pop	r0
    2a4e:	0f 90       	pop	r0
    2a50:	0f 90       	pop	r0
    2a52:	0f 90       	pop	r0
		usart_write(".%3i",((arp_entry[index].arp_t_ip&0x00FF0000)>>16));
    2a54:	89 81       	ldd	r24, Y+1	; 0x01
    2a56:	28 2f       	mov	r18, r24
    2a58:	30 e0       	ldi	r19, 0x00	; 0
    2a5a:	c9 01       	movw	r24, r18
    2a5c:	88 0f       	add	r24, r24
    2a5e:	99 1f       	adc	r25, r25
    2a60:	82 0f       	add	r24, r18
    2a62:	93 1f       	adc	r25, r19
    2a64:	88 0f       	add	r24, r24
    2a66:	99 1f       	adc	r25, r25
    2a68:	88 0f       	add	r24, r24
    2a6a:	99 1f       	adc	r25, r25
    2a6c:	8f 59       	subi	r24, 0x9F	; 159
    2a6e:	9d 4f       	sbci	r25, 0xFD	; 253
    2a70:	fc 01       	movw	r30, r24
    2a72:	80 81       	ld	r24, Z
    2a74:	91 81       	ldd	r25, Z+1	; 0x01
    2a76:	a2 81       	ldd	r26, Z+2	; 0x02
    2a78:	b3 81       	ldd	r27, Z+3	; 0x03
    2a7a:	88 27       	eor	r24, r24
    2a7c:	99 27       	eor	r25, r25
    2a7e:	bb 27       	eor	r27, r27
    2a80:	cd 01       	movw	r24, r26
    2a82:	aa 27       	eor	r26, r26
    2a84:	bb 27       	eor	r27, r27
    2a86:	27 ea       	ldi	r18, 0xA7	; 167
    2a88:	32 e0       	ldi	r19, 0x02	; 2
    2a8a:	4b 2f       	mov	r20, r27
    2a8c:	4f 93       	push	r20
    2a8e:	4a 2f       	mov	r20, r26
    2a90:	4f 93       	push	r20
    2a92:	49 2f       	mov	r20, r25
    2a94:	4f 93       	push	r20
    2a96:	8f 93       	push	r24
    2a98:	83 2f       	mov	r24, r19
    2a9a:	8f 93       	push	r24
    2a9c:	82 2f       	mov	r24, r18
    2a9e:	8f 93       	push	r24
    2aa0:	0e 94 31 3a 	call	0x7462	; 0x7462 <usart_write_P>
    2aa4:	0f 90       	pop	r0
    2aa6:	0f 90       	pop	r0
    2aa8:	0f 90       	pop	r0
    2aaa:	0f 90       	pop	r0
    2aac:	0f 90       	pop	r0
    2aae:	0f 90       	pop	r0
		usart_write(".%3i",((arp_entry[index].arp_t_ip&0xFF000000)>>24));
    2ab0:	89 81       	ldd	r24, Y+1	; 0x01
    2ab2:	28 2f       	mov	r18, r24
    2ab4:	30 e0       	ldi	r19, 0x00	; 0
    2ab6:	c9 01       	movw	r24, r18
    2ab8:	88 0f       	add	r24, r24
    2aba:	99 1f       	adc	r25, r25
    2abc:	82 0f       	add	r24, r18
    2abe:	93 1f       	adc	r25, r19
    2ac0:	88 0f       	add	r24, r24
    2ac2:	99 1f       	adc	r25, r25
    2ac4:	88 0f       	add	r24, r24
    2ac6:	99 1f       	adc	r25, r25
    2ac8:	8f 59       	subi	r24, 0x9F	; 159
    2aca:	9d 4f       	sbci	r25, 0xFD	; 253
    2acc:	fc 01       	movw	r30, r24
    2ace:	80 81       	ld	r24, Z
    2ad0:	91 81       	ldd	r25, Z+1	; 0x01
    2ad2:	a2 81       	ldd	r26, Z+2	; 0x02
    2ad4:	b3 81       	ldd	r27, Z+3	; 0x03
    2ad6:	8b 2f       	mov	r24, r27
    2ad8:	99 27       	eor	r25, r25
    2ada:	aa 27       	eor	r26, r26
    2adc:	bb 27       	eor	r27, r27
    2ade:	2c ea       	ldi	r18, 0xAC	; 172
    2ae0:	32 e0       	ldi	r19, 0x02	; 2
    2ae2:	4b 2f       	mov	r20, r27
    2ae4:	4f 93       	push	r20
    2ae6:	4a 2f       	mov	r20, r26
    2ae8:	4f 93       	push	r20
    2aea:	49 2f       	mov	r20, r25
    2aec:	4f 93       	push	r20
    2aee:	8f 93       	push	r24
    2af0:	83 2f       	mov	r24, r19
    2af2:	8f 93       	push	r24
    2af4:	82 2f       	mov	r24, r18
    2af6:	8f 93       	push	r24
    2af8:	0e 94 31 3a 	call	0x7462	; 0x7462 <usart_write_P>
    2afc:	0f 90       	pop	r0
    2afe:	0f 90       	pop	r0
    2b00:	0f 90       	pop	r0
    2b02:	0f 90       	pop	r0
    2b04:	0f 90       	pop	r0
    2b06:	0f 90       	pop	r0
			
		usart_write("  Time:%4i\r\n",arp_entry[index].arp_t_time);
    2b08:	89 81       	ldd	r24, Y+1	; 0x01
    2b0a:	28 2f       	mov	r18, r24
    2b0c:	30 e0       	ldi	r19, 0x00	; 0
    2b0e:	c9 01       	movw	r24, r18
    2b10:	88 0f       	add	r24, r24
    2b12:	99 1f       	adc	r25, r25
    2b14:	82 0f       	add	r24, r18
    2b16:	93 1f       	adc	r25, r19
    2b18:	88 0f       	add	r24, r24
    2b1a:	99 1f       	adc	r25, r25
    2b1c:	88 0f       	add	r24, r24
    2b1e:	99 1f       	adc	r25, r25
    2b20:	8b 59       	subi	r24, 0x9B	; 155
    2b22:	9d 4f       	sbci	r25, 0xFD	; 253
    2b24:	fc 01       	movw	r30, r24
    2b26:	20 81       	ld	r18, Z
    2b28:	31 81       	ldd	r19, Z+1	; 0x01
    2b2a:	81 eb       	ldi	r24, 0xB1	; 177
    2b2c:	92 e0       	ldi	r25, 0x02	; 2
    2b2e:	43 2f       	mov	r20, r19
    2b30:	4f 93       	push	r20
    2b32:	2f 93       	push	r18
    2b34:	29 2f       	mov	r18, r25
    2b36:	2f 93       	push	r18
    2b38:	8f 93       	push	r24
    2b3a:	0e 94 31 3a 	call	0x7462	; 0x7462 <usart_write_P>
    2b3e:	0f 90       	pop	r0
    2b40:	0f 90       	pop	r0
    2b42:	0f 90       	pop	r0
    2b44:	0f 90       	pop	r0

//------------------------------------------------------------------------------
//print ARP table
void command_arp (void)
{
	for (unsigned char index = 0;index<MAX_ARP_ENTRY;index++)
    2b46:	89 81       	ldd	r24, Y+1	; 0x01
    2b48:	8f 5f       	subi	r24, 0xFF	; 255
    2b4a:	89 83       	std	Y+1, r24	; 0x01
    2b4c:	89 81       	ldd	r24, Y+1	; 0x01
    2b4e:	85 30       	cpi	r24, 0x05	; 5
    2b50:	08 f4       	brcc	.+2      	; 0x2b54 <command_arp+0x352>
    2b52:	5e ce       	rjmp	.-836    	; 0x2810 <command_arp+0xe>
		usart_write(".%3i",((arp_entry[index].arp_t_ip&0x00FF0000)>>16));
		usart_write(".%3i",((arp_entry[index].arp_t_ip&0xFF000000)>>24));
			
		usart_write("  Time:%4i\r\n",arp_entry[index].arp_t_time);
	}
}
    2b54:	0f 90       	pop	r0
    2b56:	df 91       	pop	r29
    2b58:	cf 91       	pop	r28
    2b5a:	08 95       	ret

00002b5c <command_tcp>:

//------------------------------------------------------------------------------
//print ARP table
void command_tcp (void)
{
    2b5c:	cf 93       	push	r28
    2b5e:	df 93       	push	r29
    2b60:	1f 92       	push	r1
    2b62:	cd b7       	in	r28, 0x3d	; 61
    2b64:	de b7       	in	r29, 0x3e	; 62
	for (unsigned char index = 0;index<MAX_TCP_ENTRY;index++)
    2b66:	19 82       	std	Y+1, r1	; 0x01
    2b68:	09 c1       	rjmp	.+530    	; 0x2d7c <command_tcp+0x220>
	{
		usart_write("%2i",index);
    2b6a:	89 81       	ldd	r24, Y+1	; 0x01
    2b6c:	28 2f       	mov	r18, r24
    2b6e:	30 e0       	ldi	r19, 0x00	; 0
    2b70:	8e eb       	ldi	r24, 0xBE	; 190
    2b72:	92 e0       	ldi	r25, 0x02	; 2
    2b74:	43 2f       	mov	r20, r19
    2b76:	4f 93       	push	r20
    2b78:	2f 93       	push	r18
    2b7a:	29 2f       	mov	r18, r25
    2b7c:	2f 93       	push	r18
    2b7e:	8f 93       	push	r24
    2b80:	0e 94 31 3a 	call	0x7462	; 0x7462 <usart_write_P>
    2b84:	0f 90       	pop	r0
    2b86:	0f 90       	pop	r0
    2b88:	0f 90       	pop	r0
    2b8a:	0f 90       	pop	r0
		usart_write("  IP:%3i",(tcp_entry[index].ip&0x000000FF));
    2b8c:	89 81       	ldd	r24, Y+1	; 0x01
    2b8e:	28 2f       	mov	r18, r24
    2b90:	30 e0       	ldi	r19, 0x00	; 0
    2b92:	46 e1       	ldi	r20, 0x16	; 22
    2b94:	42 9f       	mul	r20, r18
    2b96:	c0 01       	movw	r24, r0
    2b98:	43 9f       	mul	r20, r19
    2b9a:	90 0d       	add	r25, r0
    2b9c:	11 24       	eor	r1, r1
    2b9e:	83 55       	subi	r24, 0x53	; 83
    2ba0:	9d 4f       	sbci	r25, 0xFD	; 253
    2ba2:	fc 01       	movw	r30, r24
    2ba4:	80 81       	ld	r24, Z
    2ba6:	91 81       	ldd	r25, Z+1	; 0x01
    2ba8:	a2 81       	ldd	r26, Z+2	; 0x02
    2baa:	b3 81       	ldd	r27, Z+3	; 0x03
    2bac:	99 27       	eor	r25, r25
    2bae:	aa 27       	eor	r26, r26
    2bb0:	bb 27       	eor	r27, r27
    2bb2:	22 ec       	ldi	r18, 0xC2	; 194
    2bb4:	32 e0       	ldi	r19, 0x02	; 2
    2bb6:	4b 2f       	mov	r20, r27
    2bb8:	4f 93       	push	r20
    2bba:	4a 2f       	mov	r20, r26
    2bbc:	4f 93       	push	r20
    2bbe:	49 2f       	mov	r20, r25
    2bc0:	4f 93       	push	r20
    2bc2:	8f 93       	push	r24
    2bc4:	83 2f       	mov	r24, r19
    2bc6:	8f 93       	push	r24
    2bc8:	82 2f       	mov	r24, r18
    2bca:	8f 93       	push	r24
    2bcc:	0e 94 31 3a 	call	0x7462	; 0x7462 <usart_write_P>
    2bd0:	0f 90       	pop	r0
    2bd2:	0f 90       	pop	r0
    2bd4:	0f 90       	pop	r0
    2bd6:	0f 90       	pop	r0
    2bd8:	0f 90       	pop	r0
    2bda:	0f 90       	pop	r0
		usart_write(".%3i",((tcp_entry[index].ip&0x0000FF00)>>8));
    2bdc:	89 81       	ldd	r24, Y+1	; 0x01
    2bde:	28 2f       	mov	r18, r24
    2be0:	30 e0       	ldi	r19, 0x00	; 0
    2be2:	46 e1       	ldi	r20, 0x16	; 22
    2be4:	42 9f       	mul	r20, r18
    2be6:	c0 01       	movw	r24, r0
    2be8:	43 9f       	mul	r20, r19
    2bea:	90 0d       	add	r25, r0
    2bec:	11 24       	eor	r1, r1
    2bee:	83 55       	subi	r24, 0x53	; 83
    2bf0:	9d 4f       	sbci	r25, 0xFD	; 253
    2bf2:	fc 01       	movw	r30, r24
    2bf4:	80 81       	ld	r24, Z
    2bf6:	91 81       	ldd	r25, Z+1	; 0x01
    2bf8:	a2 81       	ldd	r26, Z+2	; 0x02
    2bfa:	b3 81       	ldd	r27, Z+3	; 0x03
    2bfc:	88 27       	eor	r24, r24
    2bfe:	aa 27       	eor	r26, r26
    2c00:	bb 27       	eor	r27, r27
    2c02:	89 2f       	mov	r24, r25
    2c04:	9a 2f       	mov	r25, r26
    2c06:	ab 2f       	mov	r26, r27
    2c08:	bb 27       	eor	r27, r27
    2c0a:	2b ec       	ldi	r18, 0xCB	; 203
    2c0c:	32 e0       	ldi	r19, 0x02	; 2
    2c0e:	4b 2f       	mov	r20, r27
    2c10:	4f 93       	push	r20
    2c12:	4a 2f       	mov	r20, r26
    2c14:	4f 93       	push	r20
    2c16:	49 2f       	mov	r20, r25
    2c18:	4f 93       	push	r20
    2c1a:	8f 93       	push	r24
    2c1c:	83 2f       	mov	r24, r19
    2c1e:	8f 93       	push	r24
    2c20:	82 2f       	mov	r24, r18
    2c22:	8f 93       	push	r24
    2c24:	0e 94 31 3a 	call	0x7462	; 0x7462 <usart_write_P>
    2c28:	0f 90       	pop	r0
    2c2a:	0f 90       	pop	r0
    2c2c:	0f 90       	pop	r0
    2c2e:	0f 90       	pop	r0
    2c30:	0f 90       	pop	r0
    2c32:	0f 90       	pop	r0
		usart_write(".%3i",((tcp_entry[index].ip&0x00FF0000)>>16));
    2c34:	89 81       	ldd	r24, Y+1	; 0x01
    2c36:	28 2f       	mov	r18, r24
    2c38:	30 e0       	ldi	r19, 0x00	; 0
    2c3a:	46 e1       	ldi	r20, 0x16	; 22
    2c3c:	42 9f       	mul	r20, r18
    2c3e:	c0 01       	movw	r24, r0
    2c40:	43 9f       	mul	r20, r19
    2c42:	90 0d       	add	r25, r0
    2c44:	11 24       	eor	r1, r1
    2c46:	83 55       	subi	r24, 0x53	; 83
    2c48:	9d 4f       	sbci	r25, 0xFD	; 253
    2c4a:	fc 01       	movw	r30, r24
    2c4c:	80 81       	ld	r24, Z
    2c4e:	91 81       	ldd	r25, Z+1	; 0x01
    2c50:	a2 81       	ldd	r26, Z+2	; 0x02
    2c52:	b3 81       	ldd	r27, Z+3	; 0x03
    2c54:	88 27       	eor	r24, r24
    2c56:	99 27       	eor	r25, r25
    2c58:	bb 27       	eor	r27, r27
    2c5a:	cd 01       	movw	r24, r26
    2c5c:	aa 27       	eor	r26, r26
    2c5e:	bb 27       	eor	r27, r27
    2c60:	20 ed       	ldi	r18, 0xD0	; 208
    2c62:	32 e0       	ldi	r19, 0x02	; 2
    2c64:	4b 2f       	mov	r20, r27
    2c66:	4f 93       	push	r20
    2c68:	4a 2f       	mov	r20, r26
    2c6a:	4f 93       	push	r20
    2c6c:	49 2f       	mov	r20, r25
    2c6e:	4f 93       	push	r20
    2c70:	8f 93       	push	r24
    2c72:	83 2f       	mov	r24, r19
    2c74:	8f 93       	push	r24
    2c76:	82 2f       	mov	r24, r18
    2c78:	8f 93       	push	r24
    2c7a:	0e 94 31 3a 	call	0x7462	; 0x7462 <usart_write_P>
    2c7e:	0f 90       	pop	r0
    2c80:	0f 90       	pop	r0
    2c82:	0f 90       	pop	r0
    2c84:	0f 90       	pop	r0
    2c86:	0f 90       	pop	r0
    2c88:	0f 90       	pop	r0
		usart_write(".%3i",((tcp_entry[index].ip&0xFF000000)>>24));
    2c8a:	89 81       	ldd	r24, Y+1	; 0x01
    2c8c:	28 2f       	mov	r18, r24
    2c8e:	30 e0       	ldi	r19, 0x00	; 0
    2c90:	46 e1       	ldi	r20, 0x16	; 22
    2c92:	42 9f       	mul	r20, r18
    2c94:	c0 01       	movw	r24, r0
    2c96:	43 9f       	mul	r20, r19
    2c98:	90 0d       	add	r25, r0
    2c9a:	11 24       	eor	r1, r1
    2c9c:	83 55       	subi	r24, 0x53	; 83
    2c9e:	9d 4f       	sbci	r25, 0xFD	; 253
    2ca0:	fc 01       	movw	r30, r24
    2ca2:	80 81       	ld	r24, Z
    2ca4:	91 81       	ldd	r25, Z+1	; 0x01
    2ca6:	a2 81       	ldd	r26, Z+2	; 0x02
    2ca8:	b3 81       	ldd	r27, Z+3	; 0x03
    2caa:	8b 2f       	mov	r24, r27
    2cac:	99 27       	eor	r25, r25
    2cae:	aa 27       	eor	r26, r26
    2cb0:	bb 27       	eor	r27, r27
    2cb2:	25 ed       	ldi	r18, 0xD5	; 213
    2cb4:	32 e0       	ldi	r19, 0x02	; 2
    2cb6:	4b 2f       	mov	r20, r27
    2cb8:	4f 93       	push	r20
    2cba:	4a 2f       	mov	r20, r26
    2cbc:	4f 93       	push	r20
    2cbe:	49 2f       	mov	r20, r25
    2cc0:	4f 93       	push	r20
    2cc2:	8f 93       	push	r24
    2cc4:	83 2f       	mov	r24, r19
    2cc6:	8f 93       	push	r24
    2cc8:	82 2f       	mov	r24, r18
    2cca:	8f 93       	push	r24
    2ccc:	0e 94 31 3a 	call	0x7462	; 0x7462 <usart_write_P>
    2cd0:	0f 90       	pop	r0
    2cd2:	0f 90       	pop	r0
    2cd4:	0f 90       	pop	r0
    2cd6:	0f 90       	pop	r0
    2cd8:	0f 90       	pop	r0
    2cda:	0f 90       	pop	r0
		usart_write("  PORT:%4i",HTONS(tcp_entry[index].src_port));
    2cdc:	89 81       	ldd	r24, Y+1	; 0x01
    2cde:	28 2f       	mov	r18, r24
    2ce0:	30 e0       	ldi	r19, 0x00	; 0
    2ce2:	46 e1       	ldi	r20, 0x16	; 22
    2ce4:	42 9f       	mul	r20, r18
    2ce6:	c0 01       	movw	r24, r0
    2ce8:	43 9f       	mul	r20, r19
    2cea:	90 0d       	add	r25, r0
    2cec:	11 24       	eor	r1, r1
    2cee:	8f 54       	subi	r24, 0x4F	; 79
    2cf0:	9d 4f       	sbci	r25, 0xFD	; 253
    2cf2:	fc 01       	movw	r30, r24
    2cf4:	80 81       	ld	r24, Z
    2cf6:	91 81       	ldd	r25, Z+1	; 0x01
    2cf8:	38 2f       	mov	r19, r24
    2cfa:	22 27       	eor	r18, r18
    2cfc:	89 81       	ldd	r24, Y+1	; 0x01
    2cfe:	48 2f       	mov	r20, r24
    2d00:	50 e0       	ldi	r21, 0x00	; 0
    2d02:	66 e1       	ldi	r22, 0x16	; 22
    2d04:	64 9f       	mul	r22, r20
    2d06:	c0 01       	movw	r24, r0
    2d08:	65 9f       	mul	r22, r21
    2d0a:	90 0d       	add	r25, r0
    2d0c:	11 24       	eor	r1, r1
    2d0e:	8f 54       	subi	r24, 0x4F	; 79
    2d10:	9d 4f       	sbci	r25, 0xFD	; 253
    2d12:	fc 01       	movw	r30, r24
    2d14:	80 81       	ld	r24, Z
    2d16:	91 81       	ldd	r25, Z+1	; 0x01
    2d18:	89 2f       	mov	r24, r25
    2d1a:	99 27       	eor	r25, r25
    2d1c:	28 2b       	or	r18, r24
    2d1e:	39 2b       	or	r19, r25
    2d20:	8a ed       	ldi	r24, 0xDA	; 218
    2d22:	92 e0       	ldi	r25, 0x02	; 2
    2d24:	43 2f       	mov	r20, r19
    2d26:	4f 93       	push	r20
    2d28:	2f 93       	push	r18
    2d2a:	29 2f       	mov	r18, r25
    2d2c:	2f 93       	push	r18
    2d2e:	8f 93       	push	r24
    2d30:	0e 94 31 3a 	call	0x7462	; 0x7462 <usart_write_P>
    2d34:	0f 90       	pop	r0
    2d36:	0f 90       	pop	r0
    2d38:	0f 90       	pop	r0
    2d3a:	0f 90       	pop	r0
		usart_write("  Time:%4i\r\n",tcp_entry[index].time);
    2d3c:	89 81       	ldd	r24, Y+1	; 0x01
    2d3e:	28 2f       	mov	r18, r24
    2d40:	30 e0       	ldi	r19, 0x00	; 0
    2d42:	46 e1       	ldi	r20, 0x16	; 22
    2d44:	42 9f       	mul	r20, r18
    2d46:	c0 01       	movw	r24, r0
    2d48:	43 9f       	mul	r20, r19
    2d4a:	90 0d       	add	r25, r0
    2d4c:	11 24       	eor	r1, r1
    2d4e:	80 54       	subi	r24, 0x40	; 64
    2d50:	9d 4f       	sbci	r25, 0xFD	; 253
    2d52:	fc 01       	movw	r30, r24
    2d54:	80 81       	ld	r24, Z
    2d56:	28 2f       	mov	r18, r24
    2d58:	30 e0       	ldi	r19, 0x00	; 0
    2d5a:	85 ee       	ldi	r24, 0xE5	; 229
    2d5c:	92 e0       	ldi	r25, 0x02	; 2
    2d5e:	43 2f       	mov	r20, r19
    2d60:	4f 93       	push	r20
    2d62:	2f 93       	push	r18
    2d64:	29 2f       	mov	r18, r25
    2d66:	2f 93       	push	r18
    2d68:	8f 93       	push	r24
    2d6a:	0e 94 31 3a 	call	0x7462	; 0x7462 <usart_write_P>
    2d6e:	0f 90       	pop	r0
    2d70:	0f 90       	pop	r0
    2d72:	0f 90       	pop	r0
    2d74:	0f 90       	pop	r0

//------------------------------------------------------------------------------
//print ARP table
void command_tcp (void)
{
	for (unsigned char index = 0;index<MAX_TCP_ENTRY;index++)
    2d76:	89 81       	ldd	r24, Y+1	; 0x01
    2d78:	8f 5f       	subi	r24, 0xFF	; 255
    2d7a:	89 83       	std	Y+1, r24	; 0x01
    2d7c:	89 81       	ldd	r24, Y+1	; 0x01
    2d7e:	85 30       	cpi	r24, 0x05	; 5
    2d80:	08 f4       	brcc	.+2      	; 0x2d84 <command_tcp+0x228>
    2d82:	f3 ce       	rjmp	.-538    	; 0x2b6a <command_tcp+0xe>
		usart_write(".%3i",((tcp_entry[index].ip&0x00FF0000)>>16));
		usart_write(".%3i",((tcp_entry[index].ip&0xFF000000)>>24));
		usart_write("  PORT:%4i",HTONS(tcp_entry[index].src_port));
		usart_write("  Time:%4i\r\n",tcp_entry[index].time);
	}
}
    2d84:	0f 90       	pop	r0
    2d86:	df 91       	pop	r29
    2d88:	cf 91       	pop	r28
    2d8a:	08 95       	ret

00002d8c <command_setvar>:

//------------------------------------------------------------------------------
//ndern einer Variable
void command_setvar (void)
{
    2d8c:	cf 93       	push	r28
    2d8e:	df 93       	push	r29
    2d90:	cd b7       	in	r28, 0x3d	; 61
    2d92:	de b7       	in	r29, 0x3e	; 62
	var_array[variable[0]] = variable[1];
    2d94:	80 91 98 02 	lds	r24, 0x0298	; 0x800298 <variable>
    2d98:	90 91 99 02 	lds	r25, 0x0299	; 0x800299 <variable+0x1>
    2d9c:	20 91 9a 02 	lds	r18, 0x029A	; 0x80029a <variable+0x2>
    2da0:	30 91 9b 02 	lds	r19, 0x029B	; 0x80029b <variable+0x3>
    2da4:	88 0f       	add	r24, r24
    2da6:	99 1f       	adc	r25, r25
    2da8:	8e 51       	subi	r24, 0x1E	; 30
    2daa:	9f 4f       	sbci	r25, 0xFF	; 255
    2dac:	fc 01       	movw	r30, r24
    2dae:	31 83       	std	Z+1, r19	; 0x01
    2db0:	20 83       	st	Z, r18
	usart_write("Inhalt der Variable[%2i] = %2i\r\n",variable[0],var_array[variable[0]]);
    2db2:	80 91 98 02 	lds	r24, 0x0298	; 0x800298 <variable>
    2db6:	90 91 99 02 	lds	r25, 0x0299	; 0x800299 <variable+0x1>
    2dba:	88 0f       	add	r24, r24
    2dbc:	99 1f       	adc	r25, r25
    2dbe:	8e 51       	subi	r24, 0x1E	; 30
    2dc0:	9f 4f       	sbci	r25, 0xFF	; 255
    2dc2:	fc 01       	movw	r30, r24
    2dc4:	40 81       	ld	r20, Z
    2dc6:	51 81       	ldd	r21, Z+1	; 0x01
    2dc8:	20 91 98 02 	lds	r18, 0x0298	; 0x800298 <variable>
    2dcc:	30 91 99 02 	lds	r19, 0x0299	; 0x800299 <variable+0x1>
    2dd0:	82 ef       	ldi	r24, 0xF2	; 242
    2dd2:	92 e0       	ldi	r25, 0x02	; 2
    2dd4:	65 2f       	mov	r22, r21
    2dd6:	6f 93       	push	r22
    2dd8:	4f 93       	push	r20
    2dda:	43 2f       	mov	r20, r19
    2ddc:	4f 93       	push	r20
    2dde:	2f 93       	push	r18
    2de0:	29 2f       	mov	r18, r25
    2de2:	2f 93       	push	r18
    2de4:	8f 93       	push	r24
    2de6:	0e 94 31 3a 	call	0x7462	; 0x7462 <usart_write_P>
    2dea:	0f 90       	pop	r0
    2dec:	0f 90       	pop	r0
    2dee:	0f 90       	pop	r0
    2df0:	0f 90       	pop	r0
    2df2:	0f 90       	pop	r0
    2df4:	0f 90       	pop	r0
}
    2df6:	df 91       	pop	r29
    2df8:	cf 91       	pop	r28
    2dfa:	08 95       	ret

00002dfc <command_time>:

//------------------------------------------------------------------------------
//print Time
void command_time (void)
{
    2dfc:	cf 93       	push	r28
    2dfe:	df 93       	push	r29
    2e00:	cd b7       	in	r28, 0x3d	; 61
    2e02:	de b7       	in	r29, 0x3e	; 62
    2e04:	67 97       	sbiw	r28, 0x17	; 23
    2e06:	0f b6       	in	r0, 0x3f	; 63
    2e08:	f8 94       	cli
    2e0a:	de bf       	out	0x3e, r29	; 62
    2e0c:	0f be       	out	0x3f, r0	; 63
    2e0e:	cd bf       	out	0x3d, r28	; 61
	unsigned char hh = (time/3600)%24;
    2e10:	80 91 33 03 	lds	r24, 0x0333	; 0x800333 <time>
    2e14:	90 91 34 03 	lds	r25, 0x0334	; 0x800334 <time+0x1>
    2e18:	a0 91 35 03 	lds	r26, 0x0335	; 0x800335 <time+0x2>
    2e1c:	b0 91 36 03 	lds	r27, 0x0336	; 0x800336 <time+0x3>
    2e20:	20 e1       	ldi	r18, 0x10	; 16
    2e22:	3e e0       	ldi	r19, 0x0E	; 14
    2e24:	40 e0       	ldi	r20, 0x00	; 0
    2e26:	50 e0       	ldi	r21, 0x00	; 0
    2e28:	bc 01       	movw	r22, r24
    2e2a:	cd 01       	movw	r24, r26
    2e2c:	0e 94 45 3c 	call	0x788a	; 0x788a <__udivmodsi4>
    2e30:	da 01       	movw	r26, r20
    2e32:	c9 01       	movw	r24, r18
    2e34:	28 e1       	ldi	r18, 0x18	; 24
    2e36:	30 e0       	ldi	r19, 0x00	; 0
    2e38:	40 e0       	ldi	r20, 0x00	; 0
    2e3a:	50 e0       	ldi	r21, 0x00	; 0
    2e3c:	bc 01       	movw	r22, r24
    2e3e:	cd 01       	movw	r24, r26
    2e40:	0e 94 45 3c 	call	0x788a	; 0x788a <__udivmodsi4>
    2e44:	dc 01       	movw	r26, r24
    2e46:	cb 01       	movw	r24, r22
    2e48:	89 83       	std	Y+1, r24	; 0x01
	unsigned char mm = (time/60)%60;
    2e4a:	80 91 33 03 	lds	r24, 0x0333	; 0x800333 <time>
    2e4e:	90 91 34 03 	lds	r25, 0x0334	; 0x800334 <time+0x1>
    2e52:	a0 91 35 03 	lds	r26, 0x0335	; 0x800335 <time+0x2>
    2e56:	b0 91 36 03 	lds	r27, 0x0336	; 0x800336 <time+0x3>
    2e5a:	2c e3       	ldi	r18, 0x3C	; 60
    2e5c:	30 e0       	ldi	r19, 0x00	; 0
    2e5e:	40 e0       	ldi	r20, 0x00	; 0
    2e60:	50 e0       	ldi	r21, 0x00	; 0
    2e62:	bc 01       	movw	r22, r24
    2e64:	cd 01       	movw	r24, r26
    2e66:	0e 94 45 3c 	call	0x788a	; 0x788a <__udivmodsi4>
    2e6a:	da 01       	movw	r26, r20
    2e6c:	c9 01       	movw	r24, r18
    2e6e:	2c e3       	ldi	r18, 0x3C	; 60
    2e70:	30 e0       	ldi	r19, 0x00	; 0
    2e72:	40 e0       	ldi	r20, 0x00	; 0
    2e74:	50 e0       	ldi	r21, 0x00	; 0
    2e76:	bc 01       	movw	r22, r24
    2e78:	cd 01       	movw	r24, r26
    2e7a:	0e 94 45 3c 	call	0x788a	; 0x788a <__udivmodsi4>
    2e7e:	dc 01       	movw	r26, r24
    2e80:	cb 01       	movw	r24, r22
    2e82:	8a 83       	std	Y+2, r24	; 0x02
	unsigned char ss = time %60;
    2e84:	80 91 33 03 	lds	r24, 0x0333	; 0x800333 <time>
    2e88:	90 91 34 03 	lds	r25, 0x0334	; 0x800334 <time+0x1>
    2e8c:	a0 91 35 03 	lds	r26, 0x0335	; 0x800335 <time+0x2>
    2e90:	b0 91 36 03 	lds	r27, 0x0336	; 0x800336 <time+0x3>
    2e94:	2c e3       	ldi	r18, 0x3C	; 60
    2e96:	30 e0       	ldi	r19, 0x00	; 0
    2e98:	40 e0       	ldi	r20, 0x00	; 0
    2e9a:	50 e0       	ldi	r21, 0x00	; 0
    2e9c:	bc 01       	movw	r22, r24
    2e9e:	cd 01       	movw	r24, r26
    2ea0:	0e 94 45 3c 	call	0x788a	; 0x788a <__udivmodsi4>
    2ea4:	dc 01       	movw	r26, r24
    2ea6:	cb 01       	movw	r24, r22
    2ea8:	8b 83       	std	Y+3, r24	; 0x03
	usart_write ("\n\rTIME: %2i:%2i:%2i\r\n",hh,mm,ss);
    2eaa:	8b 81       	ldd	r24, Y+3	; 0x03
    2eac:	68 2f       	mov	r22, r24
    2eae:	70 e0       	ldi	r23, 0x00	; 0
    2eb0:	8a 81       	ldd	r24, Y+2	; 0x02
    2eb2:	48 2f       	mov	r20, r24
    2eb4:	50 e0       	ldi	r21, 0x00	; 0
    2eb6:	89 81       	ldd	r24, Y+1	; 0x01
    2eb8:	28 2f       	mov	r18, r24
    2eba:	30 e0       	ldi	r19, 0x00	; 0
    2ebc:	83 e1       	ldi	r24, 0x13	; 19
    2ebe:	93 e0       	ldi	r25, 0x03	; 3
    2ec0:	e7 2f       	mov	r30, r23
    2ec2:	ef 93       	push	r30
    2ec4:	6f 93       	push	r22
    2ec6:	65 2f       	mov	r22, r21
    2ec8:	6f 93       	push	r22
    2eca:	4f 93       	push	r20
    2ecc:	43 2f       	mov	r20, r19
    2ece:	4f 93       	push	r20
    2ed0:	2f 93       	push	r18
    2ed2:	29 2f       	mov	r18, r25
    2ed4:	2f 93       	push	r18
    2ed6:	8f 93       	push	r24
    2ed8:	0e 94 31 3a 	call	0x7462	; 0x7462 <usart_write_P>
    2edc:	8d b7       	in	r24, 0x3d	; 61
    2ede:	9e b7       	in	r25, 0x3e	; 62
    2ee0:	08 96       	adiw	r24, 0x08	; 8
    2ee2:	0f b6       	in	r0, 0x3f	; 63
    2ee4:	f8 94       	cli
    2ee6:	de bf       	out	0x3e, r29	; 62
    2ee8:	0f be       	out	0x3f, r0	; 63
    2eea:	cd bf       	out	0x3d, r28	; 61
}
    2eec:	67 96       	adiw	r28, 0x17	; 23
    2eee:	0f b6       	in	r0, 0x3f	; 63
    2ef0:	f8 94       	cli
    2ef2:	de bf       	out	0x3e, r29	; 62
    2ef4:	0f be       	out	0x3f, r0	; 63
    2ef6:	cd bf       	out	0x3d, r28	; 61
    2ef8:	df 91       	pop	r29
    2efa:	cf 91       	pop	r28
    2efc:	08 95       	ret

00002efe <command_ntp_refresh>:

//------------------------------------------------------------------------------
//Time Refresh via NTP-Server
void command_ntp_refresh (void)
{
    2efe:	cf 93       	push	r28
    2f00:	df 93       	push	r29
    2f02:	cd b7       	in	r28, 0x3d	; 61
    2f04:	de b7       	in	r29, 0x3e	; 62
	#if USE_NTP
	ntp_request();
	#endif //USE_NTP
}
    2f06:	df 91       	pop	r29
    2f08:	cf 91       	pop	r28
    2f0a:	08 95       	ret

00002f0c <command_wol>:
#endif //USE_MAIL

//------------------------------------------------------------------------------
//
void command_wol (void)
{
    2f0c:	cf 93       	push	r28
    2f0e:	df 93       	push	r29
    2f10:	cd b7       	in	r28, 0x3d	; 61
    2f12:	de b7       	in	r29, 0x3e	; 62
	}else{
		//MagicPacket senden
		wol_request();
	}
	#endif //USE_WOL	
}
    2f14:	df 91       	pop	r29
    2f16:	cf 91       	pop	r28
    2f18:	08 95       	ret

00002f1a <command_ping>:

//------------------------------------------------------------------------------
// Sende "Ping" an angegebene Adresse
void command_ping (void)
{
    2f1a:	ef 92       	push	r14
    2f1c:	ff 92       	push	r15
    2f1e:	0f 93       	push	r16
    2f20:	1f 93       	push	r17
    2f22:	cf 93       	push	r28
    2f24:	df 93       	push	r29
    2f26:	cd b7       	in	r28, 0x3d	; 61
    2f28:	de b7       	in	r29, 0x3e	; 62
	if (*((unsigned int*)&variable[0]) != 0x00000000)
    2f2a:	88 e9       	ldi	r24, 0x98	; 152
    2f2c:	92 e0       	ldi	r25, 0x02	; 2
    2f2e:	fc 01       	movw	r30, r24
    2f30:	80 81       	ld	r24, Z
    2f32:	91 81       	ldd	r25, Z+1	; 0x01
    2f34:	89 2b       	or	r24, r25
    2f36:	09 f4       	brne	.+2      	; 0x2f3a <command_ping+0x20>
    2f38:	57 c0       	rjmp	.+174    	; 0x2fe8 <command_ping+0xce>
	{
		(*((unsigned long*)&ping.ip1[0])) = ((variable[0])+((unsigned long)(variable[1])<<8)+((unsigned long)(variable[2])<<16)+((unsigned long)(variable[3])<<24));
    2f3a:	66 e9       	ldi	r22, 0x96	; 150
    2f3c:	75 e0       	ldi	r23, 0x05	; 5
    2f3e:	80 91 98 02 	lds	r24, 0x0298	; 0x800298 <variable>
    2f42:	90 91 99 02 	lds	r25, 0x0299	; 0x800299 <variable+0x1>
    2f46:	9c 01       	movw	r18, r24
    2f48:	40 e0       	ldi	r20, 0x00	; 0
    2f4a:	50 e0       	ldi	r21, 0x00	; 0
    2f4c:	80 91 9a 02 	lds	r24, 0x029A	; 0x80029a <variable+0x2>
    2f50:	90 91 9b 02 	lds	r25, 0x029B	; 0x80029b <variable+0x3>
    2f54:	cc 01       	movw	r24, r24
    2f56:	a0 e0       	ldi	r26, 0x00	; 0
    2f58:	b0 e0       	ldi	r27, 0x00	; 0
    2f5a:	ba 2f       	mov	r27, r26
    2f5c:	a9 2f       	mov	r26, r25
    2f5e:	98 2f       	mov	r25, r24
    2f60:	88 27       	eor	r24, r24
    2f62:	28 0f       	add	r18, r24
    2f64:	39 1f       	adc	r19, r25
    2f66:	4a 1f       	adc	r20, r26
    2f68:	5b 1f       	adc	r21, r27
    2f6a:	80 91 9c 02 	lds	r24, 0x029C	; 0x80029c <variable+0x4>
    2f6e:	90 91 9d 02 	lds	r25, 0x029D	; 0x80029d <variable+0x5>
    2f72:	cc 01       	movw	r24, r24
    2f74:	a0 e0       	ldi	r26, 0x00	; 0
    2f76:	b0 e0       	ldi	r27, 0x00	; 0
    2f78:	dc 01       	movw	r26, r24
    2f7a:	99 27       	eor	r25, r25
    2f7c:	88 27       	eor	r24, r24
    2f7e:	28 0f       	add	r18, r24
    2f80:	39 1f       	adc	r19, r25
    2f82:	4a 1f       	adc	r20, r26
    2f84:	5b 1f       	adc	r21, r27
    2f86:	80 91 9e 02 	lds	r24, 0x029E	; 0x80029e <variable+0x6>
    2f8a:	90 91 9f 02 	lds	r25, 0x029F	; 0x80029f <variable+0x7>
    2f8e:	cc 01       	movw	r24, r24
    2f90:	a0 e0       	ldi	r26, 0x00	; 0
    2f92:	b0 e0       	ldi	r27, 0x00	; 0
    2f94:	b8 2f       	mov	r27, r24
    2f96:	aa 27       	eor	r26, r26
    2f98:	99 27       	eor	r25, r25
    2f9a:	88 27       	eor	r24, r24
    2f9c:	82 0f       	add	r24, r18
    2f9e:	93 1f       	adc	r25, r19
    2fa0:	a4 1f       	adc	r26, r20
    2fa2:	b5 1f       	adc	r27, r21
    2fa4:	fb 01       	movw	r30, r22
    2fa6:	80 83       	st	Z, r24
    2fa8:	91 83       	std	Z+1, r25	; 0x01
    2faa:	a2 83       	std	Z+2, r26	; 0x02
    2fac:	b3 83       	std	Z+3, r27	; 0x03
		//ARP Request senden
		arp_request ( (*(unsigned long*)&ping.ip1[0]));
    2fae:	86 e9       	ldi	r24, 0x96	; 150
    2fb0:	95 e0       	ldi	r25, 0x05	; 5
    2fb2:	fc 01       	movw	r30, r24
    2fb4:	80 81       	ld	r24, Z
    2fb6:	91 81       	ldd	r25, Z+1	; 0x01
    2fb8:	a2 81       	ldd	r26, Z+2	; 0x02
    2fba:	b3 81       	ldd	r27, Z+3	; 0x03
    2fbc:	bc 01       	movw	r22, r24
    2fbe:	cd 01       	movw	r24, r26
    2fc0:	0e 94 13 2b 	call	0x5626	; 0x5626 <arp_request>
		
		//ICMP-Nachricht Type=8 Code=0: Echo-Anfrage
		//TODO: Sequenznummer, Identifier 
		icmp_send( (*(unsigned long*)&ping.ip1[0]),0x08,0x00,1,1);
    2fc4:	86 e9       	ldi	r24, 0x96	; 150
    2fc6:	95 e0       	ldi	r25, 0x05	; 5
    2fc8:	fc 01       	movw	r30, r24
    2fca:	80 81       	ld	r24, Z
    2fcc:	91 81       	ldd	r25, Z+1	; 0x01
    2fce:	a2 81       	ldd	r26, Z+2	; 0x02
    2fd0:	b3 81       	ldd	r27, Z+3	; 0x03
    2fd2:	ee 24       	eor	r14, r14
    2fd4:	e3 94       	inc	r14
    2fd6:	f1 2c       	mov	r15, r1
    2fd8:	01 e0       	ldi	r16, 0x01	; 1
    2fda:	10 e0       	ldi	r17, 0x00	; 0
    2fdc:	20 e0       	ldi	r18, 0x00	; 0
    2fde:	48 e0       	ldi	r20, 0x08	; 8
    2fe0:	bc 01       	movw	r22, r24
    2fe2:	cd 01       	movw	r24, r26
    2fe4:	0e 94 61 2c 	call	0x58c2	; 0x58c2 <icmp_send>
	}
}
    2fe8:	df 91       	pop	r29
    2fea:	cf 91       	pop	r28
    2fec:	1f 91       	pop	r17
    2fee:	0f 91       	pop	r16
    2ff0:	ff 90       	pop	r15
    2ff2:	ef 90       	pop	r14
    2ff4:	08 95       	ret

00002ff6 <command_help>:

//------------------------------------------------------------------------------
//print helptext
void command_help (void)
{
    2ff6:	cf 93       	push	r28
    2ff8:	df 93       	push	r29
    2ffa:	00 d0       	rcall	.+0      	; 0x2ffc <command_help+0x6>
    2ffc:	00 d0       	rcall	.+0      	; 0x2ffe <command_help+0x8>
    2ffe:	00 d0       	rcall	.+0      	; 0x3000 <command_help+0xa>
    3000:	cd b7       	in	r28, 0x3d	; 61
    3002:	de b7       	in	r29, 0x3e	; 62
#if HELPTEXT
	unsigned char data;
	PGM_P helptest_pointer = helptext;
    3004:	84 e5       	ldi	r24, 0x54	; 84
    3006:	90 e0       	ldi	r25, 0x00	; 0
    3008:	9a 83       	std	Y+2, r25	; 0x02
    300a:	89 83       	std	Y+1, r24	; 0x01
	
	do
	{
		data = pgm_read_byte(helptest_pointer++);
    300c:	89 81       	ldd	r24, Y+1	; 0x01
    300e:	9a 81       	ldd	r25, Y+2	; 0x02
    3010:	9c 01       	movw	r18, r24
    3012:	2f 5f       	subi	r18, 0xFF	; 255
    3014:	3f 4f       	sbci	r19, 0xFF	; 255
    3016:	3a 83       	std	Y+2, r19	; 0x02
    3018:	29 83       	std	Y+1, r18	; 0x01
    301a:	9c 83       	std	Y+4, r25	; 0x04
    301c:	8b 83       	std	Y+3, r24	; 0x03
    301e:	8b 81       	ldd	r24, Y+3	; 0x03
    3020:	9c 81       	ldd	r25, Y+4	; 0x04
    3022:	fc 01       	movw	r30, r24
    3024:	84 91       	lpm	r24, Z
    3026:	8d 83       	std	Y+5, r24	; 0x05
    3028:	8d 81       	ldd	r24, Y+5	; 0x05
    302a:	8e 83       	std	Y+6, r24	; 0x06
		usart_write("%c",data);
    302c:	8e 81       	ldd	r24, Y+6	; 0x06
    302e:	28 2f       	mov	r18, r24
    3030:	30 e0       	ldi	r19, 0x00	; 0
    3032:	89 e2       	ldi	r24, 0x29	; 41
    3034:	93 e0       	ldi	r25, 0x03	; 3
    3036:	43 2f       	mov	r20, r19
    3038:	4f 93       	push	r20
    303a:	2f 93       	push	r18
    303c:	29 2f       	mov	r18, r25
    303e:	2f 93       	push	r18
    3040:	8f 93       	push	r24
    3042:	0e 94 31 3a 	call	0x7462	; 0x7462 <usart_write_P>
    3046:	0f 90       	pop	r0
    3048:	0f 90       	pop	r0
    304a:	0f 90       	pop	r0
    304c:	0f 90       	pop	r0
	}while(data != 0);
    304e:	8e 81       	ldd	r24, Y+6	; 0x06
    3050:	88 23       	and	r24, r24
    3052:	e1 f6       	brne	.-72     	; 0x300c <command_help+0x16>
#endif
}
    3054:	26 96       	adiw	r28, 0x06	; 6
    3056:	0f b6       	in	r0, 0x3f	; 63
    3058:	f8 94       	cli
    305a:	de bf       	out	0x3e, r29	; 62
    305c:	0f be       	out	0x3f, r0	; 63
    305e:	cd bf       	out	0x3d, r28	; 61
    3060:	df 91       	pop	r29
    3062:	cf 91       	pop	r28
    3064:	08 95       	ret

00003066 <save_ip_addresses>:

//------------------------------------------------------------------------------
//save all ip-datas
void save_ip_addresses(void)
{
    3066:	cf 93       	push	r28
    3068:	df 93       	push	r29
    306a:	00 d0       	rcall	.+0      	; 0x306c <save_ip_addresses+0x6>
    306c:	1f 92       	push	r1
    306e:	cd b7       	in	r28, 0x3d	; 61
    3070:	de b7       	in	r29, 0x3e	; 62
	for (unsigned char count = 0; count<4; count++)
    3072:	19 82       	std	Y+1, r1	; 0x01
    3074:	1b c0       	rjmp	.+54     	; 0x30ac <save_ip_addresses+0x46>
	{
		eeprom_busy_wait ();
    3076:	8c e3       	ldi	r24, 0x3C	; 60
    3078:	90 e0       	ldi	r25, 0x00	; 0
    307a:	fc 01       	movw	r30, r24
    307c:	80 81       	ld	r24, Z
    307e:	88 2f       	mov	r24, r24
    3080:	90 e0       	ldi	r25, 0x00	; 0
    3082:	82 70       	andi	r24, 0x02	; 2
    3084:	99 27       	eor	r25, r25
    3086:	89 2b       	or	r24, r25
    3088:	b1 f7       	brne	.-20     	; 0x3076 <save_ip_addresses+0x10>
		eeprom_write_byte((unsigned char *)(IP_EEPROM_STORE + count),myip[count]);
    308a:	89 81       	ldd	r24, Y+1	; 0x01
    308c:	88 2f       	mov	r24, r24
    308e:	90 e0       	ldi	r25, 0x00	; 0
    3090:	82 56       	subi	r24, 0x62	; 98
    3092:	9a 4f       	sbci	r25, 0xFA	; 250
    3094:	fc 01       	movw	r30, r24
    3096:	20 81       	ld	r18, Z
    3098:	89 81       	ldd	r24, Y+1	; 0x01
    309a:	88 2f       	mov	r24, r24
    309c:	90 e0       	ldi	r25, 0x00	; 0
    309e:	4e 96       	adiw	r24, 0x1e	; 30
    30a0:	62 2f       	mov	r22, r18
    30a2:	0e 94 5c 3f 	call	0x7eb8	; 0x7eb8 <eeprom_write_byte>

//------------------------------------------------------------------------------
//save all ip-datas
void save_ip_addresses(void)
{
	for (unsigned char count = 0; count<4; count++)
    30a6:	89 81       	ldd	r24, Y+1	; 0x01
    30a8:	8f 5f       	subi	r24, 0xFF	; 255
    30aa:	89 83       	std	Y+1, r24	; 0x01
    30ac:	89 81       	ldd	r24, Y+1	; 0x01
    30ae:	84 30       	cpi	r24, 0x04	; 4
    30b0:	10 f3       	brcs	.-60     	; 0x3076 <save_ip_addresses+0x10>
	{
		eeprom_busy_wait ();
		eeprom_write_byte((unsigned char *)(IP_EEPROM_STORE + count),myip[count]);
	}
	for (unsigned char count = 0; count<4; count++)
    30b2:	1a 82       	std	Y+2, r1	; 0x02
    30b4:	1b c0       	rjmp	.+54     	; 0x30ec <save_ip_addresses+0x86>
	{
		eeprom_busy_wait ();
    30b6:	8c e3       	ldi	r24, 0x3C	; 60
    30b8:	90 e0       	ldi	r25, 0x00	; 0
    30ba:	fc 01       	movw	r30, r24
    30bc:	80 81       	ld	r24, Z
    30be:	88 2f       	mov	r24, r24
    30c0:	90 e0       	ldi	r25, 0x00	; 0
    30c2:	82 70       	andi	r24, 0x02	; 2
    30c4:	99 27       	eor	r25, r25
    30c6:	89 2b       	or	r24, r25
    30c8:	b1 f7       	brne	.-20     	; 0x30b6 <save_ip_addresses+0x50>
		eeprom_write_byte((unsigned char *)(NETMASK_EEPROM_STORE + count),netmask[count]);
    30ca:	8a 81       	ldd	r24, Y+2	; 0x02
    30cc:	88 2f       	mov	r24, r24
    30ce:	90 e0       	ldi	r25, 0x00	; 0
    30d0:	8a 55       	subi	r24, 0x5A	; 90
    30d2:	9a 4f       	sbci	r25, 0xFA	; 250
    30d4:	fc 01       	movw	r30, r24
    30d6:	20 81       	ld	r18, Z
    30d8:	8a 81       	ldd	r24, Y+2	; 0x02
    30da:	88 2f       	mov	r24, r24
    30dc:	90 e0       	ldi	r25, 0x00	; 0
    30de:	82 96       	adiw	r24, 0x22	; 34
    30e0:	62 2f       	mov	r22, r18
    30e2:	0e 94 5c 3f 	call	0x7eb8	; 0x7eb8 <eeprom_write_byte>
	for (unsigned char count = 0; count<4; count++)
	{
		eeprom_busy_wait ();
		eeprom_write_byte((unsigned char *)(IP_EEPROM_STORE + count),myip[count]);
	}
	for (unsigned char count = 0; count<4; count++)
    30e6:	8a 81       	ldd	r24, Y+2	; 0x02
    30e8:	8f 5f       	subi	r24, 0xFF	; 255
    30ea:	8a 83       	std	Y+2, r24	; 0x02
    30ec:	8a 81       	ldd	r24, Y+2	; 0x02
    30ee:	84 30       	cpi	r24, 0x04	; 4
    30f0:	10 f3       	brcs	.-60     	; 0x30b6 <save_ip_addresses+0x50>
	{
		eeprom_busy_wait ();
		eeprom_write_byte((unsigned char *)(NETMASK_EEPROM_STORE + count),netmask[count]);
	}
	for (unsigned char count = 0; count<4; count++)
    30f2:	1b 82       	std	Y+3, r1	; 0x03
    30f4:	1b c0       	rjmp	.+54     	; 0x312c <save_ip_addresses+0xc6>
	{
		eeprom_busy_wait ();
    30f6:	8c e3       	ldi	r24, 0x3C	; 60
    30f8:	90 e0       	ldi	r25, 0x00	; 0
    30fa:	fc 01       	movw	r30, r24
    30fc:	80 81       	ld	r24, Z
    30fe:	88 2f       	mov	r24, r24
    3100:	90 e0       	ldi	r25, 0x00	; 0
    3102:	82 70       	andi	r24, 0x02	; 2
    3104:	99 27       	eor	r25, r25
    3106:	89 2b       	or	r24, r25
    3108:	b1 f7       	brne	.-20     	; 0x30f6 <save_ip_addresses+0x90>
		eeprom_write_byte((unsigned char *)(ROUTER_IP_EEPROM_STORE + count),router_ip[count]);
    310a:	8b 81       	ldd	r24, Y+3	; 0x03
    310c:	88 2f       	mov	r24, r24
    310e:	90 e0       	ldi	r25, 0x00	; 0
    3110:	8e 55       	subi	r24, 0x5E	; 94
    3112:	9a 4f       	sbci	r25, 0xFA	; 250
    3114:	fc 01       	movw	r30, r24
    3116:	20 81       	ld	r18, Z
    3118:	8b 81       	ldd	r24, Y+3	; 0x03
    311a:	88 2f       	mov	r24, r24
    311c:	90 e0       	ldi	r25, 0x00	; 0
    311e:	86 96       	adiw	r24, 0x26	; 38
    3120:	62 2f       	mov	r22, r18
    3122:	0e 94 5c 3f 	call	0x7eb8	; 0x7eb8 <eeprom_write_byte>
	for (unsigned char count = 0; count<4; count++)
	{
		eeprom_busy_wait ();
		eeprom_write_byte((unsigned char *)(NETMASK_EEPROM_STORE + count),netmask[count]);
	}
	for (unsigned char count = 0; count<4; count++)
    3126:	8b 81       	ldd	r24, Y+3	; 0x03
    3128:	8f 5f       	subi	r24, 0xFF	; 255
    312a:	8b 83       	std	Y+3, r24	; 0x03
    312c:	8b 81       	ldd	r24, Y+3	; 0x03
    312e:	84 30       	cpi	r24, 0x04	; 4
    3130:	10 f3       	brcs	.-60     	; 0x30f6 <save_ip_addresses+0x90>
	{
		eeprom_busy_wait ();
		eeprom_write_byte((unsigned char *)(DNS_IP_EEPROM_STORE + count),dns_server_ip[count]);
	}
	#endif //USE_DNS
}
    3132:	0f 90       	pop	r0
    3134:	0f 90       	pop	r0
    3136:	0f 90       	pop	r0
    3138:	df 91       	pop	r29
    313a:	cf 91       	pop	r28
    313c:	08 95       	ret

0000313e <read_ip_addresses>:

//------------------------------------------------------------------------------
//Read all IP-Datas
void read_ip_addresses (void)
{
    313e:	0f 93       	push	r16
    3140:	1f 93       	push	r17
    3142:	cf 93       	push	r28
    3144:	df 93       	push	r29
    3146:	cd b7       	in	r28, 0x3d	; 61
    3148:	de b7       	in	r29, 0x3e	; 62
	(*((unsigned long*)&myip[0]))      = get_eeprom_value(IP_EEPROM_STORE,MYIP);
    314a:	0e e9       	ldi	r16, 0x9E	; 158
    314c:	15 e0       	ldi	r17, 0x05	; 5
    314e:	40 ec       	ldi	r20, 0xC0	; 192
    3150:	58 ea       	ldi	r21, 0xA8	; 168
    3152:	61 e0       	ldi	r22, 0x01	; 1
    3154:	73 e6       	ldi	r23, 0x63	; 99
    3156:	8e e1       	ldi	r24, 0x1E	; 30
    3158:	90 e0       	ldi	r25, 0x00	; 0
    315a:	0e 94 60 22 	call	0x44c0	; 0x44c0 <get_eeprom_value>
    315e:	dc 01       	movw	r26, r24
    3160:	cb 01       	movw	r24, r22
    3162:	f8 01       	movw	r30, r16
    3164:	80 83       	st	Z, r24
    3166:	91 83       	std	Z+1, r25	; 0x01
    3168:	a2 83       	std	Z+2, r26	; 0x02
    316a:	b3 83       	std	Z+3, r27	; 0x03
	(*((unsigned long*)&netmask[0]))   = get_eeprom_value(NETMASK_EEPROM_STORE,NETMASK);
    316c:	06 ea       	ldi	r16, 0xA6	; 166
    316e:	15 e0       	ldi	r17, 0x05	; 5
    3170:	4f ef       	ldi	r20, 0xFF	; 255
    3172:	5f ef       	ldi	r21, 0xFF	; 255
    3174:	6f ef       	ldi	r22, 0xFF	; 255
    3176:	70 e0       	ldi	r23, 0x00	; 0
    3178:	82 e2       	ldi	r24, 0x22	; 34
    317a:	90 e0       	ldi	r25, 0x00	; 0
    317c:	0e 94 60 22 	call	0x44c0	; 0x44c0 <get_eeprom_value>
    3180:	dc 01       	movw	r26, r24
    3182:	cb 01       	movw	r24, r22
    3184:	f8 01       	movw	r30, r16
    3186:	80 83       	st	Z, r24
    3188:	91 83       	std	Z+1, r25	; 0x01
    318a:	a2 83       	std	Z+2, r26	; 0x02
    318c:	b3 83       	std	Z+3, r27	; 0x03
	(*((unsigned long*)&router_ip[0])) = get_eeprom_value(ROUTER_IP_EEPROM_STORE,ROUTER_IP);
    318e:	02 ea       	ldi	r16, 0xA2	; 162
    3190:	15 e0       	ldi	r17, 0x05	; 5
    3192:	40 ec       	ldi	r20, 0xC0	; 192
    3194:	58 ea       	ldi	r21, 0xA8	; 168
    3196:	61 e0       	ldi	r22, 0x01	; 1
    3198:	71 e0       	ldi	r23, 0x01	; 1
    319a:	86 e2       	ldi	r24, 0x26	; 38
    319c:	90 e0       	ldi	r25, 0x00	; 0
    319e:	0e 94 60 22 	call	0x44c0	; 0x44c0 <get_eeprom_value>
    31a2:	dc 01       	movw	r26, r24
    31a4:	cb 01       	movw	r24, r22
    31a6:	f8 01       	movw	r30, r16
    31a8:	80 83       	st	Z, r24
    31aa:	91 83       	std	Z+1, r25	; 0x01
    31ac:	a2 83       	std	Z+2, r26	; 0x02
    31ae:	b3 83       	std	Z+3, r27	; 0x03
	//Broadcast-Adresse berechnen
	(*((unsigned long*)&broadcast_ip[0])) = (((*((unsigned long*)&myip[0])) & (*((unsigned long*)&netmask[0]))) | (~(*((unsigned long*)&netmask[0]))));
    31b0:	6b ea       	ldi	r22, 0xAB	; 171
    31b2:	75 e0       	ldi	r23, 0x05	; 5
    31b4:	8e e9       	ldi	r24, 0x9E	; 158
    31b6:	95 e0       	ldi	r25, 0x05	; 5
    31b8:	fc 01       	movw	r30, r24
    31ba:	20 81       	ld	r18, Z
    31bc:	31 81       	ldd	r19, Z+1	; 0x01
    31be:	42 81       	ldd	r20, Z+2	; 0x02
    31c0:	53 81       	ldd	r21, Z+3	; 0x03
    31c2:	86 ea       	ldi	r24, 0xA6	; 166
    31c4:	95 e0       	ldi	r25, 0x05	; 5
    31c6:	fc 01       	movw	r30, r24
    31c8:	80 81       	ld	r24, Z
    31ca:	91 81       	ldd	r25, Z+1	; 0x01
    31cc:	a2 81       	ldd	r26, Z+2	; 0x02
    31ce:	b3 81       	ldd	r27, Z+3	; 0x03
    31d0:	28 23       	and	r18, r24
    31d2:	39 23       	and	r19, r25
    31d4:	4a 23       	and	r20, r26
    31d6:	5b 23       	and	r21, r27
    31d8:	86 ea       	ldi	r24, 0xA6	; 166
    31da:	95 e0       	ldi	r25, 0x05	; 5
    31dc:	fc 01       	movw	r30, r24
    31de:	80 81       	ld	r24, Z
    31e0:	91 81       	ldd	r25, Z+1	; 0x01
    31e2:	a2 81       	ldd	r26, Z+2	; 0x02
    31e4:	b3 81       	ldd	r27, Z+3	; 0x03
    31e6:	80 95       	com	r24
    31e8:	90 95       	com	r25
    31ea:	a0 95       	com	r26
    31ec:	b0 95       	com	r27
    31ee:	82 2b       	or	r24, r18
    31f0:	93 2b       	or	r25, r19
    31f2:	a4 2b       	or	r26, r20
    31f4:	b5 2b       	or	r27, r21
    31f6:	fb 01       	movw	r30, r22
    31f8:	80 83       	st	Z, r24
    31fa:	91 83       	std	Z+1, r25	; 0x01
    31fc:	a2 83       	std	Z+2, r26	; 0x02
    31fe:	b3 83       	std	Z+3, r27	; 0x03
	#if USE_DNS
	//DNS-Server IP aus EEPROM auslesen
	(*((unsigned long*)&dns_server_ip[0])) = get_eeprom_value(DNS_IP_EEPROM_STORE,DNS_IP);
	#endif

}
    3200:	df 91       	pop	r29
    3202:	cf 91       	pop	r28
    3204:	1f 91       	pop	r17
    3206:	0f 91       	pop	r16
    3208:	08 95       	ret

0000320a <main>:


//----------------------------------------------------------------------------
//Hier startet das Hauptprogramm
int main(void)
{  
    320a:	cf 93       	push	r28
    320c:	df 93       	push	r29
    320e:	cd b7       	in	r28, 0x3d	; 61
    3210:	de b7       	in	r29, 0x3e	; 62
    3212:	29 97       	sbiw	r28, 0x09	; 9
    3214:	0f b6       	in	r0, 0x3f	; 63
    3216:	f8 94       	cli
    3218:	de bf       	out	0x3e, r29	; 62
    321a:	0f be       	out	0x3f, r0	; 63
    321c:	cd bf       	out	0x3d, r28	; 61
	unsigned char reset_counter = 0;
    321e:	19 82       	std	Y+1, r1	; 0x01
	unsigned long time_update = 0;
    3220:	1a 82       	std	Y+2, r1	; 0x02
    3222:	1b 82       	std	Y+3, r1	; 0x03
    3224:	1c 82       	std	Y+4, r1	; 0x04
    3226:	1d 82       	std	Y+5, r1	; 0x05
	
	//Konfiguration der Ausgnge bzw. Eingnge
	//definition erfolgt in der config.h
	DDRA = OUTA;
    3228:	8a e3       	ldi	r24, 0x3A	; 58
    322a:	90 e0       	ldi	r25, 0x00	; 0
    322c:	27 e0       	ldi	r18, 0x07	; 7
    322e:	fc 01       	movw	r30, r24
    3230:	20 83       	st	Z, r18
	DDRC = OUTC;
    3232:	84 e3       	ldi	r24, 0x34	; 52
    3234:	90 e0       	ldi	r25, 0x00	; 0
    3236:	fc 01       	movw	r30, r24
    3238:	10 82       	st	Z, r1
	DDRD = OUTD;
    323a:	81 e3       	ldi	r24, 0x31	; 49
    323c:	90 e0       	ldi	r25, 0x00	; 0
    323e:	fc 01       	movw	r30, r24
    3240:	10 82       	st	Z, r1
	
    unsigned long a;
	
    usart_init(BAUDRATE); // setup the UART
    3242:	60 e8       	ldi	r22, 0x80	; 128
    3244:	75 e2       	ldi	r23, 0x25	; 37
    3246:	80 e0       	ldi	r24, 0x00	; 0
    3248:	90 e0       	ldi	r25, 0x00	; 0
    324a:	0e 94 c5 39 	call	0x738a	; 0x738a <usart_init>
	
	usart_write("\n\rSystem Ready\n\r");
    324e:	83 e0       	ldi	r24, 0x03	; 3
    3250:	9d e1       	ldi	r25, 0x1D	; 29
    3252:	29 2f       	mov	r18, r25
    3254:	2f 93       	push	r18
    3256:	8f 93       	push	r24
    3258:	0e 94 31 3a 	call	0x7462	; 0x7462 <usart_write_P>
    325c:	0f 90       	pop	r0
    325e:	0f 90       	pop	r0
    usart_write("Compiliert am "__DATE__" um "__TIME__"\r\n");
    3260:	84 e1       	ldi	r24, 0x14	; 20
    3262:	9d e1       	ldi	r25, 0x1D	; 29
    3264:	29 2f       	mov	r18, r25
    3266:	2f 93       	push	r18
    3268:	8f 93       	push	r24
    326a:	0e 94 31 3a 	call	0x7462	; 0x7462 <usart_write_P>
    326e:	0f 90       	pop	r0
    3270:	0f 90       	pop	r0
    usart_write("Compiliert mit GCC Version "__VERSION__"\r\n");
    3272:	8c e3       	ldi	r24, 0x3C	; 60
    3274:	9d e1       	ldi	r25, 0x1D	; 29
    3276:	29 2f       	mov	r18, r25
    3278:	2f 93       	push	r18
    327a:	8f 93       	push	r24
    327c:	0e 94 31 3a 	call	0x7462	; 0x7462 <usart_write_P>
    3280:	0f 90       	pop	r0
    3282:	0f 90       	pop	r0

	for(a=0;a<1000000;a++){asm("nop");};
    3284:	1e 82       	std	Y+6, r1	; 0x06
    3286:	1f 82       	std	Y+7, r1	; 0x07
    3288:	18 86       	std	Y+8, r1	; 0x08
    328a:	19 86       	std	Y+9, r1	; 0x09
    328c:	0c c0       	rjmp	.+24     	; 0x32a6 <main+0x9c>
    328e:	00 00       	nop
    3290:	8e 81       	ldd	r24, Y+6	; 0x06
    3292:	9f 81       	ldd	r25, Y+7	; 0x07
    3294:	a8 85       	ldd	r26, Y+8	; 0x08
    3296:	b9 85       	ldd	r27, Y+9	; 0x09
    3298:	01 96       	adiw	r24, 0x01	; 1
    329a:	a1 1d       	adc	r26, r1
    329c:	b1 1d       	adc	r27, r1
    329e:	8e 83       	std	Y+6, r24	; 0x06
    32a0:	9f 83       	std	Y+7, r25	; 0x07
    32a2:	a8 87       	std	Y+8, r26	; 0x08
    32a4:	b9 87       	std	Y+9, r27	; 0x09
    32a6:	8e 81       	ldd	r24, Y+6	; 0x06
    32a8:	9f 81       	ldd	r25, Y+7	; 0x07
    32aa:	a8 85       	ldd	r26, Y+8	; 0x08
    32ac:	b9 85       	ldd	r27, Y+9	; 0x09
    32ae:	80 34       	cpi	r24, 0x40	; 64
    32b0:	92 44       	sbci	r25, 0x42	; 66
    32b2:	af 40       	sbci	r26, 0x0F	; 15
    32b4:	b1 05       	cpc	r27, r1
    32b6:	58 f3       	brcs	.-42     	; 0x328e <main+0x84>

	//Applikationen starten
	stack_init();
    32b8:	0e 94 b1 21 	call	0x4362	; 0x4362 <stack_init>
    
    #if USE_SNMP
    snmp_init();
    32bc:	0e 94 0b 1f 	call	0x3e16	; 0x3e16 <snmp_init>
    #endif
		
	//Ethernetcard Interrupt enable
	ETH_INT_ENABLE;
    32c0:	8b e5       	ldi	r24, 0x5B	; 91
    32c2:	90 e0       	ldi	r25, 0x00	; 0
    32c4:	2b e5       	ldi	r18, 0x5B	; 91
    32c6:	30 e0       	ldi	r19, 0x00	; 0
    32c8:	f9 01       	movw	r30, r18
    32ca:	20 81       	ld	r18, Z
    32cc:	20 62       	ori	r18, 0x20	; 32
    32ce:	fc 01       	movw	r30, r24
    32d0:	20 83       	st	Z, r18
	
	//Globale Interrupts einschalten
	sei(); 
    32d2:	78 94       	sei
		
    usart_write("\r\nIP   %1i.%1i.%1i.%1i\r\n", myip[0]     , myip[1]     , myip[2]     , myip[3]);
    32d4:	80 91 a1 05 	lds	r24, 0x05A1	; 0x8005a1 <myip+0x3>
    32d8:	e8 2f       	mov	r30, r24
    32da:	f0 e0       	ldi	r31, 0x00	; 0
    32dc:	80 91 a0 05 	lds	r24, 0x05A0	; 0x8005a0 <myip+0x2>
    32e0:	68 2f       	mov	r22, r24
    32e2:	70 e0       	ldi	r23, 0x00	; 0
    32e4:	80 91 9f 05 	lds	r24, 0x059F	; 0x80059f <myip+0x1>
    32e8:	48 2f       	mov	r20, r24
    32ea:	50 e0       	ldi	r21, 0x00	; 0
    32ec:	80 91 9e 05 	lds	r24, 0x059E	; 0x80059e <myip>
    32f0:	28 2f       	mov	r18, r24
    32f2:	30 e0       	ldi	r19, 0x00	; 0
    32f4:	8f e5       	ldi	r24, 0x5F	; 95
    32f6:	9d e1       	ldi	r25, 0x1D	; 29
    32f8:	af 2f       	mov	r26, r31
    32fa:	af 93       	push	r26
    32fc:	ef 93       	push	r30
    32fe:	e7 2f       	mov	r30, r23
    3300:	ef 93       	push	r30
    3302:	6f 93       	push	r22
    3304:	65 2f       	mov	r22, r21
    3306:	6f 93       	push	r22
    3308:	4f 93       	push	r20
    330a:	43 2f       	mov	r20, r19
    330c:	4f 93       	push	r20
    330e:	2f 93       	push	r18
    3310:	29 2f       	mov	r18, r25
    3312:	2f 93       	push	r18
    3314:	8f 93       	push	r24
    3316:	0e 94 31 3a 	call	0x7462	; 0x7462 <usart_write_P>
    331a:	8d b7       	in	r24, 0x3d	; 61
    331c:	9e b7       	in	r25, 0x3e	; 62
    331e:	0a 96       	adiw	r24, 0x0a	; 10
    3320:	0f b6       	in	r0, 0x3f	; 63
    3322:	f8 94       	cli
    3324:	de bf       	out	0x3e, r29	; 62
    3326:	0f be       	out	0x3f, r0	; 63
    3328:	cd bf       	out	0x3d, r28	; 61
    usart_write("MASK %1i.%1i.%1i.%1i\r\n", netmask[0]  , netmask[1]  , netmask[2]  , netmask[3]);
    332a:	80 91 a9 05 	lds	r24, 0x05A9	; 0x8005a9 <netmask+0x3>
    332e:	e8 2f       	mov	r30, r24
    3330:	f0 e0       	ldi	r31, 0x00	; 0
    3332:	80 91 a8 05 	lds	r24, 0x05A8	; 0x8005a8 <netmask+0x2>
    3336:	68 2f       	mov	r22, r24
    3338:	70 e0       	ldi	r23, 0x00	; 0
    333a:	80 91 a7 05 	lds	r24, 0x05A7	; 0x8005a7 <netmask+0x1>
    333e:	48 2f       	mov	r20, r24
    3340:	50 e0       	ldi	r21, 0x00	; 0
    3342:	80 91 a6 05 	lds	r24, 0x05A6	; 0x8005a6 <netmask>
    3346:	28 2f       	mov	r18, r24
    3348:	30 e0       	ldi	r19, 0x00	; 0
    334a:	88 e7       	ldi	r24, 0x78	; 120
    334c:	9d e1       	ldi	r25, 0x1D	; 29
    334e:	af 2f       	mov	r26, r31
    3350:	af 93       	push	r26
    3352:	ef 93       	push	r30
    3354:	e7 2f       	mov	r30, r23
    3356:	ef 93       	push	r30
    3358:	6f 93       	push	r22
    335a:	65 2f       	mov	r22, r21
    335c:	6f 93       	push	r22
    335e:	4f 93       	push	r20
    3360:	43 2f       	mov	r20, r19
    3362:	4f 93       	push	r20
    3364:	2f 93       	push	r18
    3366:	29 2f       	mov	r18, r25
    3368:	2f 93       	push	r18
    336a:	8f 93       	push	r24
    336c:	0e 94 31 3a 	call	0x7462	; 0x7462 <usart_write_P>
    3370:	ed b7       	in	r30, 0x3d	; 61
    3372:	fe b7       	in	r31, 0x3e	; 62
    3374:	3a 96       	adiw	r30, 0x0a	; 10
    3376:	0f b6       	in	r0, 0x3f	; 63
    3378:	f8 94       	cli
    337a:	de bf       	out	0x3e, r29	; 62
    337c:	0f be       	out	0x3f, r0	; 63
    337e:	cd bf       	out	0x3d, r28	; 61
    usart_write("GW   %1i.%1i.%1i.%1i\r\n", router_ip[0], router_ip[1], router_ip[2], router_ip[3]);
    3380:	80 91 a5 05 	lds	r24, 0x05A5	; 0x8005a5 <router_ip+0x3>
    3384:	e8 2f       	mov	r30, r24
    3386:	f0 e0       	ldi	r31, 0x00	; 0
    3388:	80 91 a4 05 	lds	r24, 0x05A4	; 0x8005a4 <router_ip+0x2>
    338c:	68 2f       	mov	r22, r24
    338e:	70 e0       	ldi	r23, 0x00	; 0
    3390:	80 91 a3 05 	lds	r24, 0x05A3	; 0x8005a3 <router_ip+0x1>
    3394:	48 2f       	mov	r20, r24
    3396:	50 e0       	ldi	r21, 0x00	; 0
    3398:	80 91 a2 05 	lds	r24, 0x05A2	; 0x8005a2 <router_ip>
    339c:	28 2f       	mov	r18, r24
    339e:	30 e0       	ldi	r19, 0x00	; 0
    33a0:	8f e8       	ldi	r24, 0x8F	; 143
    33a2:	9d e1       	ldi	r25, 0x1D	; 29
    33a4:	af 2f       	mov	r26, r31
    33a6:	af 93       	push	r26
    33a8:	ef 93       	push	r30
    33aa:	e7 2f       	mov	r30, r23
    33ac:	ef 93       	push	r30
    33ae:	6f 93       	push	r22
    33b0:	65 2f       	mov	r22, r21
    33b2:	6f 93       	push	r22
    33b4:	4f 93       	push	r20
    33b6:	43 2f       	mov	r20, r19
    33b8:	4f 93       	push	r20
    33ba:	2f 93       	push	r18
    33bc:	29 2f       	mov	r18, r25
    33be:	2f 93       	push	r18
    33c0:	8f 93       	push	r24
    33c2:	0e 94 31 3a 	call	0x7462	; 0x7462 <usart_write_P>
    33c6:	8d b7       	in	r24, 0x3d	; 61
    33c8:	9e b7       	in	r25, 0x3e	; 62
    33ca:	0a 96       	adiw	r24, 0x0a	; 10
    33cc:	0f b6       	in	r0, 0x3f	; 63
    33ce:	f8 94       	cli
    33d0:	de bf       	out	0x3e, r29	; 62
    33d2:	0f be       	out	0x3f, r0	; 63
    33d4:	cd bf       	out	0x3d, r28	; 61
	    	
	while(1)
	{
	    eth_get_data();
    33d6:	0e 94 9d 25 	call	0x4b3a	; 0x4b3a <eth_get_data>
				
        //Terminalcommandos auswerten
		if (usart_status.usart_ready){
    33da:	80 91 f6 01 	lds	r24, 0x01F6	; 0x8001f6 <usart_status>
    33de:	81 70       	andi	r24, 0x01	; 1
    33e0:	88 23       	and	r24, r24
    33e2:	39 f1       	breq	.+78     	; 0x3432 <main+0x228>
            usart_write("\r\n");
    33e4:	86 ea       	ldi	r24, 0xA6	; 166
    33e6:	9d e1       	ldi	r25, 0x1D	; 29
    33e8:	29 2f       	mov	r18, r25
    33ea:	2f 93       	push	r18
    33ec:	8f 93       	push	r24
    33ee:	0e 94 31 3a 	call	0x7462	; 0x7462 <usart_write_P>
    33f2:	0f 90       	pop	r0
    33f4:	0f 90       	pop	r0
			if(extract_cmd(&usart_rx_buffer[0]))
    33f6:	87 ef       	ldi	r24, 0xF7	; 247
    33f8:	91 e0       	ldi	r25, 0x01	; 1
    33fa:	0e 94 a8 11 	call	0x2350	; 0x2350 <extract_cmd>
    33fe:	88 23       	and	r24, r24
    3400:	51 f0       	breq	.+20     	; 0x3416 <main+0x20c>
			{
				usart_write("Ready\r\n\r\n");
    3402:	89 ea       	ldi	r24, 0xA9	; 169
    3404:	9d e1       	ldi	r25, 0x1D	; 29
    3406:	29 2f       	mov	r18, r25
    3408:	2f 93       	push	r18
    340a:	8f 93       	push	r24
    340c:	0e 94 31 3a 	call	0x7462	; 0x7462 <usart_write_P>
    3410:	0f 90       	pop	r0
    3412:	0f 90       	pop	r0
    3414:	09 c0       	rjmp	.+18     	; 0x3428 <main+0x21e>
			}
			else
			{
				usart_write("ERROR\r\n\r\n");
    3416:	83 eb       	ldi	r24, 0xB3	; 179
    3418:	9d e1       	ldi	r25, 0x1D	; 29
    341a:	29 2f       	mov	r18, r25
    341c:	2f 93       	push	r18
    341e:	8f 93       	push	r24
    3420:	0e 94 31 3a 	call	0x7462	; 0x7462 <usart_write_P>
    3424:	0f 90       	pop	r0
    3426:	0f 90       	pop	r0
			}
			usart_status.usart_ready =0;
    3428:	80 91 f6 01 	lds	r24, 0x01F6	; 0x8001f6 <usart_status>
    342c:	8e 7f       	andi	r24, 0xFE	; 254
    342e:	80 93 f6 01 	sts	0x01F6, r24	; 0x8001f6 <usart_status>
		}
        
        if(ping.result)
    3432:	80 91 9b 05 	lds	r24, 0x059B	; 0x80059b <ping+0x5>
    3436:	88 23       	and	r24, r24
    3438:	69 f1       	breq	.+90     	; 0x3494 <main+0x28a>
        {
            usart_write("Get PONG: %i.%i.%i.%i\r\n",ping.ip1[0],ping.ip1[1],ping.ip1[2],ping.ip1[3]); 
    343a:	80 91 99 05 	lds	r24, 0x0599	; 0x800599 <ping+0x3>
    343e:	e8 2f       	mov	r30, r24
    3440:	f0 e0       	ldi	r31, 0x00	; 0
    3442:	80 91 98 05 	lds	r24, 0x0598	; 0x800598 <ping+0x2>
    3446:	68 2f       	mov	r22, r24
    3448:	70 e0       	ldi	r23, 0x00	; 0
    344a:	80 91 97 05 	lds	r24, 0x0597	; 0x800597 <ping+0x1>
    344e:	48 2f       	mov	r20, r24
    3450:	50 e0       	ldi	r21, 0x00	; 0
    3452:	80 91 96 05 	lds	r24, 0x0596	; 0x800596 <ping>
    3456:	28 2f       	mov	r18, r24
    3458:	30 e0       	ldi	r19, 0x00	; 0
    345a:	8d eb       	ldi	r24, 0xBD	; 189
    345c:	9d e1       	ldi	r25, 0x1D	; 29
    345e:	af 2f       	mov	r26, r31
    3460:	af 93       	push	r26
    3462:	ef 93       	push	r30
    3464:	e7 2f       	mov	r30, r23
    3466:	ef 93       	push	r30
    3468:	6f 93       	push	r22
    346a:	65 2f       	mov	r22, r21
    346c:	6f 93       	push	r22
    346e:	4f 93       	push	r20
    3470:	43 2f       	mov	r20, r19
    3472:	4f 93       	push	r20
    3474:	2f 93       	push	r18
    3476:	29 2f       	mov	r18, r25
    3478:	2f 93       	push	r18
    347a:	8f 93       	push	r24
    347c:	0e 94 31 3a 	call	0x7462	; 0x7462 <usart_write_P>
    3480:	ed b7       	in	r30, 0x3d	; 61
    3482:	fe b7       	in	r31, 0x3e	; 62
    3484:	3a 96       	adiw	r30, 0x0a	; 10
    3486:	0f b6       	in	r0, 0x3f	; 63
    3488:	f8 94       	cli
    348a:	de bf       	out	0x3e, r29	; 62
    348c:	0f be       	out	0x3f, r0	; 63
    348e:	cd bf       	out	0x3d, r28	; 61
            ping.result = 0;
    3490:	10 92 9b 05 	sts	0x059B, r1	; 0x80059b <ping+0x5>
        }
		
		#if USE_ENC28J60
			//wird jede Sekunde aufgerufen
			if(time != time_update)
    3494:	20 91 33 03 	lds	r18, 0x0333	; 0x800333 <time>
    3498:	30 91 34 03 	lds	r19, 0x0334	; 0x800334 <time+0x1>
    349c:	40 91 35 03 	lds	r20, 0x0335	; 0x800335 <time+0x2>
    34a0:	50 91 36 03 	lds	r21, 0x0336	; 0x800336 <time+0x3>
    34a4:	8a 81       	ldd	r24, Y+2	; 0x02
    34a6:	9b 81       	ldd	r25, Y+3	; 0x03
    34a8:	ac 81       	ldd	r26, Y+4	; 0x04
    34aa:	bd 81       	ldd	r27, Y+5	; 0x05
    34ac:	28 17       	cp	r18, r24
    34ae:	39 07       	cpc	r19, r25
    34b0:	4a 07       	cpc	r20, r26
    34b2:	5b 07       	cpc	r21, r27
    34b4:	19 f1       	breq	.+70     	; 0x34fc <main+0x2f2>
			{
				time_update = time;
    34b6:	80 91 33 03 	lds	r24, 0x0333	; 0x800333 <time>
    34ba:	90 91 34 03 	lds	r25, 0x0334	; 0x800334 <time+0x1>
    34be:	a0 91 35 03 	lds	r26, 0x0335	; 0x800335 <time+0x2>
    34c2:	b0 91 36 03 	lds	r27, 0x0336	; 0x800336 <time+0x3>
    34c6:	8a 83       	std	Y+2, r24	; 0x02
    34c8:	9b 83       	std	Y+3, r25	; 0x03
    34ca:	ac 83       	std	Y+4, r26	; 0x04
    34cc:	bd 83       	std	Y+5, r27	; 0x05
				if(eth.no_reset)
    34ce:	80 91 97 02 	lds	r24, 0x0297	; 0x800297 <eth>
    34d2:	82 fb       	bst	r24, 2
    34d4:	88 27       	eor	r24, r24
    34d6:	80 f9       	bld	r24, 0
    34d8:	88 23       	and	r24, r24
    34da:	39 f0       	breq	.+14     	; 0x34ea <main+0x2e0>
				{
					reset_counter = 0;
    34dc:	19 82       	std	Y+1, r1	; 0x01
					eth.no_reset = 0;
    34de:	80 91 97 02 	lds	r24, 0x0297	; 0x800297 <eth>
    34e2:	8b 7f       	andi	r24, 0xFB	; 251
    34e4:	80 93 97 02 	sts	0x0297, r24	; 0x800297 <eth>
    34e8:	09 c0       	rjmp	.+18     	; 0x34fc <main+0x2f2>
				}
				else
				{
					if((reset_counter++)>5)
    34ea:	89 81       	ldd	r24, Y+1	; 0x01
    34ec:	91 e0       	ldi	r25, 0x01	; 1
    34ee:	98 0f       	add	r25, r24
    34f0:	99 83       	std	Y+1, r25	; 0x01
    34f2:	86 30       	cpi	r24, 0x06	; 6
    34f4:	18 f0       	brcs	.+6      	; 0x34fc <main+0x2f2>
					{
						reset_counter = 0;
    34f6:	19 82       	std	Y+1, r1	; 0x01
						enc_init();
    34f8:	0e 94 fd 1d 	call	0x3bfa	; 0x3bfa <enc_init>
					}
				}
                
			}			
		#endif
    }//while (1)
    34fc:	6c cf       	rjmp	.-296    	; 0x33d6 <main+0x1cc>

000034fe <usdelay>:
};

//-----------------------------------------------------------------------------

static void usdelay( unsigned int us )
{
    34fe:	cf 93       	push	r28
    3500:	df 93       	push	r29
    3502:	00 d0       	rcall	.+0      	; 0x3504 <usdelay+0x6>
    3504:	1f 92       	push	r1
    3506:	cd b7       	in	r28, 0x3d	; 61
    3508:	de b7       	in	r29, 0x3e	; 62
    350a:	9b 83       	std	Y+3, r25	; 0x03
    350c:	8a 83       	std	Y+2, r24	; 0x02
	while( us-- ) {
    350e:	0a c0       	rjmp	.+20     	; 0x3524 <usdelay+0x26>
		// 4 times * 4 cycles gives 16 cyles = 1 us with 16 MHz clocking
		unsigned char i=4;
    3510:	84 e0       	ldi	r24, 0x04	; 4
    3512:	89 83       	std	Y+1, r24	; 0x01
		// this while loop executes with exact 4 cycles:
		while( i-- ) { asm volatile("nop"); }
    3514:	01 c0       	rjmp	.+2      	; 0x3518 <usdelay+0x1a>
    3516:	00 00       	nop
    3518:	89 81       	ldd	r24, Y+1	; 0x01
    351a:	9f ef       	ldi	r25, 0xFF	; 255
    351c:	98 0f       	add	r25, r24
    351e:	99 83       	std	Y+1, r25	; 0x01
    3520:	88 23       	and	r24, r24
    3522:	c9 f7       	brne	.-14     	; 0x3516 <usdelay+0x18>

//-----------------------------------------------------------------------------

static void usdelay( unsigned int us )
{
	while( us-- ) {
    3524:	8a 81       	ldd	r24, Y+2	; 0x02
    3526:	9b 81       	ldd	r25, Y+3	; 0x03
    3528:	9c 01       	movw	r18, r24
    352a:	21 50       	subi	r18, 0x01	; 1
    352c:	31 09       	sbc	r19, r1
    352e:	3b 83       	std	Y+3, r19	; 0x03
    3530:	2a 83       	std	Y+2, r18	; 0x02
    3532:	89 2b       	or	r24, r25
    3534:	69 f7       	brne	.-38     	; 0x3510 <usdelay+0x12>
		// 4 times * 4 cycles gives 16 cyles = 1 us with 16 MHz clocking
		unsigned char i=4;
		// this while loop executes with exact 4 cycles:
		while( i-- ) { asm volatile("nop"); }
	}
}
    3536:	0f 90       	pop	r0
    3538:	0f 90       	pop	r0
    353a:	0f 90       	pop	r0
    353c:	df 91       	pop	r29
    353e:	cf 91       	pop	r28
    3540:	08 95       	ret

00003542 <spi_init>:

//-----------------------------------------------------------------------------

static inline void spi_init(void)
{
    3542:	cf 93       	push	r28
    3544:	df 93       	push	r29
    3546:	cd b7       	in	r28, 0x3d	; 61
    3548:	de b7       	in	r29, 0x3e	; 62
	// configure pins MOSI, SCK as output
	SPI_DDR |= (1<<SPI_MOSI) | (1<<SPI_SCK);
    354a:	87 e3       	ldi	r24, 0x37	; 55
    354c:	90 e0       	ldi	r25, 0x00	; 0
    354e:	27 e3       	ldi	r18, 0x37	; 55
    3550:	30 e0       	ldi	r19, 0x00	; 0
    3552:	f9 01       	movw	r30, r18
    3554:	20 81       	ld	r18, Z
    3556:	20 6a       	ori	r18, 0xA0	; 160
    3558:	fc 01       	movw	r30, r24
    355a:	20 83       	st	Z, r18
	// pull SCK high
	SPI_PORT |= (1<<SPI_SCK);
    355c:	88 e3       	ldi	r24, 0x38	; 56
    355e:	90 e0       	ldi	r25, 0x00	; 0
    3560:	28 e3       	ldi	r18, 0x38	; 56
    3562:	30 e0       	ldi	r19, 0x00	; 0
    3564:	f9 01       	movw	r30, r18
    3566:	20 81       	ld	r18, Z
    3568:	20 68       	ori	r18, 0x80	; 128
    356a:	fc 01       	movw	r30, r24
    356c:	20 83       	st	Z, r18

	// configure pin MISO as input
	SPI_DDR &= ~(1<<SPI_MISO);
    356e:	87 e3       	ldi	r24, 0x37	; 55
    3570:	90 e0       	ldi	r25, 0x00	; 0
    3572:	27 e3       	ldi	r18, 0x37	; 55
    3574:	30 e0       	ldi	r19, 0x00	; 0
    3576:	f9 01       	movw	r30, r18
    3578:	20 81       	ld	r18, Z
    357a:	2f 7b       	andi	r18, 0xBF	; 191
    357c:	fc 01       	movw	r30, r24
    357e:	20 83       	st	Z, r18
	SPI_DDR |= (1<<SPI_SS);
    3580:	87 e3       	ldi	r24, 0x37	; 55
    3582:	90 e0       	ldi	r25, 0x00	; 0
    3584:	27 e3       	ldi	r18, 0x37	; 55
    3586:	30 e0       	ldi	r19, 0x00	; 0
    3588:	f9 01       	movw	r30, r18
    358a:	20 81       	ld	r18, Z
    358c:	20 61       	ori	r18, 0x10	; 16
    358e:	fc 01       	movw	r30, r24
    3590:	20 83       	st	Z, r18

	//SPI: enable, master, positive clock phase, msb first, SPI speed fosc/2
	SPCR = (1<<SPE) | (1<<MSTR);
    3592:	8d e2       	ldi	r24, 0x2D	; 45
    3594:	90 e0       	ldi	r25, 0x00	; 0
    3596:	20 e5       	ldi	r18, 0x50	; 80
    3598:	fc 01       	movw	r30, r24
    359a:	20 83       	st	Z, r18
	SPSR = (1<<SPI2X);
    359c:	8e e2       	ldi	r24, 0x2E	; 46
    359e:	90 e0       	ldi	r25, 0x00	; 0
    35a0:	21 e0       	ldi	r18, 0x01	; 1
    35a2:	fc 01       	movw	r30, r24
    35a4:	20 83       	st	Z, r18

	usdelay(10000);
    35a6:	80 e1       	ldi	r24, 0x10	; 16
    35a8:	97 e2       	ldi	r25, 0x27	; 39
    35aa:	0e 94 7f 1a 	call	0x34fe	; 0x34fe <usdelay>
}
    35ae:	df 91       	pop	r29
    35b0:	cf 91       	pop	r28
    35b2:	08 95       	ret

000035b4 <spi_put>:

static inline void spi_put( unsigned char value )
{
    35b4:	cf 93       	push	r28
    35b6:	df 93       	push	r29
    35b8:	1f 92       	push	r1
    35ba:	cd b7       	in	r28, 0x3d	; 61
    35bc:	de b7       	in	r29, 0x3e	; 62
    35be:	89 83       	std	Y+1, r24	; 0x01
	//ENC_DEBUG("spi_put(%2x)\n", (unsigned) value );
	SPDR = value;
    35c0:	8f e2       	ldi	r24, 0x2F	; 47
    35c2:	90 e0       	ldi	r25, 0x00	; 0
    35c4:	29 81       	ldd	r18, Y+1	; 0x01
    35c6:	fc 01       	movw	r30, r24
    35c8:	20 83       	st	Z, r18
	while( !(SPSR & (1<<SPIF)) ) ;
    35ca:	00 00       	nop
    35cc:	8e e2       	ldi	r24, 0x2E	; 46
    35ce:	90 e0       	ldi	r25, 0x00	; 0
    35d0:	fc 01       	movw	r30, r24
    35d2:	80 81       	ld	r24, Z
    35d4:	88 23       	and	r24, r24
    35d6:	d4 f7       	brge	.-12     	; 0x35cc <spi_put+0x18>
}
    35d8:	0f 90       	pop	r0
    35da:	df 91       	pop	r29
    35dc:	cf 91       	pop	r28
    35de:	08 95       	ret

000035e0 <spi_get>:

static inline unsigned char spi_get(void)
{
    35e0:	cf 93       	push	r28
    35e2:	df 93       	push	r29
    35e4:	1f 92       	push	r1
    35e6:	cd b7       	in	r28, 0x3d	; 61
    35e8:	de b7       	in	r29, 0x3e	; 62
	unsigned char value = SPDR;
    35ea:	8f e2       	ldi	r24, 0x2F	; 47
    35ec:	90 e0       	ldi	r25, 0x00	; 0
    35ee:	fc 01       	movw	r30, r24
    35f0:	80 81       	ld	r24, Z
    35f2:	89 83       	std	Y+1, r24	; 0x01
	//ENC_DEBUG("spi_get()=%2x\n", (unsigned) value );
	return value;
    35f4:	89 81       	ldd	r24, Y+1	; 0x01
}
    35f6:	0f 90       	pop	r0
    35f8:	df 91       	pop	r29
    35fa:	cf 91       	pop	r28
    35fc:	08 95       	ret

000035fe <enc_reset>:

//-----------------------------------------------------------------------------

static inline void enc_reset(void)
{
    35fe:	cf 93       	push	r28
    3600:	df 93       	push	r29
    3602:	cd b7       	in	r28, 0x3d	; 61
    3604:	de b7       	in	r29, 0x3e	; 62
	enc_select();
    3606:	88 e3       	ldi	r24, 0x38	; 56
    3608:	90 e0       	ldi	r25, 0x00	; 0
    360a:	28 e3       	ldi	r18, 0x38	; 56
    360c:	30 e0       	ldi	r19, 0x00	; 0
    360e:	f9 01       	movw	r30, r18
    3610:	20 81       	ld	r18, Z
    3612:	2f 7e       	andi	r18, 0xEF	; 239
    3614:	fc 01       	movw	r30, r24
    3616:	20 83       	st	Z, r18
	spi_put( ENC_SPI_OP_SC );
    3618:	8f ef       	ldi	r24, 0xFF	; 255
    361a:	0e 94 da 1a 	call	0x35b4	; 0x35b4 <spi_put>
	enc_deselect();
    361e:	88 e3       	ldi	r24, 0x38	; 56
    3620:	90 e0       	ldi	r25, 0x00	; 0
    3622:	28 e3       	ldi	r18, 0x38	; 56
    3624:	30 e0       	ldi	r19, 0x00	; 0
    3626:	f9 01       	movw	r30, r18
    3628:	20 81       	ld	r18, Z
    362a:	20 61       	ori	r18, 0x10	; 16
    362c:	fc 01       	movw	r30, r24
    362e:	20 83       	st	Z, r18

	// errata #2: wait for at least 300 us
	usdelay( 1000 );
    3630:	88 ee       	ldi	r24, 0xE8	; 232
    3632:	93 e0       	ldi	r25, 0x03	; 3
    3634:	0e 94 7f 1a 	call	0x34fe	; 0x34fe <usdelay>
}
    3638:	df 91       	pop	r29
    363a:	cf 91       	pop	r28
    363c:	08 95       	ret

0000363e <enc_clrbits_reg>:

static void enc_clrbits_reg( unsigned char reg, unsigned char bits )
{
    363e:	cf 93       	push	r28
    3640:	df 93       	push	r29
    3642:	00 d0       	rcall	.+0      	; 0x3644 <enc_clrbits_reg+0x6>
    3644:	1f 92       	push	r1
    3646:	cd b7       	in	r28, 0x3d	; 61
    3648:	de b7       	in	r29, 0x3e	; 62
    364a:	8a 83       	std	Y+2, r24	; 0x02
    364c:	6b 83       	std	Y+3, r22	; 0x03
	// no automatic bank switching in this function !!!

	unsigned char addr = reg & ENC_REG_ADDR_MASK;
    364e:	8a 81       	ldd	r24, Y+2	; 0x02
    3650:	8f 71       	andi	r24, 0x1F	; 31
    3652:	89 83       	std	Y+1, r24	; 0x01

	enc_select();
    3654:	88 e3       	ldi	r24, 0x38	; 56
    3656:	90 e0       	ldi	r25, 0x00	; 0
    3658:	28 e3       	ldi	r18, 0x38	; 56
    365a:	30 e0       	ldi	r19, 0x00	; 0
    365c:	f9 01       	movw	r30, r18
    365e:	20 81       	ld	r18, Z
    3660:	2f 7e       	andi	r18, 0xEF	; 239
    3662:	fc 01       	movw	r30, r24
    3664:	20 83       	st	Z, r18
	spi_put( ENC_SPI_OP_BFC | addr );
    3666:	89 81       	ldd	r24, Y+1	; 0x01
    3668:	80 6a       	ori	r24, 0xA0	; 160
    366a:	0e 94 da 1a 	call	0x35b4	; 0x35b4 <spi_put>
	spi_put( bits );
    366e:	8b 81       	ldd	r24, Y+3	; 0x03
    3670:	0e 94 da 1a 	call	0x35b4	; 0x35b4 <spi_put>
	enc_deselect();
    3674:	88 e3       	ldi	r24, 0x38	; 56
    3676:	90 e0       	ldi	r25, 0x00	; 0
    3678:	28 e3       	ldi	r18, 0x38	; 56
    367a:	30 e0       	ldi	r19, 0x00	; 0
    367c:	f9 01       	movw	r30, r18
    367e:	20 81       	ld	r18, Z
    3680:	20 61       	ori	r18, 0x10	; 16
    3682:	fc 01       	movw	r30, r24
    3684:	20 83       	st	Z, r18
}
    3686:	0f 90       	pop	r0
    3688:	0f 90       	pop	r0
    368a:	0f 90       	pop	r0
    368c:	df 91       	pop	r29
    368e:	cf 91       	pop	r28
    3690:	08 95       	ret

00003692 <enc_setbits_reg>:

static void enc_setbits_reg( unsigned char reg, unsigned char bits )
{
    3692:	cf 93       	push	r28
    3694:	df 93       	push	r29
    3696:	00 d0       	rcall	.+0      	; 0x3698 <enc_setbits_reg+0x6>
    3698:	1f 92       	push	r1
    369a:	cd b7       	in	r28, 0x3d	; 61
    369c:	de b7       	in	r29, 0x3e	; 62
    369e:	8a 83       	std	Y+2, r24	; 0x02
    36a0:	6b 83       	std	Y+3, r22	; 0x03
	// no automatic bank switching in this function !!!

	unsigned char addr = reg & ENC_REG_ADDR_MASK;
    36a2:	8a 81       	ldd	r24, Y+2	; 0x02
    36a4:	8f 71       	andi	r24, 0x1F	; 31
    36a6:	89 83       	std	Y+1, r24	; 0x01

	enc_select();
    36a8:	88 e3       	ldi	r24, 0x38	; 56
    36aa:	90 e0       	ldi	r25, 0x00	; 0
    36ac:	28 e3       	ldi	r18, 0x38	; 56
    36ae:	30 e0       	ldi	r19, 0x00	; 0
    36b0:	f9 01       	movw	r30, r18
    36b2:	20 81       	ld	r18, Z
    36b4:	2f 7e       	andi	r18, 0xEF	; 239
    36b6:	fc 01       	movw	r30, r24
    36b8:	20 83       	st	Z, r18
	spi_put( ENC_SPI_OP_BFS | addr );
    36ba:	89 81       	ldd	r24, Y+1	; 0x01
    36bc:	80 68       	ori	r24, 0x80	; 128
    36be:	0e 94 da 1a 	call	0x35b4	; 0x35b4 <spi_put>
	spi_put( bits );
    36c2:	8b 81       	ldd	r24, Y+3	; 0x03
    36c4:	0e 94 da 1a 	call	0x35b4	; 0x35b4 <spi_put>
	enc_deselect();
    36c8:	88 e3       	ldi	r24, 0x38	; 56
    36ca:	90 e0       	ldi	r25, 0x00	; 0
    36cc:	28 e3       	ldi	r18, 0x38	; 56
    36ce:	30 e0       	ldi	r19, 0x00	; 0
    36d0:	f9 01       	movw	r30, r18
    36d2:	20 81       	ld	r18, Z
    36d4:	20 61       	ori	r18, 0x10	; 16
    36d6:	fc 01       	movw	r30, r24
    36d8:	20 83       	st	Z, r18
}
    36da:	0f 90       	pop	r0
    36dc:	0f 90       	pop	r0
    36de:	0f 90       	pop	r0
    36e0:	df 91       	pop	r29
    36e2:	cf 91       	pop	r28
    36e4:	08 95       	ret

000036e6 <enc_read_reg>:

static unsigned char enc_read_reg( unsigned char reg )
{
    36e6:	cf 93       	push	r28
    36e8:	df 93       	push	r29
    36ea:	00 d0       	rcall	.+0      	; 0x36ec <enc_read_reg+0x6>
    36ec:	00 d0       	rcall	.+0      	; 0x36ee <enc_read_reg+0x8>
    36ee:	cd b7       	in	r28, 0x3d	; 61
    36f0:	de b7       	in	r29, 0x3e	; 62
    36f2:	8c 83       	std	Y+4, r24	; 0x04
	unsigned char value;
	unsigned char addr = reg & ENC_REG_ADDR_MASK;
    36f4:	8c 81       	ldd	r24, Y+4	; 0x04
    36f6:	8f 71       	andi	r24, 0x1F	; 31
    36f8:	89 83       	std	Y+1, r24	; 0x01

	if( addr < 0x1A ) {
    36fa:	89 81       	ldd	r24, Y+1	; 0x01
    36fc:	8a 31       	cpi	r24, 0x1A	; 26
    36fe:	18 f5       	brcc	.+70     	; 0x3746 <enc_read_reg+0x60>
		unsigned char bank = (reg & ENC_REG_BANK_MASK) >> ENC_REG_BANK_SHIFT;
    3700:	8c 81       	ldd	r24, Y+4	; 0x04
    3702:	88 2f       	mov	r24, r24
    3704:	90 e0       	ldi	r25, 0x00	; 0
    3706:	80 76       	andi	r24, 0x60	; 96
    3708:	99 27       	eor	r25, r25
    370a:	95 95       	asr	r25
    370c:	87 95       	ror	r24
    370e:	95 95       	asr	r25
    3710:	87 95       	ror	r24
    3712:	95 95       	asr	r25
    3714:	87 95       	ror	r24
    3716:	95 95       	asr	r25
    3718:	87 95       	ror	r24
    371a:	95 95       	asr	r25
    371c:	87 95       	ror	r24
    371e:	8a 83       	std	Y+2, r24	; 0x02
		if( bank != enc_cur_bank ) {
    3720:	80 91 c7 01 	lds	r24, 0x01C7	; 0x8001c7 <enc_cur_bank>
    3724:	9a 81       	ldd	r25, Y+2	; 0x02
    3726:	98 17       	cp	r25, r24
    3728:	71 f0       	breq	.+28     	; 0x3746 <enc_read_reg+0x60>
			// need to switch bank first
			enc_clrbits_reg( ENC_REG_ECON1, 0x03 << ENC_BIT_BSEL0 );
    372a:	63 e0       	ldi	r22, 0x03	; 3
    372c:	8f e1       	ldi	r24, 0x1F	; 31
    372e:	0e 94 1f 1b 	call	0x363e	; 0x363e <enc_clrbits_reg>
			if( bank ) {
    3732:	8a 81       	ldd	r24, Y+2	; 0x02
    3734:	88 23       	and	r24, r24
    3736:	21 f0       	breq	.+8      	; 0x3740 <enc_read_reg+0x5a>
				enc_setbits_reg( ENC_REG_ECON1, bank << ENC_BIT_BSEL0 );
    3738:	6a 81       	ldd	r22, Y+2	; 0x02
    373a:	8f e1       	ldi	r24, 0x1F	; 31
    373c:	0e 94 49 1b 	call	0x3692	; 0x3692 <enc_setbits_reg>
			}
			enc_cur_bank = bank;
    3740:	8a 81       	ldd	r24, Y+2	; 0x02
    3742:	80 93 c7 01 	sts	0x01C7, r24	; 0x8001c7 <enc_cur_bank>
		}
	}

	enc_select();
    3746:	88 e3       	ldi	r24, 0x38	; 56
    3748:	90 e0       	ldi	r25, 0x00	; 0
    374a:	28 e3       	ldi	r18, 0x38	; 56
    374c:	30 e0       	ldi	r19, 0x00	; 0
    374e:	f9 01       	movw	r30, r18
    3750:	20 81       	ld	r18, Z
    3752:	2f 7e       	andi	r18, 0xEF	; 239
    3754:	fc 01       	movw	r30, r24
    3756:	20 83       	st	Z, r18
	spi_put( ENC_SPI_OP_RCR | addr );
    3758:	89 81       	ldd	r24, Y+1	; 0x01
    375a:	0e 94 da 1a 	call	0x35b4	; 0x35b4 <spi_put>
	spi_put( 0x00 );
    375e:	80 e0       	ldi	r24, 0x00	; 0
    3760:	0e 94 da 1a 	call	0x35b4	; 0x35b4 <spi_put>
	if( reg & ENC_REG_WAIT_MASK ) spi_put( 0x00 );
    3764:	8c 81       	ldd	r24, Y+4	; 0x04
    3766:	88 23       	and	r24, r24
    3768:	1c f4       	brge	.+6      	; 0x3770 <enc_read_reg+0x8a>
    376a:	80 e0       	ldi	r24, 0x00	; 0
    376c:	0e 94 da 1a 	call	0x35b4	; 0x35b4 <spi_put>
	value = spi_get();
    3770:	0e 94 f0 1a 	call	0x35e0	; 0x35e0 <spi_get>
    3774:	8b 83       	std	Y+3, r24	; 0x03
	enc_deselect();
    3776:	88 e3       	ldi	r24, 0x38	; 56
    3778:	90 e0       	ldi	r25, 0x00	; 0
    377a:	28 e3       	ldi	r18, 0x38	; 56
    377c:	30 e0       	ldi	r19, 0x00	; 0
    377e:	f9 01       	movw	r30, r18
    3780:	20 81       	ld	r18, Z
    3782:	20 61       	ori	r18, 0x10	; 16
    3784:	fc 01       	movw	r30, r24
    3786:	20 83       	st	Z, r18

	return value;
    3788:	8b 81       	ldd	r24, Y+3	; 0x03
}
    378a:	0f 90       	pop	r0
    378c:	0f 90       	pop	r0
    378e:	0f 90       	pop	r0
    3790:	0f 90       	pop	r0
    3792:	df 91       	pop	r29
    3794:	cf 91       	pop	r28
    3796:	08 95       	ret

00003798 <enc_write_reg>:

static void enc_write_reg( unsigned char reg, unsigned char value )
{
    3798:	cf 93       	push	r28
    379a:	df 93       	push	r29
    379c:	00 d0       	rcall	.+0      	; 0x379e <enc_write_reg+0x6>
    379e:	00 d0       	rcall	.+0      	; 0x37a0 <enc_write_reg+0x8>
    37a0:	cd b7       	in	r28, 0x3d	; 61
    37a2:	de b7       	in	r29, 0x3e	; 62
    37a4:	8b 83       	std	Y+3, r24	; 0x03
    37a6:	6c 83       	std	Y+4, r22	; 0x04
	unsigned char addr = reg & ENC_REG_ADDR_MASK;
    37a8:	8b 81       	ldd	r24, Y+3	; 0x03
    37aa:	8f 71       	andi	r24, 0x1F	; 31
    37ac:	89 83       	std	Y+1, r24	; 0x01

	if( addr < 0x1A ) {
    37ae:	89 81       	ldd	r24, Y+1	; 0x01
    37b0:	8a 31       	cpi	r24, 0x1A	; 26
    37b2:	18 f5       	brcc	.+70     	; 0x37fa <enc_write_reg+0x62>
		unsigned char bank = (reg & ENC_REG_BANK_MASK) >> ENC_REG_BANK_SHIFT;
    37b4:	8b 81       	ldd	r24, Y+3	; 0x03
    37b6:	88 2f       	mov	r24, r24
    37b8:	90 e0       	ldi	r25, 0x00	; 0
    37ba:	80 76       	andi	r24, 0x60	; 96
    37bc:	99 27       	eor	r25, r25
    37be:	95 95       	asr	r25
    37c0:	87 95       	ror	r24
    37c2:	95 95       	asr	r25
    37c4:	87 95       	ror	r24
    37c6:	95 95       	asr	r25
    37c8:	87 95       	ror	r24
    37ca:	95 95       	asr	r25
    37cc:	87 95       	ror	r24
    37ce:	95 95       	asr	r25
    37d0:	87 95       	ror	r24
    37d2:	8a 83       	std	Y+2, r24	; 0x02
		if( bank != enc_cur_bank ) {
    37d4:	80 91 c7 01 	lds	r24, 0x01C7	; 0x8001c7 <enc_cur_bank>
    37d8:	9a 81       	ldd	r25, Y+2	; 0x02
    37da:	98 17       	cp	r25, r24
    37dc:	71 f0       	breq	.+28     	; 0x37fa <enc_write_reg+0x62>
			// need to switch bank first
			enc_clrbits_reg( ENC_REG_ECON1, 0x03 << ENC_BIT_BSEL0 );
    37de:	63 e0       	ldi	r22, 0x03	; 3
    37e0:	8f e1       	ldi	r24, 0x1F	; 31
    37e2:	0e 94 1f 1b 	call	0x363e	; 0x363e <enc_clrbits_reg>
			if( bank ) {
    37e6:	8a 81       	ldd	r24, Y+2	; 0x02
    37e8:	88 23       	and	r24, r24
    37ea:	21 f0       	breq	.+8      	; 0x37f4 <enc_write_reg+0x5c>
				enc_setbits_reg( ENC_REG_ECON1, bank << ENC_BIT_BSEL0 );
    37ec:	6a 81       	ldd	r22, Y+2	; 0x02
    37ee:	8f e1       	ldi	r24, 0x1F	; 31
    37f0:	0e 94 49 1b 	call	0x3692	; 0x3692 <enc_setbits_reg>
			}
			enc_cur_bank = bank;
    37f4:	8a 81       	ldd	r24, Y+2	; 0x02
    37f6:	80 93 c7 01 	sts	0x01C7, r24	; 0x8001c7 <enc_cur_bank>
		}
	}

	enc_select();
    37fa:	88 e3       	ldi	r24, 0x38	; 56
    37fc:	90 e0       	ldi	r25, 0x00	; 0
    37fe:	28 e3       	ldi	r18, 0x38	; 56
    3800:	30 e0       	ldi	r19, 0x00	; 0
    3802:	f9 01       	movw	r30, r18
    3804:	20 81       	ld	r18, Z
    3806:	2f 7e       	andi	r18, 0xEF	; 239
    3808:	fc 01       	movw	r30, r24
    380a:	20 83       	st	Z, r18
	spi_put( ENC_SPI_OP_WCR | addr );
    380c:	89 81       	ldd	r24, Y+1	; 0x01
    380e:	80 64       	ori	r24, 0x40	; 64
    3810:	0e 94 da 1a 	call	0x35b4	; 0x35b4 <spi_put>
	spi_put( value );
    3814:	8c 81       	ldd	r24, Y+4	; 0x04
    3816:	0e 94 da 1a 	call	0x35b4	; 0x35b4 <spi_put>
	enc_deselect();
    381a:	88 e3       	ldi	r24, 0x38	; 56
    381c:	90 e0       	ldi	r25, 0x00	; 0
    381e:	28 e3       	ldi	r18, 0x38	; 56
    3820:	30 e0       	ldi	r19, 0x00	; 0
    3822:	f9 01       	movw	r30, r18
    3824:	20 81       	ld	r18, Z
    3826:	20 61       	ori	r18, 0x10	; 16
    3828:	fc 01       	movw	r30, r24
    382a:	20 83       	st	Z, r18
}
    382c:	0f 90       	pop	r0
    382e:	0f 90       	pop	r0
    3830:	0f 90       	pop	r0
    3832:	0f 90       	pop	r0
    3834:	df 91       	pop	r29
    3836:	cf 91       	pop	r28
    3838:	08 95       	ret

0000383a <enc_write_phyreg>:
	return value;
}
#endif

static void enc_write_phyreg( unsigned char phyreg, unsigned int value )
{
    383a:	cf 93       	push	r28
    383c:	df 93       	push	r29
    383e:	00 d0       	rcall	.+0      	; 0x3840 <enc_write_phyreg+0x6>
    3840:	1f 92       	push	r1
    3842:	cd b7       	in	r28, 0x3d	; 61
    3844:	de b7       	in	r29, 0x3e	; 62
    3846:	89 83       	std	Y+1, r24	; 0x01
    3848:	7b 83       	std	Y+3, r23	; 0x03
    384a:	6a 83       	std	Y+2, r22	; 0x02
	enc_write_reg( ENC_REG_MIREGADR, phyreg );
    384c:	69 81       	ldd	r22, Y+1	; 0x01
    384e:	84 ed       	ldi	r24, 0xD4	; 212
    3850:	0e 94 cc 1b 	call	0x3798	; 0x3798 <enc_write_reg>
	enc_write_reg( ENC_REG_MIWRL, LO8(value) );
    3854:	8a 81       	ldd	r24, Y+2	; 0x02
    3856:	68 2f       	mov	r22, r24
    3858:	86 ed       	ldi	r24, 0xD6	; 214
    385a:	0e 94 cc 1b 	call	0x3798	; 0x3798 <enc_write_reg>
	enc_write_reg( ENC_REG_MIWRH, HI8(value) );
    385e:	8a 81       	ldd	r24, Y+2	; 0x02
    3860:	9b 81       	ldd	r25, Y+3	; 0x03
    3862:	89 2f       	mov	r24, r25
    3864:	99 27       	eor	r25, r25
    3866:	68 2f       	mov	r22, r24
    3868:	87 ed       	ldi	r24, 0xD7	; 215
    386a:	0e 94 cc 1b 	call	0x3798	; 0x3798 <enc_write_reg>
	usdelay(10);
    386e:	8a e0       	ldi	r24, 0x0A	; 10
    3870:	90 e0       	ldi	r25, 0x00	; 0
    3872:	0e 94 7f 1a 	call	0x34fe	; 0x34fe <usdelay>
	while( enc_read_reg( ENC_REG_MISTAT ) & (1<<ENC_BIT_BUSY) ) ;
    3876:	00 00       	nop
    3878:	8a ee       	ldi	r24, 0xEA	; 234
    387a:	0e 94 73 1b 	call	0x36e6	; 0x36e6 <enc_read_reg>
    387e:	88 2f       	mov	r24, r24
    3880:	90 e0       	ldi	r25, 0x00	; 0
    3882:	81 70       	andi	r24, 0x01	; 1
    3884:	99 27       	eor	r25, r25
    3886:	89 2b       	or	r24, r25
    3888:	b9 f7       	brne	.-18     	; 0x3878 <enc_write_phyreg+0x3e>
}
    388a:	0f 90       	pop	r0
    388c:	0f 90       	pop	r0
    388e:	0f 90       	pop	r0
    3890:	df 91       	pop	r29
    3892:	cf 91       	pop	r28
    3894:	08 95       	ret

00003896 <enc_read_buf>:

static void enc_read_buf( unsigned char *buf, unsigned int len )
{
    3896:	cf 93       	push	r28
    3898:	df 93       	push	r29
    389a:	00 d0       	rcall	.+0      	; 0x389c <enc_read_buf+0x6>
    389c:	00 d0       	rcall	.+0      	; 0x389e <enc_read_buf+0x8>
    389e:	cd b7       	in	r28, 0x3d	; 61
    38a0:	de b7       	in	r29, 0x3e	; 62
    38a2:	9a 83       	std	Y+2, r25	; 0x02
    38a4:	89 83       	std	Y+1, r24	; 0x01
    38a6:	7c 83       	std	Y+4, r23	; 0x04
    38a8:	6b 83       	std	Y+3, r22	; 0x03
	enc_select();
    38aa:	88 e3       	ldi	r24, 0x38	; 56
    38ac:	90 e0       	ldi	r25, 0x00	; 0
    38ae:	28 e3       	ldi	r18, 0x38	; 56
    38b0:	30 e0       	ldi	r19, 0x00	; 0
    38b2:	f9 01       	movw	r30, r18
    38b4:	20 81       	ld	r18, Z
    38b6:	2f 7e       	andi	r18, 0xEF	; 239
    38b8:	fc 01       	movw	r30, r24
    38ba:	20 83       	st	Z, r18
	spi_put( ENC_SPI_OP_RBM );
    38bc:	8a e3       	ldi	r24, 0x3A	; 58
    38be:	0e 94 da 1a 	call	0x35b4	; 0x35b4 <spi_put>
	for(; len > 0; len--, buf++ ) {
    38c2:	14 c0       	rjmp	.+40     	; 0x38ec <enc_read_buf+0x56>
		spi_put( 0x00 );
    38c4:	80 e0       	ldi	r24, 0x00	; 0
    38c6:	0e 94 da 1a 	call	0x35b4	; 0x35b4 <spi_put>
		*buf = spi_get();
    38ca:	0e 94 f0 1a 	call	0x35e0	; 0x35e0 <spi_get>
    38ce:	28 2f       	mov	r18, r24
    38d0:	89 81       	ldd	r24, Y+1	; 0x01
    38d2:	9a 81       	ldd	r25, Y+2	; 0x02
    38d4:	fc 01       	movw	r30, r24
    38d6:	20 83       	st	Z, r18

static void enc_read_buf( unsigned char *buf, unsigned int len )
{
	enc_select();
	spi_put( ENC_SPI_OP_RBM );
	for(; len > 0; len--, buf++ ) {
    38d8:	8b 81       	ldd	r24, Y+3	; 0x03
    38da:	9c 81       	ldd	r25, Y+4	; 0x04
    38dc:	01 97       	sbiw	r24, 0x01	; 1
    38de:	9c 83       	std	Y+4, r25	; 0x04
    38e0:	8b 83       	std	Y+3, r24	; 0x03
    38e2:	89 81       	ldd	r24, Y+1	; 0x01
    38e4:	9a 81       	ldd	r25, Y+2	; 0x02
    38e6:	01 96       	adiw	r24, 0x01	; 1
    38e8:	9a 83       	std	Y+2, r25	; 0x02
    38ea:	89 83       	std	Y+1, r24	; 0x01
    38ec:	8b 81       	ldd	r24, Y+3	; 0x03
    38ee:	9c 81       	ldd	r25, Y+4	; 0x04
    38f0:	89 2b       	or	r24, r25
    38f2:	41 f7       	brne	.-48     	; 0x38c4 <enc_read_buf+0x2e>
		spi_put( 0x00 );
		*buf = spi_get();
	}
	enc_deselect();
    38f4:	88 e3       	ldi	r24, 0x38	; 56
    38f6:	90 e0       	ldi	r25, 0x00	; 0
    38f8:	28 e3       	ldi	r18, 0x38	; 56
    38fa:	30 e0       	ldi	r19, 0x00	; 0
    38fc:	f9 01       	movw	r30, r18
    38fe:	20 81       	ld	r18, Z
    3900:	20 61       	ori	r18, 0x10	; 16
    3902:	fc 01       	movw	r30, r24
    3904:	20 83       	st	Z, r18
}
    3906:	0f 90       	pop	r0
    3908:	0f 90       	pop	r0
    390a:	0f 90       	pop	r0
    390c:	0f 90       	pop	r0
    390e:	df 91       	pop	r29
    3910:	cf 91       	pop	r28
    3912:	08 95       	ret

00003914 <enc_write_buf>:

static void enc_write_buf( unsigned char *buf, unsigned int len )
{
    3914:	cf 93       	push	r28
    3916:	df 93       	push	r29
    3918:	00 d0       	rcall	.+0      	; 0x391a <enc_write_buf+0x6>
    391a:	00 d0       	rcall	.+0      	; 0x391c <enc_write_buf+0x8>
    391c:	cd b7       	in	r28, 0x3d	; 61
    391e:	de b7       	in	r29, 0x3e	; 62
    3920:	9a 83       	std	Y+2, r25	; 0x02
    3922:	89 83       	std	Y+1, r24	; 0x01
    3924:	7c 83       	std	Y+4, r23	; 0x04
    3926:	6b 83       	std	Y+3, r22	; 0x03
	enc_select();
    3928:	88 e3       	ldi	r24, 0x38	; 56
    392a:	90 e0       	ldi	r25, 0x00	; 0
    392c:	28 e3       	ldi	r18, 0x38	; 56
    392e:	30 e0       	ldi	r19, 0x00	; 0
    3930:	f9 01       	movw	r30, r18
    3932:	20 81       	ld	r18, Z
    3934:	2f 7e       	andi	r18, 0xEF	; 239
    3936:	fc 01       	movw	r30, r24
    3938:	20 83       	st	Z, r18
	spi_put( ENC_SPI_OP_WBM );
    393a:	8a e7       	ldi	r24, 0x7A	; 122
    393c:	0e 94 da 1a 	call	0x35b4	; 0x35b4 <spi_put>
	for(; len > 0; len--, buf++ ) {
    3940:	10 c0       	rjmp	.+32     	; 0x3962 <enc_write_buf+0x4e>
		spi_put( *buf );
    3942:	89 81       	ldd	r24, Y+1	; 0x01
    3944:	9a 81       	ldd	r25, Y+2	; 0x02
    3946:	fc 01       	movw	r30, r24
    3948:	80 81       	ld	r24, Z
    394a:	0e 94 da 1a 	call	0x35b4	; 0x35b4 <spi_put>

static void enc_write_buf( unsigned char *buf, unsigned int len )
{
	enc_select();
	spi_put( ENC_SPI_OP_WBM );
	for(; len > 0; len--, buf++ ) {
    394e:	8b 81       	ldd	r24, Y+3	; 0x03
    3950:	9c 81       	ldd	r25, Y+4	; 0x04
    3952:	01 97       	sbiw	r24, 0x01	; 1
    3954:	9c 83       	std	Y+4, r25	; 0x04
    3956:	8b 83       	std	Y+3, r24	; 0x03
    3958:	89 81       	ldd	r24, Y+1	; 0x01
    395a:	9a 81       	ldd	r25, Y+2	; 0x02
    395c:	01 96       	adiw	r24, 0x01	; 1
    395e:	9a 83       	std	Y+2, r25	; 0x02
    3960:	89 83       	std	Y+1, r24	; 0x01
    3962:	8b 81       	ldd	r24, Y+3	; 0x03
    3964:	9c 81       	ldd	r25, Y+4	; 0x04
    3966:	89 2b       	or	r24, r25
    3968:	61 f7       	brne	.-40     	; 0x3942 <enc_write_buf+0x2e>
		spi_put( *buf );
	}
	enc_deselect();
    396a:	88 e3       	ldi	r24, 0x38	; 56
    396c:	90 e0       	ldi	r25, 0x00	; 0
    396e:	28 e3       	ldi	r18, 0x38	; 56
    3970:	30 e0       	ldi	r19, 0x00	; 0
    3972:	f9 01       	movw	r30, r18
    3974:	20 81       	ld	r18, Z
    3976:	20 61       	ori	r18, 0x10	; 16
    3978:	fc 01       	movw	r30, r24
    397a:	20 83       	st	Z, r18
}
    397c:	0f 90       	pop	r0
    397e:	0f 90       	pop	r0
    3980:	0f 90       	pop	r0
    3982:	0f 90       	pop	r0
    3984:	df 91       	pop	r29
    3986:	cf 91       	pop	r28
    3988:	08 95       	ret

0000398a <enc_send_packet>:

//-----------------------------------------------------------------------------

void enc_send_packet( unsigned int len, unsigned char *buf )
{
    398a:	cf 93       	push	r28
    398c:	df 93       	push	r29
    398e:	cd b7       	in	r28, 0x3d	; 61
    3990:	de b7       	in	r29, 0x3e	; 62
    3992:	27 97       	sbiw	r28, 0x07	; 7
    3994:	0f b6       	in	r0, 0x3f	; 63
    3996:	f8 94       	cli
    3998:	de bf       	out	0x3e, r29	; 62
    399a:	0f be       	out	0x3f, r0	; 63
    399c:	cd bf       	out	0x3d, r28	; 61
    399e:	9d 83       	std	Y+5, r25	; 0x05
    39a0:	8c 83       	std	Y+4, r24	; 0x04
    39a2:	7f 83       	std	Y+7, r23	; 0x07
    39a4:	6e 83       	std	Y+6, r22	; 0x06
	unsigned char ctrl = 0;
    39a6:	1b 82       	std	Y+3, r1	; 0x03
	unsigned int ms = 100;
    39a8:	84 e6       	ldi	r24, 0x64	; 100
    39aa:	90 e0       	ldi	r25, 0x00	; 0
    39ac:	9a 83       	std	Y+2, r25	; 0x02
    39ae:	89 83       	std	Y+1, r24	; 0x01

	ENC_DEBUG("enc_send: %i bytes\n", len);

	// wait up to 100 ms for the previos tx to finish
	while( ms-- ) {
    39b0:	0e c0       	rjmp	.+28     	; 0x39ce <enc_send_packet+0x44>
		if( !(enc_read_reg( ENC_REG_ECON1 ) & (1<<ENC_BIT_TXRTS)) ) break;
    39b2:	8f e1       	ldi	r24, 0x1F	; 31
    39b4:	0e 94 73 1b 	call	0x36e6	; 0x36e6 <enc_read_reg>
    39b8:	88 2f       	mov	r24, r24
    39ba:	90 e0       	ldi	r25, 0x00	; 0
    39bc:	88 70       	andi	r24, 0x08	; 8
    39be:	99 27       	eor	r25, r25
    39c0:	89 2b       	or	r24, r25
    39c2:	09 f4       	brne	.+2      	; 0x39c6 <enc_send_packet+0x3c>
    39c4:	0d c0       	rjmp	.+26     	; 0x39e0 <enc_send_packet+0x56>
		usdelay( 1000 );
    39c6:	88 ee       	ldi	r24, 0xE8	; 232
    39c8:	93 e0       	ldi	r25, 0x03	; 3
    39ca:	0e 94 7f 1a 	call	0x34fe	; 0x34fe <usdelay>
	unsigned int ms = 100;

	ENC_DEBUG("enc_send: %i bytes\n", len);

	// wait up to 100 ms for the previos tx to finish
	while( ms-- ) {
    39ce:	89 81       	ldd	r24, Y+1	; 0x01
    39d0:	9a 81       	ldd	r25, Y+2	; 0x02
    39d2:	9c 01       	movw	r18, r24
    39d4:	21 50       	subi	r18, 0x01	; 1
    39d6:	31 09       	sbc	r19, r1
    39d8:	3a 83       	std	Y+2, r19	; 0x02
    39da:	29 83       	std	Y+1, r18	; 0x01
    39dc:	89 2b       	or	r24, r25
    39de:	49 f7       	brne	.-46     	; 0x39b2 <enc_send_packet+0x28>
		usdelay( 1000 );
	}

	#ifdef FULL_DUPLEX
	// reset tx logic if TXRTS bit is still on
	if( enc_read_reg( ENC_REG_ECON1 ) & (1<<ENC_BIT_TXRTS) ) {
    39e0:	8f e1       	ldi	r24, 0x1F	; 31
    39e2:	0e 94 73 1b 	call	0x36e6	; 0x36e6 <enc_read_reg>
    39e6:	88 2f       	mov	r24, r24
    39e8:	90 e0       	ldi	r25, 0x00	; 0
    39ea:	88 70       	andi	r24, 0x08	; 8
    39ec:	99 27       	eor	r25, r25
    39ee:	89 2b       	or	r24, r25
    39f0:	41 f0       	breq	.+16     	; 0x3a02 <enc_send_packet+0x78>
	#else
	// errata #12: reset tx logic
	if( 1 ) {
	#endif
		ENC_DEBUG("enc_send: reset tx logic\n");
		enc_setbits_reg( ENC_REG_ECON1, (1<<ENC_BIT_TXRST) );
    39f2:	60 e8       	ldi	r22, 0x80	; 128
    39f4:	8f e1       	ldi	r24, 0x1F	; 31
    39f6:	0e 94 49 1b 	call	0x3692	; 0x3692 <enc_setbits_reg>
		enc_clrbits_reg( ENC_REG_ECON1, (1<<ENC_BIT_TXRST) );
    39fa:	60 e8       	ldi	r22, 0x80	; 128
    39fc:	8f e1       	ldi	r24, 0x1F	; 31
    39fe:	0e 94 1f 1b 	call	0x363e	; 0x363e <enc_clrbits_reg>
	}

	// setup write pointer
	enc_write_reg( ENC_REG_EWRPTL, LO8(ENC_TX_BUFFER_START) );
    3a02:	60 e0       	ldi	r22, 0x00	; 0
    3a04:	82 e0       	ldi	r24, 0x02	; 2
    3a06:	0e 94 cc 1b 	call	0x3798	; 0x3798 <enc_write_reg>
	enc_write_reg( ENC_REG_EWRPTH, HI8(ENC_TX_BUFFER_START) );
    3a0a:	6a e1       	ldi	r22, 0x1A	; 26
    3a0c:	83 e0       	ldi	r24, 0x03	; 3
    3a0e:	0e 94 cc 1b 	call	0x3798	; 0x3798 <enc_write_reg>

	// end pointer (points to last byte) to start + len
	enc_write_reg( ENC_REG_ETXNDL, LO8(ENC_TX_BUFFER_START+len) );
    3a12:	8c 81       	ldd	r24, Y+4	; 0x04
    3a14:	68 2f       	mov	r22, r24
    3a16:	86 e0       	ldi	r24, 0x06	; 6
    3a18:	0e 94 cc 1b 	call	0x3798	; 0x3798 <enc_write_reg>
	enc_write_reg( ENC_REG_ETXNDH, HI8(ENC_TX_BUFFER_START+len) );
    3a1c:	8c 81       	ldd	r24, Y+4	; 0x04
    3a1e:	9d 81       	ldd	r25, Y+5	; 0x05
    3a20:	96 5e       	subi	r25, 0xE6	; 230
    3a22:	89 2f       	mov	r24, r25
    3a24:	99 27       	eor	r25, r25
    3a26:	68 2f       	mov	r22, r24
    3a28:	87 e0       	ldi	r24, 0x07	; 7
    3a2a:	0e 94 cc 1b 	call	0x3798	; 0x3798 <enc_write_reg>

	// enc requires 1 control byte before the package
	enc_write_buf( &ctrl, 1 );
    3a2e:	ce 01       	movw	r24, r28
    3a30:	03 96       	adiw	r24, 0x03	; 3
    3a32:	61 e0       	ldi	r22, 0x01	; 1
    3a34:	70 e0       	ldi	r23, 0x00	; 0
    3a36:	0e 94 8a 1c 	call	0x3914	; 0x3914 <enc_write_buf>

	// copy packet to enc buffer
	enc_write_buf( buf, len );
    3a3a:	2c 81       	ldd	r18, Y+4	; 0x04
    3a3c:	3d 81       	ldd	r19, Y+5	; 0x05
    3a3e:	8e 81       	ldd	r24, Y+6	; 0x06
    3a40:	9f 81       	ldd	r25, Y+7	; 0x07
    3a42:	b9 01       	movw	r22, r18
    3a44:	0e 94 8a 1c 	call	0x3914	; 0x3914 <enc_write_buf>

	// clear TXIF flag
	enc_clrbits_reg( ENC_REG_EIR, (1<<ENC_BIT_TXIF) );
    3a48:	68 e0       	ldi	r22, 0x08	; 8
    3a4a:	8c e1       	ldi	r24, 0x1C	; 28
    3a4c:	0e 94 1f 1b 	call	0x363e	; 0x363e <enc_clrbits_reg>

	// start transmission by setting the TXRTS bit
	enc_setbits_reg( ENC_REG_ECON1, (1<<ENC_BIT_TXRTS) );
    3a50:	68 e0       	ldi	r22, 0x08	; 8
    3a52:	8f e1       	ldi	r24, 0x1F	; 31
    3a54:	0e 94 49 1b 	call	0x3692	; 0x3692 <enc_setbits_reg>
}
    3a58:	27 96       	adiw	r28, 0x07	; 7
    3a5a:	0f b6       	in	r0, 0x3f	; 63
    3a5c:	f8 94       	cli
    3a5e:	de bf       	out	0x3e, r29	; 62
    3a60:	0f be       	out	0x3f, r0	; 63
    3a62:	cd bf       	out	0x3d, r28	; 61
    3a64:	df 91       	pop	r29
    3a66:	cf 91       	pop	r28
    3a68:	08 95       	ret

00003a6a <enc_receive_packet>:

unsigned int enc_receive_packet( unsigned int bufsize, unsigned char *buf )
{
    3a6a:	cf 93       	push	r28
    3a6c:	df 93       	push	r29
    3a6e:	cd b7       	in	r28, 0x3d	; 61
    3a70:	de b7       	in	r29, 0x3e	; 62
    3a72:	2f 97       	sbiw	r28, 0x0f	; 15
    3a74:	0f b6       	in	r0, 0x3f	; 63
    3a76:	f8 94       	cli
    3a78:	de bf       	out	0x3e, r29	; 62
    3a7a:	0f be       	out	0x3f, r0	; 63
    3a7c:	cd bf       	out	0x3d, r28	; 61
    3a7e:	9d 87       	std	Y+13, r25	; 0x0d
    3a80:	8c 87       	std	Y+12, r24	; 0x0c
    3a82:	7f 87       	std	Y+15, r23	; 0x0f
    3a84:	6e 87       	std	Y+14, r22	; 0x0e
	unsigned char rxheader[6];
	unsigned int len, status;
	unsigned char u;

	// check rx packet counter
	u = enc_read_reg( ENC_REG_EPKTCNT );
    3a86:	89 e3       	ldi	r24, 0x39	; 57
    3a88:	0e 94 73 1b 	call	0x36e6	; 0x36e6 <enc_read_reg>
    3a8c:	8b 83       	std	Y+3, r24	; 0x03
	ENC_DEBUG("enc_receive: EPKTCNT=%i\n", (int) u);
	if( u == 0 ) {
    3a8e:	8b 81       	ldd	r24, Y+3	; 0x03
    3a90:	88 23       	and	r24, r24
    3a92:	19 f4       	brne	.+6      	; 0x3a9a <enc_receive_packet+0x30>
		// packetcounter is 0, there is nothing to receive, go back
		return 0;
    3a94:	80 e0       	ldi	r24, 0x00	; 0
    3a96:	90 e0       	ldi	r25, 0x00	; 0
    3a98:	a7 c0       	rjmp	.+334    	; 0x3be8 <enc_receive_packet+0x17e>
	}

	//set read pointer to next packet
	enc_write_reg( ENC_REG_ERDPTL, LO8(enc_next_packet_ptr) );
    3a9a:	80 91 c8 01 	lds	r24, 0x01C8	; 0x8001c8 <enc_next_packet_ptr>
    3a9e:	90 91 c9 01 	lds	r25, 0x01C9	; 0x8001c9 <enc_next_packet_ptr+0x1>
    3aa2:	68 2f       	mov	r22, r24
    3aa4:	80 e0       	ldi	r24, 0x00	; 0
    3aa6:	0e 94 cc 1b 	call	0x3798	; 0x3798 <enc_write_reg>
	enc_write_reg( ENC_REG_ERDPTH, HI8(enc_next_packet_ptr) );
    3aaa:	80 91 c8 01 	lds	r24, 0x01C8	; 0x8001c8 <enc_next_packet_ptr>
    3aae:	90 91 c9 01 	lds	r25, 0x01C9	; 0x8001c9 <enc_next_packet_ptr+0x1>
    3ab2:	89 2f       	mov	r24, r25
    3ab4:	99 27       	eor	r25, r25
    3ab6:	68 2f       	mov	r22, r24
    3ab8:	81 e0       	ldi	r24, 0x01	; 1
    3aba:	0e 94 cc 1b 	call	0x3798	; 0x3798 <enc_write_reg>

	// read enc rx packet header
	enc_read_buf( rxheader, sizeof(rxheader) );
    3abe:	ce 01       	movw	r24, r28
    3ac0:	06 96       	adiw	r24, 0x06	; 6
    3ac2:	66 e0       	ldi	r22, 0x06	; 6
    3ac4:	70 e0       	ldi	r23, 0x00	; 0
    3ac6:	0e 94 4b 1c 	call	0x3896	; 0x3896 <enc_read_buf>
	enc_next_packet_ptr  =             rxheader[0];
    3aca:	8e 81       	ldd	r24, Y+6	; 0x06
    3acc:	88 2f       	mov	r24, r24
    3ace:	90 e0       	ldi	r25, 0x00	; 0
    3ad0:	90 93 c9 01 	sts	0x01C9, r25	; 0x8001c9 <enc_next_packet_ptr+0x1>
    3ad4:	80 93 c8 01 	sts	0x01C8, r24	; 0x8001c8 <enc_next_packet_ptr>
	enc_next_packet_ptr |= ((unsigned)(rxheader[1])) << 8;
    3ad8:	8f 81       	ldd	r24, Y+7	; 0x07
    3ada:	88 2f       	mov	r24, r24
    3adc:	90 e0       	ldi	r25, 0x00	; 0
    3ade:	38 2f       	mov	r19, r24
    3ae0:	22 27       	eor	r18, r18
    3ae2:	80 91 c8 01 	lds	r24, 0x01C8	; 0x8001c8 <enc_next_packet_ptr>
    3ae6:	90 91 c9 01 	lds	r25, 0x01C9	; 0x8001c9 <enc_next_packet_ptr+0x1>
    3aea:	82 2b       	or	r24, r18
    3aec:	93 2b       	or	r25, r19
    3aee:	90 93 c9 01 	sts	0x01C9, r25	; 0x8001c9 <enc_next_packet_ptr+0x1>
    3af2:	80 93 c8 01 	sts	0x01C8, r24	; 0x8001c8 <enc_next_packet_ptr>
	len                  =             rxheader[2];
    3af6:	88 85       	ldd	r24, Y+8	; 0x08
    3af8:	88 2f       	mov	r24, r24
    3afa:	90 e0       	ldi	r25, 0x00	; 0
    3afc:	9a 83       	std	Y+2, r25	; 0x02
    3afe:	89 83       	std	Y+1, r24	; 0x01
	len                 |= ((unsigned)(rxheader[3])) << 8;
    3b00:	89 85       	ldd	r24, Y+9	; 0x09
    3b02:	88 2f       	mov	r24, r24
    3b04:	90 e0       	ldi	r25, 0x00	; 0
    3b06:	98 2f       	mov	r25, r24
    3b08:	88 27       	eor	r24, r24
    3b0a:	29 81       	ldd	r18, Y+1	; 0x01
    3b0c:	3a 81       	ldd	r19, Y+2	; 0x02
    3b0e:	82 2b       	or	r24, r18
    3b10:	93 2b       	or	r25, r19
    3b12:	9a 83       	std	Y+2, r25	; 0x02
    3b14:	89 83       	std	Y+1, r24	; 0x01
	status               =             rxheader[4];
    3b16:	8a 85       	ldd	r24, Y+10	; 0x0a
    3b18:	88 2f       	mov	r24, r24
    3b1a:	90 e0       	ldi	r25, 0x00	; 0
    3b1c:	9d 83       	std	Y+5, r25	; 0x05
    3b1e:	8c 83       	std	Y+4, r24	; 0x04
	status              |= ((unsigned)(rxheader[5])) << 8;
    3b20:	8b 85       	ldd	r24, Y+11	; 0x0b
    3b22:	88 2f       	mov	r24, r24
    3b24:	90 e0       	ldi	r25, 0x00	; 0
    3b26:	98 2f       	mov	r25, r24
    3b28:	88 27       	eor	r24, r24
    3b2a:	2c 81       	ldd	r18, Y+4	; 0x04
    3b2c:	3d 81       	ldd	r19, Y+5	; 0x05
    3b2e:	82 2b       	or	r24, r18
    3b30:	93 2b       	or	r25, r19
    3b32:	9d 83       	std	Y+5, r25	; 0x05
    3b34:	8c 83       	std	Y+4, r24	; 0x04

	// added by Sjors: reset the ENC when needed
	// If the receive OK bit is not 1 or the zero bit is not zero, or the packet is larger then the buffer, reset the enc chip and SPI
	if ((!(status & (1<<7))) || (status & 0x8000) || (len > bufsize))
    3b36:	8c 81       	ldd	r24, Y+4	; 0x04
    3b38:	9d 81       	ldd	r25, Y+5	; 0x05
    3b3a:	80 78       	andi	r24, 0x80	; 128
    3b3c:	99 27       	eor	r25, r25
    3b3e:	89 2b       	or	r24, r25
    3b40:	59 f0       	breq	.+22     	; 0x3b58 <enc_receive_packet+0xee>
    3b42:	8c 81       	ldd	r24, Y+4	; 0x04
    3b44:	9d 81       	ldd	r25, Y+5	; 0x05
    3b46:	99 23       	and	r25, r25
    3b48:	3c f0       	brlt	.+14     	; 0x3b58 <enc_receive_packet+0xee>
    3b4a:	29 81       	ldd	r18, Y+1	; 0x01
    3b4c:	3a 81       	ldd	r19, Y+2	; 0x02
    3b4e:	8c 85       	ldd	r24, Y+12	; 0x0c
    3b50:	9d 85       	ldd	r25, Y+13	; 0x0d
    3b52:	82 17       	cp	r24, r18
    3b54:	93 07       	cpc	r25, r19
    3b56:	10 f4       	brcc	.+4      	; 0x3b5c <enc_receive_packet+0xf2>
	{ 
		enc_init();
    3b58:	0e 94 fd 1d 	call	0x3bfa	; 0x3bfa <enc_init>
	}
	//ENC_DEBUG("enc_receive: status=%4x\n", (unsigned) status);

	// skip the checksum (4 bytes) at the end of the buffer
	len -= 4;
    3b5c:	89 81       	ldd	r24, Y+1	; 0x01
    3b5e:	9a 81       	ldd	r25, Y+2	; 0x02
    3b60:	04 97       	sbiw	r24, 0x04	; 4
    3b62:	9a 83       	std	Y+2, r25	; 0x02
    3b64:	89 83       	std	Y+1, r24	; 0x01

	// if the application buffer is to small, we just truncate
	if( len > bufsize ) len = bufsize;
    3b66:	29 81       	ldd	r18, Y+1	; 0x01
    3b68:	3a 81       	ldd	r19, Y+2	; 0x02
    3b6a:	8c 85       	ldd	r24, Y+12	; 0x0c
    3b6c:	9d 85       	ldd	r25, Y+13	; 0x0d
    3b6e:	82 17       	cp	r24, r18
    3b70:	93 07       	cpc	r25, r19
    3b72:	20 f4       	brcc	.+8      	; 0x3b7c <enc_receive_packet+0x112>
    3b74:	8c 85       	ldd	r24, Y+12	; 0x0c
    3b76:	9d 85       	ldd	r25, Y+13	; 0x0d
    3b78:	9a 83       	std	Y+2, r25	; 0x02
    3b7a:	89 83       	std	Y+1, r24	; 0x01

	// now read the packet data into buffer
	enc_read_buf( buf, len );
    3b7c:	29 81       	ldd	r18, Y+1	; 0x01
    3b7e:	3a 81       	ldd	r19, Y+2	; 0x02
    3b80:	8e 85       	ldd	r24, Y+14	; 0x0e
    3b82:	9f 85       	ldd	r25, Y+15	; 0x0f
    3b84:	b9 01       	movw	r22, r18
    3b86:	0e 94 4b 1c 	call	0x3896	; 0x3896 <enc_read_buf>

	// adjust the ERXRDPT pointer (= free this packet in rx buffer)
	if(    enc_next_packet_ptr-1 > ENC_RX_BUFFER_END
    3b8a:	80 91 c8 01 	lds	r24, 0x01C8	; 0x8001c8 <enc_next_packet_ptr>
    3b8e:	90 91 c9 01 	lds	r25, 0x01C9	; 0x8001c9 <enc_next_packet_ptr+0x1>
    3b92:	01 97       	sbiw	r24, 0x01	; 1
    3b94:	81 15       	cp	r24, r1
    3b96:	9a 41       	sbci	r25, 0x1A	; 26
    3b98:	c8 f4       	brcc	.+50     	; 0x3bcc <enc_receive_packet+0x162>
	    || enc_next_packet_ptr-1 < ENC_RX_BUFFER_START ) {
    3b9a:	80 91 c8 01 	lds	r24, 0x01C8	; 0x8001c8 <enc_next_packet_ptr>
    3b9e:	90 91 c9 01 	lds	r25, 0x01C9	; 0x8001c9 <enc_next_packet_ptr+0x1>
		enc_write_reg( ENC_REG_ERXRDPTL, LO8(ENC_RX_BUFFER_END) );
		enc_write_reg( ENC_REG_ERXRDPTH, HI8(ENC_RX_BUFFER_END) );
	} else {
		enc_write_reg( ENC_REG_ERXRDPTL, LO8(enc_next_packet_ptr-1) );
    3ba2:	80 91 c8 01 	lds	r24, 0x01C8	; 0x8001c8 <enc_next_packet_ptr>
    3ba6:	90 91 c9 01 	lds	r25, 0x01C9	; 0x8001c9 <enc_next_packet_ptr+0x1>
    3baa:	81 50       	subi	r24, 0x01	; 1
    3bac:	68 2f       	mov	r22, r24
    3bae:	8c e0       	ldi	r24, 0x0C	; 12
    3bb0:	0e 94 cc 1b 	call	0x3798	; 0x3798 <enc_write_reg>
		enc_write_reg( ENC_REG_ERXRDPTH, HI8(enc_next_packet_ptr-1) );
    3bb4:	80 91 c8 01 	lds	r24, 0x01C8	; 0x8001c8 <enc_next_packet_ptr>
    3bb8:	90 91 c9 01 	lds	r25, 0x01C9	; 0x8001c9 <enc_next_packet_ptr+0x1>
    3bbc:	01 97       	sbiw	r24, 0x01	; 1
    3bbe:	89 2f       	mov	r24, r25
    3bc0:	99 27       	eor	r25, r25
    3bc2:	68 2f       	mov	r22, r24
    3bc4:	8d e0       	ldi	r24, 0x0D	; 13
    3bc6:	0e 94 cc 1b 	call	0x3798	; 0x3798 <enc_write_reg>
    3bca:	08 c0       	rjmp	.+16     	; 0x3bdc <enc_receive_packet+0x172>
	enc_read_buf( buf, len );

	// adjust the ERXRDPT pointer (= free this packet in rx buffer)
	if(    enc_next_packet_ptr-1 > ENC_RX_BUFFER_END
	    || enc_next_packet_ptr-1 < ENC_RX_BUFFER_START ) {
		enc_write_reg( ENC_REG_ERXRDPTL, LO8(ENC_RX_BUFFER_END) );
    3bcc:	6f ef       	ldi	r22, 0xFF	; 255
    3bce:	8c e0       	ldi	r24, 0x0C	; 12
    3bd0:	0e 94 cc 1b 	call	0x3798	; 0x3798 <enc_write_reg>
		enc_write_reg( ENC_REG_ERXRDPTH, HI8(ENC_RX_BUFFER_END) );
    3bd4:	69 e1       	ldi	r22, 0x19	; 25
    3bd6:	8d e0       	ldi	r24, 0x0D	; 13
    3bd8:	0e 94 cc 1b 	call	0x3798	; 0x3798 <enc_write_reg>
		enc_write_reg( ENC_REG_ERXRDPTH, HI8(enc_next_packet_ptr-1) );
	}

	// trigger a decrement of the rx packet counter
	// this will clear PKTIF if EPKTCNT reaches 0
	enc_setbits_reg( ENC_REG_ECON2, (1<<ENC_BIT_PKTDEC) );
    3bdc:	60 e4       	ldi	r22, 0x40	; 64
    3bde:	8e e1       	ldi	r24, 0x1E	; 30
    3be0:	0e 94 49 1b 	call	0x3692	; 0x3692 <enc_setbits_reg>

	// return number of bytes written to the buffer
	ENC_DEBUG("enc_receive: %i bytes\n", len);
	return len;
    3be4:	89 81       	ldd	r24, Y+1	; 0x01
    3be6:	9a 81       	ldd	r25, Y+2	; 0x02
}
    3be8:	2f 96       	adiw	r28, 0x0f	; 15
    3bea:	0f b6       	in	r0, 0x3f	; 63
    3bec:	f8 94       	cli
    3bee:	de bf       	out	0x3e, r29	; 62
    3bf0:	0f be       	out	0x3f, r0	; 63
    3bf2:	cd bf       	out	0x3d, r28	; 61
    3bf4:	df 91       	pop	r29
    3bf6:	cf 91       	pop	r28
    3bf8:	08 95       	ret

00003bfa <enc_init>:
#endif

//-----------------------------------------------------------------------------

void enc_init(void)
{
    3bfa:	cf 93       	push	r28
    3bfc:	df 93       	push	r29
    3bfe:	cd b7       	in	r28, 0x3d	; 61
    3c00:	de b7       	in	r29, 0x3e	; 62
    3c02:	65 97       	sbiw	r28, 0x15	; 21
    3c04:	0f b6       	in	r0, 0x3f	; 63
    3c06:	f8 94       	cli
    3c08:	de bf       	out	0x3e, r29	; 62
    3c0a:	0f be       	out	0x3f, r0	; 63
    3c0c:	cd bf       	out	0x3d, r28	; 61
	int i=0;
    3c0e:	1a 82       	std	Y+2, r1	; 0x02
    3c10:	19 82       	std	Y+1, r1	; 0x01
	unsigned int u;
	unsigned char r, d;

	// config enc chip select as output and deselect enc
	ENC_DDR  |= (1<<ENC_CS);
    3c12:	87 e3       	ldi	r24, 0x37	; 55
    3c14:	90 e0       	ldi	r25, 0x00	; 0
    3c16:	27 e3       	ldi	r18, 0x37	; 55
    3c18:	30 e0       	ldi	r19, 0x00	; 0
    3c1a:	f9 01       	movw	r30, r18
    3c1c:	20 81       	ld	r18, Z
    3c1e:	20 61       	ori	r18, 0x10	; 16
    3c20:	fc 01       	movw	r30, r24
    3c22:	20 83       	st	Z, r18
	ENC_PORT |= (1<<ENC_CS);
    3c24:	88 e3       	ldi	r24, 0x38	; 56
    3c26:	90 e0       	ldi	r25, 0x00	; 0
    3c28:	28 e3       	ldi	r18, 0x38	; 56
    3c2a:	30 e0       	ldi	r19, 0x00	; 0
    3c2c:	f9 01       	movw	r30, r18
    3c2e:	20 81       	ld	r18, Z
    3c30:	20 61       	ori	r18, 0x10	; 16
    3c32:	fc 01       	movw	r30, r24
    3c34:	20 83       	st	Z, r18

	// init spi
	spi_init();
    3c36:	0e 94 a1 1a 	call	0x3542	; 0x3542 <spi_init>

	// send a reset command via spi to the enc
	enc_reset();
    3c3a:	0e 94 ff 1a 	call	0x35fe	; 0x35fe <enc_reset>

	// wait for the CLKRDY bit
	while( !(enc_read_reg( ENC_REG_ESTAT ) & (1<<ENC_BIT_CLKRDY)) ) ;
    3c3e:	00 00       	nop
    3c40:	8d e1       	ldi	r24, 0x1D	; 29
    3c42:	0e 94 73 1b 	call	0x36e6	; 0x36e6 <enc_read_reg>
    3c46:	88 2f       	mov	r24, r24
    3c48:	90 e0       	ldi	r25, 0x00	; 0
    3c4a:	81 70       	andi	r24, 0x01	; 1
    3c4c:	99 27       	eor	r25, r25
    3c4e:	89 2b       	or	r24, r25
    3c50:	b9 f3       	breq	.-18     	; 0x3c40 <enc_init+0x46>

	// get enc revision id
	enc_revid = enc_read_reg( ENC_REG_EREVID );
    3c52:	82 e7       	ldi	r24, 0x72	; 114
    3c54:	0e 94 73 1b 	call	0x36e6	; 0x36e6 <enc_read_reg>
    3c58:	80 93 c6 01 	sts	0x01C6, r24	; 0x8001c6 <__data_end>
	ENC_DEBUG("enc revid %x\n", (int) enc_revid);

	// setup mymac variable
	mymac[0] = MYMAC1;
    3c5c:	10 92 37 03 	sts	0x0337, r1	; 0x800337 <mymac>
	mymac[1] = MYMAC2;
    3c60:	80 e2       	ldi	r24, 0x20	; 32
    3c62:	80 93 38 03 	sts	0x0338, r24	; 0x800338 <mymac+0x1>
	mymac[2] = MYMAC3;
    3c66:	88 e1       	ldi	r24, 0x18	; 24
    3c68:	80 93 39 03 	sts	0x0339, r24	; 0x800339 <mymac+0x2>
	mymac[3] = MYMAC4;
    3c6c:	81 eb       	ldi	r24, 0xB1	; 177
    3c6e:	80 93 3a 03 	sts	0x033A, r24	; 0x80033a <mymac+0x3>
	mymac[4] = MYMAC5;
    3c72:	85 e1       	ldi	r24, 0x15	; 21
    3c74:	80 93 3b 03 	sts	0x033B, r24	; 0x80033b <mymac+0x4>
	mymac[5] = MYMAC6;
    3c78:	8f e6       	ldi	r24, 0x6F	; 111
    3c7a:	80 93 3c 03 	sts	0x033C, r24	; 0x80033c <mymac+0x5>


		// setup enc registers according to the enc_configdata struct
		while(1) {
			r = pgm_read_byte( &enc_configdata[i++] );
    3c7e:	89 81       	ldd	r24, Y+1	; 0x01
    3c80:	9a 81       	ldd	r25, Y+2	; 0x02
    3c82:	9c 01       	movw	r18, r24
    3c84:	2f 5f       	subi	r18, 0xFF	; 255
    3c86:	3f 4f       	sbci	r19, 0xFF	; 255
    3c88:	3a 83       	std	Y+2, r19	; 0x02
    3c8a:	29 83       	std	Y+1, r18	; 0x01
    3c8c:	8b 52       	subi	r24, 0x2B	; 43
    3c8e:	92 4e       	sbci	r25, 0xE2	; 226
    3c90:	9c 83       	std	Y+4, r25	; 0x04
    3c92:	8b 83       	std	Y+3, r24	; 0x03
    3c94:	8b 81       	ldd	r24, Y+3	; 0x03
    3c96:	9c 81       	ldd	r25, Y+4	; 0x04
    3c98:	fc 01       	movw	r30, r24
    3c9a:	84 91       	lpm	r24, Z
    3c9c:	8d 83       	std	Y+5, r24	; 0x05
    3c9e:	8d 81       	ldd	r24, Y+5	; 0x05
    3ca0:	8e 83       	std	Y+6, r24	; 0x06
			d = pgm_read_byte( &enc_configdata[i++] );
    3ca2:	89 81       	ldd	r24, Y+1	; 0x01
    3ca4:	9a 81       	ldd	r25, Y+2	; 0x02
    3ca6:	9c 01       	movw	r18, r24
    3ca8:	2f 5f       	subi	r18, 0xFF	; 255
    3caa:	3f 4f       	sbci	r19, 0xFF	; 255
    3cac:	3a 83       	std	Y+2, r19	; 0x02
    3cae:	29 83       	std	Y+1, r18	; 0x01
    3cb0:	8b 52       	subi	r24, 0x2B	; 43
    3cb2:	92 4e       	sbci	r25, 0xE2	; 226
    3cb4:	98 87       	std	Y+8, r25	; 0x08
    3cb6:	8f 83       	std	Y+7, r24	; 0x07
    3cb8:	8f 81       	ldd	r24, Y+7	; 0x07
    3cba:	98 85       	ldd	r25, Y+8	; 0x08
    3cbc:	fc 01       	movw	r30, r24
    3cbe:	84 91       	lpm	r24, Z
    3cc0:	89 87       	std	Y+9, r24	; 0x09
    3cc2:	89 85       	ldd	r24, Y+9	; 0x09
    3cc4:	8a 87       	std	Y+10, r24	; 0x0a
			if( r == 0xFF && d == 0xFF ) break;
    3cc6:	8e 81       	ldd	r24, Y+6	; 0x06
    3cc8:	8f 3f       	cpi	r24, 0xFF	; 255
    3cca:	21 f4       	brne	.+8      	; 0x3cd4 <enc_init+0xda>
    3ccc:	8a 85       	ldd	r24, Y+10	; 0x0a
    3cce:	8f 3f       	cpi	r24, 0xFF	; 255
    3cd0:	09 f4       	brne	.+2      	; 0x3cd4 <enc_init+0xda>
    3cd2:	05 c0       	rjmp	.+10     	; 0x3cde <enc_init+0xe4>
			enc_write_reg( r, d );
    3cd4:	6a 85       	ldd	r22, Y+10	; 0x0a
    3cd6:	8e 81       	ldd	r24, Y+6	; 0x06
    3cd8:	0e 94 cc 1b 	call	0x3798	; 0x3798 <enc_write_reg>
		}
    3cdc:	d0 cf       	rjmp	.-96     	; 0x3c7e <enc_init+0x84>
		// now the phy registers
		while(1) {
			r = pgm_read_byte( &enc_configdata[i++] );
    3cde:	89 81       	ldd	r24, Y+1	; 0x01
    3ce0:	9a 81       	ldd	r25, Y+2	; 0x02
    3ce2:	9c 01       	movw	r18, r24
    3ce4:	2f 5f       	subi	r18, 0xFF	; 255
    3ce6:	3f 4f       	sbci	r19, 0xFF	; 255
    3ce8:	3a 83       	std	Y+2, r19	; 0x02
    3cea:	29 83       	std	Y+1, r18	; 0x01
    3cec:	8b 52       	subi	r24, 0x2B	; 43
    3cee:	92 4e       	sbci	r25, 0xE2	; 226
    3cf0:	9c 87       	std	Y+12, r25	; 0x0c
    3cf2:	8b 87       	std	Y+11, r24	; 0x0b
    3cf4:	8b 85       	ldd	r24, Y+11	; 0x0b
    3cf6:	9c 85       	ldd	r25, Y+12	; 0x0c
    3cf8:	fc 01       	movw	r30, r24
    3cfa:	84 91       	lpm	r24, Z
    3cfc:	8d 87       	std	Y+13, r24	; 0x0d
    3cfe:	8d 85       	ldd	r24, Y+13	; 0x0d
    3d00:	8e 83       	std	Y+6, r24	; 0x06
			d = pgm_read_byte( &enc_configdata[i++] );
    3d02:	89 81       	ldd	r24, Y+1	; 0x01
    3d04:	9a 81       	ldd	r25, Y+2	; 0x02
    3d06:	9c 01       	movw	r18, r24
    3d08:	2f 5f       	subi	r18, 0xFF	; 255
    3d0a:	3f 4f       	sbci	r19, 0xFF	; 255
    3d0c:	3a 83       	std	Y+2, r19	; 0x02
    3d0e:	29 83       	std	Y+1, r18	; 0x01
    3d10:	8b 52       	subi	r24, 0x2B	; 43
    3d12:	92 4e       	sbci	r25, 0xE2	; 226
    3d14:	9f 87       	std	Y+15, r25	; 0x0f
    3d16:	8e 87       	std	Y+14, r24	; 0x0e
    3d18:	8e 85       	ldd	r24, Y+14	; 0x0e
    3d1a:	9f 85       	ldd	r25, Y+15	; 0x0f
    3d1c:	fc 01       	movw	r30, r24
    3d1e:	84 91       	lpm	r24, Z
    3d20:	88 8b       	std	Y+16, r24	; 0x10
    3d22:	88 89       	ldd	r24, Y+16	; 0x10
    3d24:	8a 87       	std	Y+10, r24	; 0x0a
			if( r == 0xFF && d == 0xFF ) break;
    3d26:	8e 81       	ldd	r24, Y+6	; 0x06
    3d28:	8f 3f       	cpi	r24, 0xFF	; 255
    3d2a:	21 f4       	brne	.+8      	; 0x3d34 <enc_init+0x13a>
    3d2c:	8a 85       	ldd	r24, Y+10	; 0x0a
    3d2e:	8f 3f       	cpi	r24, 0xFF	; 255
    3d30:	09 f4       	brne	.+2      	; 0x3d34 <enc_init+0x13a>
    3d32:	29 c0       	rjmp	.+82     	; 0x3d86 <enc_init+0x18c>
			u = (((unsigned int)d) << 8);
    3d34:	8a 85       	ldd	r24, Y+10	; 0x0a
    3d36:	88 2f       	mov	r24, r24
    3d38:	90 e0       	ldi	r25, 0x00	; 0
    3d3a:	98 2f       	mov	r25, r24
    3d3c:	88 27       	eor	r24, r24
    3d3e:	9a 8b       	std	Y+18, r25	; 0x12
    3d40:	89 8b       	std	Y+17, r24	; 0x11
			d = pgm_read_byte( &enc_configdata[i++] );
    3d42:	89 81       	ldd	r24, Y+1	; 0x01
    3d44:	9a 81       	ldd	r25, Y+2	; 0x02
    3d46:	9c 01       	movw	r18, r24
    3d48:	2f 5f       	subi	r18, 0xFF	; 255
    3d4a:	3f 4f       	sbci	r19, 0xFF	; 255
    3d4c:	3a 83       	std	Y+2, r19	; 0x02
    3d4e:	29 83       	std	Y+1, r18	; 0x01
    3d50:	8b 52       	subi	r24, 0x2B	; 43
    3d52:	92 4e       	sbci	r25, 0xE2	; 226
    3d54:	9c 8b       	std	Y+20, r25	; 0x14
    3d56:	8b 8b       	std	Y+19, r24	; 0x13
    3d58:	8b 89       	ldd	r24, Y+19	; 0x13
    3d5a:	9c 89       	ldd	r25, Y+20	; 0x14
    3d5c:	fc 01       	movw	r30, r24
    3d5e:	84 91       	lpm	r24, Z
    3d60:	8d 8b       	std	Y+21, r24	; 0x15
    3d62:	8d 89       	ldd	r24, Y+21	; 0x15
    3d64:	8a 87       	std	Y+10, r24	; 0x0a
			u |= d;
    3d66:	8a 85       	ldd	r24, Y+10	; 0x0a
    3d68:	88 2f       	mov	r24, r24
    3d6a:	90 e0       	ldi	r25, 0x00	; 0
    3d6c:	29 89       	ldd	r18, Y+17	; 0x11
    3d6e:	3a 89       	ldd	r19, Y+18	; 0x12
    3d70:	82 2b       	or	r24, r18
    3d72:	93 2b       	or	r25, r19
    3d74:	9a 8b       	std	Y+18, r25	; 0x12
    3d76:	89 8b       	std	Y+17, r24	; 0x11
			enc_write_phyreg( r, u );
    3d78:	89 89       	ldd	r24, Y+17	; 0x11
    3d7a:	9a 89       	ldd	r25, Y+18	; 0x12
    3d7c:	bc 01       	movw	r22, r24
    3d7e:	8e 81       	ldd	r24, Y+6	; 0x06
    3d80:	0e 94 1d 1c 	call	0x383a	; 0x383a <enc_write_phyreg>
		}
    3d84:	ac cf       	rjmp	.-168    	; 0x3cde <enc_init+0xe4>

	// setup receive next packet pointer
	enc_next_packet_ptr = ENC_RX_BUFFER_START;
    3d86:	10 92 c9 01 	sts	0x01C9, r1	; 0x8001c9 <enc_next_packet_ptr+0x1>
    3d8a:	10 92 c8 01 	sts	0x01C8, r1	; 0x8001c8 <enc_next_packet_ptr>

	// configure the enc interrupt sources
	enc_write_reg( ENC_REG_EIE, (1 << ENC_BIT_INTIE)  | (1 << ENC_BIT_PKTIE)
    3d8e:	60 ec       	ldi	r22, 0xC0	; 192
    3d90:	8b e1       	ldi	r24, 0x1B	; 27
    3d92:	0e 94 cc 1b 	call	0x3798	; 0x3798 <enc_write_reg>
				  | (0 << ENC_BIT_DMAIE)  | (0 << ENC_BIT_LINKIE)
				  | (0 << ENC_BIT_TXIE)   | (0 << ENC_BIT_WOLIE)
				  | (0 << ENC_BIT_TXERIE) | (0 << ENC_BIT_RXERIE));

	// enable receive
	enc_setbits_reg( ENC_REG_ECON1, (1<<ENC_BIT_RXEN) );
    3d96:	64 e0       	ldi	r22, 0x04	; 4
    3d98:	8f e1       	ldi	r24, 0x1F	; 31
    3d9a:	0e 94 49 1b 	call	0x3692	; 0x3692 <enc_setbits_reg>

	// the enc interrupt on the atmega is still disabled
	// needs to get enabled with ETH_INT_ENABLE;
}
    3d9e:	65 96       	adiw	r28, 0x15	; 21
    3da0:	0f b6       	in	r0, 0x3f	; 63
    3da2:	f8 94       	cli
    3da4:	de bf       	out	0x3e, r29	; 62
    3da6:	0f be       	out	0x3f, r0	; 63
    3da8:	cd bf       	out	0x3d, r28	; 61
    3daa:	df 91       	pop	r29
    3dac:	cf 91       	pop	r28
    3dae:	08 95       	ret

00003db0 <enc28j60_led_blink>:

//-----------------------------------------------------------------------------
//LED blink test
void enc28j60_led_blink (unsigned char a)
{
    3db0:	cf 93       	push	r28
    3db2:	df 93       	push	r29
    3db4:	1f 92       	push	r1
    3db6:	cd b7       	in	r28, 0x3d	; 61
    3db8:	de b7       	in	r29, 0x3e	; 62
    3dba:	89 83       	std	Y+1, r24	; 0x01
	if(a)
    3dbc:	89 81       	ldd	r24, Y+1	; 0x01
    3dbe:	88 23       	and	r24, r24
    3dc0:	31 f0       	breq	.+12     	; 0x3dce <enc28j60_led_blink+0x1e>
	{
		//set up leds: LEDA: link status, LEDB: RX&TX activity, stretch 40ms, stretch enable
		enc_write_phyreg(ENC_REG_PHLCON, 0x3AAA);
    3dc2:	6a ea       	ldi	r22, 0xAA	; 170
    3dc4:	7a e3       	ldi	r23, 0x3A	; 58
    3dc6:	84 e1       	ldi	r24, 0x14	; 20
    3dc8:	0e 94 1d 1c 	call	0x383a	; 0x383a <enc_write_phyreg>
    3dcc:	05 c0       	rjmp	.+10     	; 0x3dd8 <enc28j60_led_blink+0x28>
	}
	else
	{
		//set up leds: LEDA: link status, LEDB: RX&TX activity, stretch 40ms, stretch enable
		enc_write_phyreg(ENC_REG_PHLCON, 0x347A); //cave: Table3-3: reset value is 0x3422, do not modify the reserved "3"!!
    3dce:	6a e7       	ldi	r22, 0x7A	; 122
    3dd0:	74 e3       	ldi	r23, 0x34	; 52
    3dd2:	84 e1       	ldi	r24, 0x14	; 20
    3dd4:	0e 94 1d 1c 	call	0x383a	; 0x383a <enc_write_phyreg>
		//RevA Datasheet page 9: write as '0000', see RevB Datasheet: write 0011!
	}
}
    3dd8:	0f 90       	pop	r0
    3dda:	df 91       	pop	r29
    3ddc:	cf 91       	pop	r28
    3dde:	08 95       	ret

00003de0 <enc28j60_status_test>:

//-----------------------------------------------------------------------------
void enc28j60_status_test (void)
{
    3de0:	cf 93       	push	r28
    3de2:	df 93       	push	r29
    3de4:	1f 92       	push	r1
    3de6:	cd b7       	in	r28, 0x3d	; 61
    3de8:	de b7       	in	r29, 0x3e	; 62
	unsigned char mask = (1<<ENC_BIT_TXCRCEN)|(1<<ENC_BIT_PADCFG0)|(1<<ENC_BIT_FRMLNEN);
    3dea:	82 e3       	ldi	r24, 0x32	; 50
    3dec:	89 83       	std	Y+1, r24	; 0x01
	
	if (((enc_read_reg(ENC_REG_MACON1))!= 0x0D) || (((enc_read_reg(ENC_REG_MACON3))& mask) != mask))
    3dee:	80 ec       	ldi	r24, 0xC0	; 192
    3df0:	0e 94 73 1b 	call	0x36e6	; 0x36e6 <enc_read_reg>
    3df4:	8d 30       	cpi	r24, 0x0D	; 13
    3df6:	49 f4       	brne	.+18     	; 0x3e0a <enc28j60_status_test+0x2a>
    3df8:	82 ec       	ldi	r24, 0xC2	; 194
    3dfa:	0e 94 73 1b 	call	0x36e6	; 0x36e6 <enc_read_reg>
    3dfe:	98 2f       	mov	r25, r24
    3e00:	89 81       	ldd	r24, Y+1	; 0x01
    3e02:	98 23       	and	r25, r24
    3e04:	89 81       	ldd	r24, Y+1	; 0x01
    3e06:	98 17       	cp	r25, r24
    3e08:	11 f0       	breq	.+4      	; 0x3e0e <enc28j60_status_test+0x2e>
	{
		enc_init();
    3e0a:	0e 94 fd 1d 	call	0x3bfa	; 0x3bfa <enc_init>
	}
}
    3e0e:	0f 90       	pop	r0
    3e10:	df 91       	pop	r29
    3e12:	cf 91       	pop	r28
    3e14:	08 95       	ret

00003e16 <snmp_init>:
#include "snmp.h"
#include "stack.h"
#include "usart.h"

void snmp_init(void) //Funktionen initialisieren und Funktion bei UDP Port registrieren
{
    3e16:	cf 93       	push	r28
    3e18:	df 93       	push	r29
    3e1a:	cd b7       	in	r28, 0x3d	; 61
    3e1c:	de b7       	in	r29, 0x3e	; 62
    add_udp_app(SNMP_REQ_PORT, (void(*)(unsigned char))snmp_udp_rec);
    3e1e:	68 e1       	ldi	r22, 0x18	; 24
    3e20:	7f e1       	ldi	r23, 0x1F	; 31
    3e22:	81 ea       	ldi	r24, 0xA1	; 161
    3e24:	90 e0       	ldi	r25, 0x00	; 0
    3e26:	0e 94 d3 24 	call	0x49a6	; 0x49a6 <add_udp_app>
}
    3e2a:	df 91       	pop	r29
    3e2c:	cf 91       	pop	r28
    3e2e:	08 95       	ret

00003e30 <snmp_udp_rec>:

void snmp_udp_rec(unsigned char Index) //Bei Paketempfang auf SNMP_REQ_PORT wird diese Funktion aufgerufen
{
    3e30:	1f 93       	push	r17
    3e32:	cf 93       	push	r28
    3e34:	df 93       	push	r29
    3e36:	cd b7       	in	r28, 0x3d	; 61
    3e38:	de b7       	in	r29, 0x3e	; 62
    3e3a:	a0 97       	sbiw	r28, 0x20	; 32
    3e3c:	0f b6       	in	r0, 0x3f	; 63
    3e3e:	f8 94       	cli
    3e40:	de bf       	out	0x3e, r29	; 62
    3e42:	0f be       	out	0x3f, r0	; 63
    3e44:	cd bf       	out	0x3d, r28	; 61
    3e46:	88 a3       	std	Y+32, r24	; 0x20

    unsigned char *RecPak; //Sicherungskopie der empfangenen SNMP Nachricht
    uint8_t SeqSize = eth_buffer[UDP_DATA_START + 1]; //Lnge der SNMP Nachricht
    3e48:	80 91 68 03 	lds	r24, 0x0368	; 0x800368 <eth_buffer+0x2b>
    3e4c:	8e 83       	std	Y+6, r24	; 0x06
    uint8_t PakPos = 0; //Position im empfangenen Paket
    3e4e:	19 82       	std	Y+1, r1	; 0x01

    if ((uint8_t)eth_buffer[UDP_DATA_START] != BER_SEQUENCE) //Prfen ob angekommenes Paket eine erwartete Sequenz ist
    3e50:	80 91 67 03 	lds	r24, 0x0367	; 0x800367 <eth_buffer+0x2a>
    3e54:	80 33       	cpi	r24, 0x30	; 48
    3e56:	09 f0       	breq	.+2      	; 0x3e5a <snmp_udp_rec+0x2a>
        return;
    3e58:	24 c2       	rjmp	.+1096   	; 0x42a2 <snmp_udp_rec+0x472>
    
    RecPak = malloc(SeqSize + 1); //Speicher reservieren um da das angekommene Paket zu sichern
    3e5a:	8e 81       	ldd	r24, Y+6	; 0x06
    3e5c:	88 2f       	mov	r24, r24
    3e5e:	90 e0       	ldi	r25, 0x00	; 0
    3e60:	01 96       	adiw	r24, 0x01	; 1
    3e62:	0e 94 67 3c 	call	0x78ce	; 0x78ce <malloc>
    3e66:	98 87       	std	Y+8, r25	; 0x08
    3e68:	8f 83       	std	Y+7, r24	; 0x07

    for (uint8_t i = 0; i < SeqSize; i++)
    3e6a:	1a 82       	std	Y+2, r1	; 0x02
    3e6c:	15 c0       	rjmp	.+42     	; 0x3e98 <snmp_udp_rec+0x68>
        RecPak[i] = eth_buffer[UDP_DATA_START + 2 + i];
    3e6e:	8a 81       	ldd	r24, Y+2	; 0x02
    3e70:	88 2f       	mov	r24, r24
    3e72:	90 e0       	ldi	r25, 0x00	; 0
    3e74:	2f 81       	ldd	r18, Y+7	; 0x07
    3e76:	38 85       	ldd	r19, Y+8	; 0x08
    3e78:	82 0f       	add	r24, r18
    3e7a:	93 1f       	adc	r25, r19
    3e7c:	2a 81       	ldd	r18, Y+2	; 0x02
    3e7e:	22 2f       	mov	r18, r18
    3e80:	30 e0       	ldi	r19, 0x00	; 0
    3e82:	24 5d       	subi	r18, 0xD4	; 212
    3e84:	3f 4f       	sbci	r19, 0xFF	; 255
    3e86:	23 5c       	subi	r18, 0xC3	; 195
    3e88:	3c 4f       	sbci	r19, 0xFC	; 252
    3e8a:	f9 01       	movw	r30, r18
    3e8c:	20 81       	ld	r18, Z
    3e8e:	fc 01       	movw	r30, r24
    3e90:	20 83       	st	Z, r18
    if ((uint8_t)eth_buffer[UDP_DATA_START] != BER_SEQUENCE) //Prfen ob angekommenes Paket eine erwartete Sequenz ist
        return;
    
    RecPak = malloc(SeqSize + 1); //Speicher reservieren um da das angekommene Paket zu sichern

    for (uint8_t i = 0; i < SeqSize; i++)
    3e92:	8a 81       	ldd	r24, Y+2	; 0x02
    3e94:	8f 5f       	subi	r24, 0xFF	; 255
    3e96:	8a 83       	std	Y+2, r24	; 0x02
    3e98:	9a 81       	ldd	r25, Y+2	; 0x02
    3e9a:	8e 81       	ldd	r24, Y+6	; 0x06
    3e9c:	98 17       	cp	r25, r24
    3e9e:	38 f3       	brcs	.-50     	; 0x3e6e <snmp_udp_rec+0x3e>

    
    volatile SNMP_DATAGRAM SNMP_Data;
    
    // ------------ VERSION ------------
    PakPos++; //Datentyp berspringen
    3ea0:	89 81       	ldd	r24, Y+1	; 0x01
    3ea2:	8f 5f       	subi	r24, 0xFF	; 255
    3ea4:	89 83       	std	Y+1, r24	; 0x01
    PakPos++; //Datenlnge berspringen
    3ea6:	89 81       	ldd	r24, Y+1	; 0x01
    3ea8:	8f 5f       	subi	r24, 0xFF	; 255
    3eaa:	89 83       	std	Y+1, r24	; 0x01
                
    SNMP_Data.Version = RecPak[PakPos];
    3eac:	89 81       	ldd	r24, Y+1	; 0x01
    3eae:	88 2f       	mov	r24, r24
    3eb0:	90 e0       	ldi	r25, 0x00	; 0
    3eb2:	2f 81       	ldd	r18, Y+7	; 0x07
    3eb4:	38 85       	ldd	r19, Y+8	; 0x08
    3eb6:	82 0f       	add	r24, r18
    3eb8:	93 1f       	adc	r25, r19
    3eba:	fc 01       	movw	r30, r24
    3ebc:	80 81       	ld	r24, Z
    3ebe:	8e 87       	std	Y+14, r24	; 0x0e
                
    PakPos++; //Positionspointer auf Community String schieben
    3ec0:	89 81       	ldd	r24, Y+1	; 0x01
    3ec2:	8f 5f       	subi	r24, 0xFF	; 255
    3ec4:	89 83       	std	Y+1, r24	; 0x01


    // ------------ COMMUNITY STRING ------------
    PakPos++; //Von Type auf Length springen
    3ec6:	89 81       	ldd	r24, Y+1	; 0x01
    3ec8:	8f 5f       	subi	r24, 0xFF	; 255
    3eca:	89 83       	std	Y+1, r24	; 0x01
    uint8_t length = RecPak[PakPos];
    3ecc:	89 81       	ldd	r24, Y+1	; 0x01
    3ece:	88 2f       	mov	r24, r24
    3ed0:	90 e0       	ldi	r25, 0x00	; 0
    3ed2:	2f 81       	ldd	r18, Y+7	; 0x07
    3ed4:	38 85       	ldd	r19, Y+8	; 0x08
    3ed6:	82 0f       	add	r24, r18
    3ed8:	93 1f       	adc	r25, r19
    3eda:	fc 01       	movw	r30, r24
    3edc:	80 81       	ld	r24, Z
    3ede:	89 87       	std	Y+9, r24	; 0x09
    PakPos++; //Auf die Daten springen
    3ee0:	89 81       	ldd	r24, Y+1	; 0x01
    3ee2:	8f 5f       	subi	r24, 0xFF	; 255
    3ee4:	89 83       	std	Y+1, r24	; 0x01
    for (uint8_t i = 0; i < length; i++)
    3ee6:	1b 82       	std	Y+3, r1	; 0x03
    3ee8:	30 c0       	rjmp	.+96     	; 0x3f4a <snmp_udp_rec+0x11a>
    {   
            SNMP_Data.Comm_Name[i] = RecPak[PakPos + i]; //Daten in String kopieren
    3eea:	8b 81       	ldd	r24, Y+3	; 0x03
    3eec:	88 2f       	mov	r24, r24
    3eee:	90 e0       	ldi	r25, 0x00	; 0
    3ef0:	29 81       	ldd	r18, Y+1	; 0x01
    3ef2:	42 2f       	mov	r20, r18
    3ef4:	50 e0       	ldi	r21, 0x00	; 0
    3ef6:	2b 81       	ldd	r18, Y+3	; 0x03
    3ef8:	22 2f       	mov	r18, r18
    3efa:	30 e0       	ldi	r19, 0x00	; 0
    3efc:	24 0f       	add	r18, r20
    3efe:	35 1f       	adc	r19, r21
    3f00:	a9 01       	movw	r20, r18
    3f02:	2f 81       	ldd	r18, Y+7	; 0x07
    3f04:	38 85       	ldd	r19, Y+8	; 0x08
    3f06:	24 0f       	add	r18, r20
    3f08:	35 1f       	adc	r19, r21
    3f0a:	f9 01       	movw	r30, r18
    3f0c:	40 81       	ld	r20, Z
    3f0e:	9e 01       	movw	r18, r28
    3f10:	21 5f       	subi	r18, 0xF1	; 241
    3f12:	3f 4f       	sbci	r19, 0xFF	; 255
    3f14:	82 0f       	add	r24, r18
    3f16:	93 1f       	adc	r25, r19
    3f18:	fc 01       	movw	r30, r24
    3f1a:	40 83       	st	Z, r20
            SNMP_Data.Comm_Name[PakPos + i + 1] = NULL;  //String terminieren
    3f1c:	89 81       	ldd	r24, Y+1	; 0x01
    3f1e:	28 2f       	mov	r18, r24
    3f20:	30 e0       	ldi	r19, 0x00	; 0
    3f22:	8b 81       	ldd	r24, Y+3	; 0x03
    3f24:	88 2f       	mov	r24, r24
    3f26:	90 e0       	ldi	r25, 0x00	; 0
    3f28:	82 0f       	add	r24, r18
    3f2a:	93 1f       	adc	r25, r19
    3f2c:	01 96       	adiw	r24, 0x01	; 1
    3f2e:	9e 01       	movw	r18, r28
    3f30:	21 5f       	subi	r18, 0xF1	; 241
    3f32:	3f 4f       	sbci	r19, 0xFF	; 255
    3f34:	82 0f       	add	r24, r18
    3f36:	93 1f       	adc	r25, r19
    3f38:	fc 01       	movw	r30, r24
    3f3a:	10 82       	st	Z, r1
            if (i >= (sizeof(SNMP_Data.Comm_Name) - 1)) //Nur 10 Byte fr String
    3f3c:	8b 81       	ldd	r24, Y+3	; 0x03
    3f3e:	89 30       	cpi	r24, 0x09	; 9
    3f40:	08 f0       	brcs	.+2      	; 0x3f44 <snmp_udp_rec+0x114>
                continue;
    3f42:	00 00       	nop

    // ------------ COMMUNITY STRING ------------
    PakPos++; //Von Type auf Length springen
    uint8_t length = RecPak[PakPos];
    PakPos++; //Auf die Daten springen
    for (uint8_t i = 0; i < length; i++)
    3f44:	8b 81       	ldd	r24, Y+3	; 0x03
    3f46:	8f 5f       	subi	r24, 0xFF	; 255
    3f48:	8b 83       	std	Y+3, r24	; 0x03
    3f4a:	9b 81       	ldd	r25, Y+3	; 0x03
    3f4c:	89 85       	ldd	r24, Y+9	; 0x09
    3f4e:	98 17       	cp	r25, r24
    3f50:	60 f2       	brcs	.-104    	; 0x3eea <snmp_udp_rec+0xba>
            SNMP_Data.Comm_Name[PakPos + i + 1] = NULL;  //String terminieren
            if (i >= (sizeof(SNMP_Data.Comm_Name) - 1)) //Nur 10 Byte fr String
                continue;
    } 
                    
    PakPos += length; //Positionspointer auf nchsten Type schieben
    3f52:	99 81       	ldd	r25, Y+1	; 0x01
    3f54:	89 85       	ldd	r24, Y+9	; 0x09
    3f56:	89 0f       	add	r24, r25
    3f58:	89 83       	std	Y+1, r24	; 0x01


    // ------------ PDU TYPE ------------
    SNMP_Data.PDU_Type = RecPak[PakPos];
    3f5a:	89 81       	ldd	r24, Y+1	; 0x01
    3f5c:	88 2f       	mov	r24, r24
    3f5e:	90 e0       	ldi	r25, 0x00	; 0
    3f60:	2f 81       	ldd	r18, Y+7	; 0x07
    3f62:	38 85       	ldd	r19, Y+8	; 0x08
    3f64:	82 0f       	add	r24, r18
    3f66:	93 1f       	adc	r25, r19
    3f68:	fc 01       	movw	r30, r24
    3f6a:	80 81       	ld	r24, Z
    3f6c:	89 8f       	std	Y+25, r24	; 0x19
    PakPos++; //Positionspointer auf nchsten Typen schieben
    3f6e:	89 81       	ldd	r24, Y+1	; 0x01
    3f70:	8f 5f       	subi	r24, 0xFF	; 255
    3f72:	89 83       	std	Y+1, r24	; 0x01
    
    PakPos++; //Von Paketlnge auf nchsten Typ springen
    3f74:	89 81       	ldd	r24, Y+1	; 0x01
    3f76:	8f 5f       	subi	r24, 0xFF	; 255
    3f78:	89 83       	std	Y+1, r24	; 0x01
    
    // ------------ REQUEST ID ------------ 
    PakPos++; //Von Type auf Length springen
    3f7a:	89 81       	ldd	r24, Y+1	; 0x01
    3f7c:	8f 5f       	subi	r24, 0xFF	; 255
    3f7e:	89 83       	std	Y+1, r24	; 0x01
    SNMP_Data.RequestID = 0;
    3f80:	1b 8e       	std	Y+27, r1	; 0x1b
    3f82:	1a 8e       	std	Y+26, r1	; 0x1a
    if (RecPak[PakPos] == 2)
    3f84:	89 81       	ldd	r24, Y+1	; 0x01
    3f86:	88 2f       	mov	r24, r24
    3f88:	90 e0       	ldi	r25, 0x00	; 0
    3f8a:	2f 81       	ldd	r18, Y+7	; 0x07
    3f8c:	38 85       	ldd	r19, Y+8	; 0x08
    3f8e:	82 0f       	add	r24, r18
    3f90:	93 1f       	adc	r25, r19
    3f92:	fc 01       	movw	r30, r24
    3f94:	80 81       	ld	r24, Z
    3f96:	82 30       	cpi	r24, 0x02	; 2
    3f98:	51 f5       	brne	.+84     	; 0x3fee <snmp_udp_rec+0x1be>
    {
        SNMP_Data.RequestID = RecPak[PakPos + 2]; //Low Teil der 16 Bit Zahl
    3f9a:	89 81       	ldd	r24, Y+1	; 0x01
    3f9c:	88 2f       	mov	r24, r24
    3f9e:	90 e0       	ldi	r25, 0x00	; 0
    3fa0:	02 96       	adiw	r24, 0x02	; 2
    3fa2:	2f 81       	ldd	r18, Y+7	; 0x07
    3fa4:	38 85       	ldd	r19, Y+8	; 0x08
    3fa6:	82 0f       	add	r24, r18
    3fa8:	93 1f       	adc	r25, r19
    3faa:	fc 01       	movw	r30, r24
    3fac:	80 81       	ld	r24, Z
    3fae:	88 2f       	mov	r24, r24
    3fb0:	90 e0       	ldi	r25, 0x00	; 0
    3fb2:	9b 8f       	std	Y+27, r25	; 0x1b
    3fb4:	8a 8f       	std	Y+26, r24	; 0x1a
        SNMP_Data.RequestID += (RecPak[PakPos + 1] << 8); //High Teil der 16 Bit Zahl
    3fb6:	8a 8d       	ldd	r24, Y+26	; 0x1a
    3fb8:	9b 8d       	ldd	r25, Y+27	; 0x1b
    3fba:	29 81       	ldd	r18, Y+1	; 0x01
    3fbc:	22 2f       	mov	r18, r18
    3fbe:	30 e0       	ldi	r19, 0x00	; 0
    3fc0:	2f 5f       	subi	r18, 0xFF	; 255
    3fc2:	3f 4f       	sbci	r19, 0xFF	; 255
    3fc4:	4f 81       	ldd	r20, Y+7	; 0x07
    3fc6:	58 85       	ldd	r21, Y+8	; 0x08
    3fc8:	24 0f       	add	r18, r20
    3fca:	35 1f       	adc	r19, r21
    3fcc:	f9 01       	movw	r30, r18
    3fce:	20 81       	ld	r18, Z
    3fd0:	22 2f       	mov	r18, r18
    3fd2:	30 e0       	ldi	r19, 0x00	; 0
    3fd4:	32 2f       	mov	r19, r18
    3fd6:	22 27       	eor	r18, r18
    3fd8:	82 0f       	add	r24, r18
    3fda:	93 1f       	adc	r25, r19
    3fdc:	9b 8f       	std	Y+27, r25	; 0x1b
    3fde:	8a 8f       	std	Y+26, r24	; 0x1a
       PakPos++;
    3fe0:	89 81       	ldd	r24, Y+1	; 0x01
    3fe2:	8f 5f       	subi	r24, 0xFF	; 255
    3fe4:	89 83       	std	Y+1, r24	; 0x01
       PakPos++;     
    3fe6:	89 81       	ldd	r24, Y+1	; 0x01
    3fe8:	8f 5f       	subi	r24, 0xFF	; 255
    3fea:	89 83       	std	Y+1, r24	; 0x01
    3fec:	1b c0       	rjmp	.+54     	; 0x4024 <snmp_udp_rec+0x1f4>
    }else if (RecPak[PakPos] == 1)
    3fee:	89 81       	ldd	r24, Y+1	; 0x01
    3ff0:	88 2f       	mov	r24, r24
    3ff2:	90 e0       	ldi	r25, 0x00	; 0
    3ff4:	2f 81       	ldd	r18, Y+7	; 0x07
    3ff6:	38 85       	ldd	r19, Y+8	; 0x08
    3ff8:	82 0f       	add	r24, r18
    3ffa:	93 1f       	adc	r25, r19
    3ffc:	fc 01       	movw	r30, r24
    3ffe:	80 81       	ld	r24, Z
    4000:	81 30       	cpi	r24, 0x01	; 1
    4002:	81 f4       	brne	.+32     	; 0x4024 <snmp_udp_rec+0x1f4>
    {
        PakPos++; //Da Type immer 1 gleich weiter auf die Daten springen
    4004:	89 81       	ldd	r24, Y+1	; 0x01
    4006:	8f 5f       	subi	r24, 0xFF	; 255
    4008:	89 83       	std	Y+1, r24	; 0x01
        SNMP_Data.RequestID = RecPak[PakPos];
    400a:	89 81       	ldd	r24, Y+1	; 0x01
    400c:	88 2f       	mov	r24, r24
    400e:	90 e0       	ldi	r25, 0x00	; 0
    4010:	2f 81       	ldd	r18, Y+7	; 0x07
    4012:	38 85       	ldd	r19, Y+8	; 0x08
    4014:	82 0f       	add	r24, r18
    4016:	93 1f       	adc	r25, r19
    4018:	fc 01       	movw	r30, r24
    401a:	80 81       	ld	r24, Z
    401c:	88 2f       	mov	r24, r24
    401e:	90 e0       	ldi	r25, 0x00	; 0
    4020:	9b 8f       	std	Y+27, r25	; 0x1b
    4022:	8a 8f       	std	Y+26, r24	; 0x1a
    }    
    PakPos++; //Auf den nchsten Datensatzt springen
    4024:	89 81       	ldd	r24, Y+1	; 0x01
    4026:	8f 5f       	subi	r24, 0xFF	; 255
    4028:	89 83       	std	Y+1, r24	; 0x01
    // ------------ ERROR ------------ 
    PakPos++; //Von Type auf Length springen
    402a:	89 81       	ldd	r24, Y+1	; 0x01
    402c:	8f 5f       	subi	r24, 0xFF	; 255
    402e:	89 83       	std	Y+1, r24	; 0x01
    PakPos++; //Da length immer 1 gleich weiter auf die Daten springen
    4030:	89 81       	ldd	r24, Y+1	; 0x01
    4032:	8f 5f       	subi	r24, 0xFF	; 255
    4034:	89 83       	std	Y+1, r24	; 0x01
    SNMP_Data.Error = RecPak[PakPos];
    4036:	89 81       	ldd	r24, Y+1	; 0x01
    4038:	88 2f       	mov	r24, r24
    403a:	90 e0       	ldi	r25, 0x00	; 0
    403c:	2f 81       	ldd	r18, Y+7	; 0x07
    403e:	38 85       	ldd	r19, Y+8	; 0x08
    4040:	82 0f       	add	r24, r18
    4042:	93 1f       	adc	r25, r19
    4044:	fc 01       	movw	r30, r24
    4046:	80 81       	ld	r24, Z
    4048:	8c 8f       	std	Y+28, r24	; 0x1c
    PakPos++; //Auf nchste Daten springen
    404a:	89 81       	ldd	r24, Y+1	; 0x01
    404c:	8f 5f       	subi	r24, 0xFF	; 255
    404e:	89 83       	std	Y+1, r24	; 0x01
    
    
    // ------------ ERROR INDEX ------------
    PakPos++; //Von Type auf Length springen
    4050:	89 81       	ldd	r24, Y+1	; 0x01
    4052:	8f 5f       	subi	r24, 0xFF	; 255
    4054:	89 83       	std	Y+1, r24	; 0x01
    PakPos++; //Da length immer 1 gleich weiter auf die Daten springen
    4056:	89 81       	ldd	r24, Y+1	; 0x01
    4058:	8f 5f       	subi	r24, 0xFF	; 255
    405a:	89 83       	std	Y+1, r24	; 0x01
    SNMP_Data.ErrorIndex = RecPak[PakPos];         
    405c:	89 81       	ldd	r24, Y+1	; 0x01
    405e:	88 2f       	mov	r24, r24
    4060:	90 e0       	ldi	r25, 0x00	; 0
    4062:	2f 81       	ldd	r18, Y+7	; 0x07
    4064:	38 85       	ldd	r19, Y+8	; 0x08
    4066:	82 0f       	add	r24, r18
    4068:	93 1f       	adc	r25, r19
    406a:	fc 01       	movw	r30, r24
    406c:	80 81       	ld	r24, Z
    406e:	8d 8f       	std	Y+29, r24	; 0x1d
    
    PakPos++; //Von Daten auf nchsten Type springen
    4070:	89 81       	ldd	r24, Y+1	; 0x01
    4072:	8f 5f       	subi	r24, 0xFF	; 255
    4074:	89 83       	std	Y+1, r24	; 0x01
    
    // ------------ VARBIND LIST ------------
    PakPos++; //Von Type auf length springen
    4076:	89 81       	ldd	r24, Y+1	; 0x01
    4078:	8f 5f       	subi	r24, 0xFF	; 255
    407a:	89 83       	std	Y+1, r24	; 0x01
    
    if (RecPak[PakPos] > 0) //Es ist etwas in der Varbind List
    407c:	89 81       	ldd	r24, Y+1	; 0x01
    407e:	88 2f       	mov	r24, r24
    4080:	90 e0       	ldi	r25, 0x00	; 0
    4082:	2f 81       	ldd	r18, Y+7	; 0x07
    4084:	38 85       	ldd	r19, Y+8	; 0x08
    4086:	82 0f       	add	r24, r18
    4088:	93 1f       	adc	r25, r19
    408a:	fc 01       	movw	r30, r24
    408c:	80 81       	ld	r24, Z
    408e:	88 23       	and	r24, r24
    4090:	09 f4       	brne	.+2      	; 0x4094 <snmp_udp_rec+0x264>
    4092:	d3 c0       	rjmp	.+422    	; 0x423a <snmp_udp_rec+0x40a>
    {
       volatile Managed_Object *Objects;
       
       Objects = malloc(RecPak[PakPos] + 1); //Speicher reservieren fr die einzelnen Objekte
    4094:	89 81       	ldd	r24, Y+1	; 0x01
    4096:	88 2f       	mov	r24, r24
    4098:	90 e0       	ldi	r25, 0x00	; 0
    409a:	2f 81       	ldd	r18, Y+7	; 0x07
    409c:	38 85       	ldd	r19, Y+8	; 0x08
    409e:	82 0f       	add	r24, r18
    40a0:	93 1f       	adc	r25, r19
    40a2:	fc 01       	movw	r30, r24
    40a4:	80 81       	ld	r24, Z
    40a6:	88 2f       	mov	r24, r24
    40a8:	90 e0       	ldi	r25, 0x00	; 0
    40aa:	01 96       	adiw	r24, 0x01	; 1
    40ac:	0e 94 67 3c 	call	0x78ce	; 0x78ce <malloc>
    40b0:	9b 87       	std	Y+11, r25	; 0x0b
    40b2:	8a 87       	std	Y+10, r24	; 0x0a
     
       PakPos += 2; //Von List Length auf Varbind objekt length springen
    40b4:	89 81       	ldd	r24, Y+1	; 0x01
    40b6:	8e 5f       	subi	r24, 0xFE	; 254
    40b8:	89 83       	std	Y+1, r24	; 0x01
       
       // ------------ VARBIND ------------
       while (RecPak[PakPos] > 0) //Es ist etwas in dem Varbind
    40ba:	b3 c0       	rjmp	.+358    	; 0x4222 <snmp_udp_rec+0x3f2>
       {
           // ------------ OBJECT ID ------------
           PakPos += 2; //Von Varbind objekt length auf OID length springen
    40bc:	89 81       	ldd	r24, Y+1	; 0x01
    40be:	8e 5f       	subi	r24, 0xFE	; 254
    40c0:	89 83       	std	Y+1, r24	; 0x01
           uint8_t OID_length = RecPak[PakPos];
    40c2:	89 81       	ldd	r24, Y+1	; 0x01
    40c4:	88 2f       	mov	r24, r24
    40c6:	90 e0       	ldi	r25, 0x00	; 0
    40c8:	2f 81       	ldd	r18, Y+7	; 0x07
    40ca:	38 85       	ldd	r19, Y+8	; 0x08
    40cc:	82 0f       	add	r24, r18
    40ce:	93 1f       	adc	r25, r19
    40d0:	fc 01       	movw	r30, r24
    40d2:	80 81       	ld	r24, Z
    40d4:	8c 87       	std	Y+12, r24	; 0x0c
           
           Objects->OID = malloc(OID_length + 1); //Speicher reservieren fr die OID
    40d6:	8c 85       	ldd	r24, Y+12	; 0x0c
    40d8:	88 2f       	mov	r24, r24
    40da:	90 e0       	ldi	r25, 0x00	; 0
    40dc:	01 96       	adiw	r24, 0x01	; 1
    40de:	0e 94 67 3c 	call	0x78ce	; 0x78ce <malloc>
    40e2:	9c 01       	movw	r18, r24
    40e4:	8a 85       	ldd	r24, Y+10	; 0x0a
    40e6:	9b 85       	ldd	r25, Y+11	; 0x0b
    40e8:	fc 01       	movw	r30, r24
    40ea:	31 83       	std	Z+1, r19	; 0x01
    40ec:	20 83       	st	Z, r18

           Objects->OID[0] = 1;
    40ee:	8a 85       	ldd	r24, Y+10	; 0x0a
    40f0:	9b 85       	ldd	r25, Y+11	; 0x0b
    40f2:	fc 01       	movw	r30, r24
    40f4:	80 81       	ld	r24, Z
    40f6:	91 81       	ldd	r25, Z+1	; 0x01
    40f8:	21 e0       	ldi	r18, 0x01	; 1
    40fa:	fc 01       	movw	r30, r24
    40fc:	20 83       	st	Z, r18
           Objects->OID[1] = 3;
    40fe:	8a 85       	ldd	r24, Y+10	; 0x0a
    4100:	9b 85       	ldd	r25, Y+11	; 0x0b
    4102:	fc 01       	movw	r30, r24
    4104:	80 81       	ld	r24, Z
    4106:	91 81       	ldd	r25, Z+1	; 0x01
    4108:	01 96       	adiw	r24, 0x01	; 1
    410a:	23 e0       	ldi	r18, 0x03	; 3
    410c:	fc 01       	movw	r30, r24
    410e:	20 83       	st	Z, r18

           PakPos++; //Objekt ID beginnt immer mit 1.3. und die Zahlen sind in einem Bytes kodiert           
    4110:	89 81       	ldd	r24, Y+1	; 0x01
    4112:	8f 5f       	subi	r24, 0xFF	; 255
    4114:	89 83       	std	Y+1, r24	; 0x01

           for (uint8_t i = 2; i < OID_length - 2; i++)
    4116:	82 e0       	ldi	r24, 0x02	; 2
    4118:	8c 83       	std	Y+4, r24	; 0x04
    411a:	1e c0       	rjmp	.+60     	; 0x4158 <snmp_udp_rec+0x328>
            Objects->OID[i] = RecPak[PakPos + i];
    411c:	8a 85       	ldd	r24, Y+10	; 0x0a
    411e:	9b 85       	ldd	r25, Y+11	; 0x0b
    4120:	fc 01       	movw	r30, r24
    4122:	20 81       	ld	r18, Z
    4124:	31 81       	ldd	r19, Z+1	; 0x01
    4126:	8c 81       	ldd	r24, Y+4	; 0x04
    4128:	88 2f       	mov	r24, r24
    412a:	90 e0       	ldi	r25, 0x00	; 0
    412c:	82 0f       	add	r24, r18
    412e:	93 1f       	adc	r25, r19
    4130:	29 81       	ldd	r18, Y+1	; 0x01
    4132:	42 2f       	mov	r20, r18
    4134:	50 e0       	ldi	r21, 0x00	; 0
    4136:	2c 81       	ldd	r18, Y+4	; 0x04
    4138:	22 2f       	mov	r18, r18
    413a:	30 e0       	ldi	r19, 0x00	; 0
    413c:	24 0f       	add	r18, r20
    413e:	35 1f       	adc	r19, r21
    4140:	a9 01       	movw	r20, r18
    4142:	2f 81       	ldd	r18, Y+7	; 0x07
    4144:	38 85       	ldd	r19, Y+8	; 0x08
    4146:	24 0f       	add	r18, r20
    4148:	35 1f       	adc	r19, r21
    414a:	f9 01       	movw	r30, r18
    414c:	20 81       	ld	r18, Z
    414e:	fc 01       	movw	r30, r24
    4150:	20 83       	st	Z, r18
           Objects->OID[0] = 1;
           Objects->OID[1] = 3;

           PakPos++; //Objekt ID beginnt immer mit 1.3. und die Zahlen sind in einem Bytes kodiert           

           for (uint8_t i = 2; i < OID_length - 2; i++)
    4152:	8c 81       	ldd	r24, Y+4	; 0x04
    4154:	8f 5f       	subi	r24, 0xFF	; 255
    4156:	8c 83       	std	Y+4, r24	; 0x04
    4158:	8c 81       	ldd	r24, Y+4	; 0x04
    415a:	28 2f       	mov	r18, r24
    415c:	30 e0       	ldi	r19, 0x00	; 0
    415e:	8c 85       	ldd	r24, Y+12	; 0x0c
    4160:	88 2f       	mov	r24, r24
    4162:	90 e0       	ldi	r25, 0x00	; 0
    4164:	02 97       	sbiw	r24, 0x02	; 2
    4166:	28 17       	cp	r18, r24
    4168:	39 07       	cpc	r19, r25
    416a:	c4 f2       	brlt	.-80     	; 0x411c <snmp_udp_rec+0x2ec>
            Objects->OID[i] = RecPak[PakPos + i];
            
           PakPos += OID_length;
    416c:	99 81       	ldd	r25, Y+1	; 0x01
    416e:	8c 85       	ldd	r24, Y+12	; 0x0c
    4170:	89 0f       	add	r24, r25
    4172:	89 83       	std	Y+1, r24	; 0x01
           
           // ------------ VALUE ------------
           Objects->Value_Type = RecPak[PakPos];
    4174:	89 81       	ldd	r24, Y+1	; 0x01
    4176:	88 2f       	mov	r24, r24
    4178:	90 e0       	ldi	r25, 0x00	; 0
    417a:	2f 81       	ldd	r18, Y+7	; 0x07
    417c:	38 85       	ldd	r19, Y+8	; 0x08
    417e:	82 0f       	add	r24, r18
    4180:	93 1f       	adc	r25, r19
    4182:	fc 01       	movw	r30, r24
    4184:	20 81       	ld	r18, Z
    4186:	8a 85       	ldd	r24, Y+10	; 0x0a
    4188:	9b 85       	ldd	r25, Y+11	; 0x0b
    418a:	fc 01       	movw	r30, r24
    418c:	22 83       	std	Z+2, r18	; 0x02
           PakPos++; //Auf die Value lnge springen
    418e:	89 81       	ldd	r24, Y+1	; 0x01
    4190:	8f 5f       	subi	r24, 0xFF	; 255
    4192:	89 83       	std	Y+1, r24	; 0x01
           
           if (RecPak[PakPos] > 0)
    4194:	89 81       	ldd	r24, Y+1	; 0x01
    4196:	88 2f       	mov	r24, r24
    4198:	90 e0       	ldi	r25, 0x00	; 0
    419a:	2f 81       	ldd	r18, Y+7	; 0x07
    419c:	38 85       	ldd	r19, Y+8	; 0x08
    419e:	82 0f       	add	r24, r18
    41a0:	93 1f       	adc	r25, r19
    41a2:	fc 01       	movw	r30, r24
    41a4:	80 81       	ld	r24, Z
    41a6:	88 23       	and	r24, r24
    41a8:	09 f0       	breq	.+2      	; 0x41ac <snmp_udp_rec+0x37c>
               continue; //While schleife beenden
    41aa:	3b c0       	rjmp	.+118    	; 0x4222 <snmp_udp_rec+0x3f2>
           uint8_t value_length = RecPak[PakPos];
    41ac:	89 81       	ldd	r24, Y+1	; 0x01
    41ae:	88 2f       	mov	r24, r24
    41b0:	90 e0       	ldi	r25, 0x00	; 0
    41b2:	2f 81       	ldd	r18, Y+7	; 0x07
    41b4:	38 85       	ldd	r19, Y+8	; 0x08
    41b6:	82 0f       	add	r24, r18
    41b8:	93 1f       	adc	r25, r19
    41ba:	fc 01       	movw	r30, r24
    41bc:	80 81       	ld	r24, Z
    41be:	8d 87       	std	Y+13, r24	; 0x0d
           Objects->Value = malloc(value_length + 1);
    41c0:	8d 85       	ldd	r24, Y+13	; 0x0d
    41c2:	88 2f       	mov	r24, r24
    41c4:	90 e0       	ldi	r25, 0x00	; 0
    41c6:	01 96       	adiw	r24, 0x01	; 1
    41c8:	0e 94 67 3c 	call	0x78ce	; 0x78ce <malloc>
    41cc:	9c 01       	movw	r18, r24
    41ce:	8a 85       	ldd	r24, Y+10	; 0x0a
    41d0:	9b 85       	ldd	r25, Y+11	; 0x0b
    41d2:	fc 01       	movw	r30, r24
    41d4:	34 83       	std	Z+4, r19	; 0x04
    41d6:	23 83       	std	Z+3, r18	; 0x03
           
           for (uint8_t i = 2; i < value_length; i++)
    41d8:	82 e0       	ldi	r24, 0x02	; 2
    41da:	8d 83       	std	Y+5, r24	; 0x05
    41dc:	1e c0       	rjmp	.+60     	; 0x421a <snmp_udp_rec+0x3ea>
            Objects->Value[i] = RecPak[PakPos + i];   
    41de:	8a 85       	ldd	r24, Y+10	; 0x0a
    41e0:	9b 85       	ldd	r25, Y+11	; 0x0b
    41e2:	fc 01       	movw	r30, r24
    41e4:	23 81       	ldd	r18, Z+3	; 0x03
    41e6:	34 81       	ldd	r19, Z+4	; 0x04
    41e8:	8d 81       	ldd	r24, Y+5	; 0x05
    41ea:	88 2f       	mov	r24, r24
    41ec:	90 e0       	ldi	r25, 0x00	; 0
    41ee:	82 0f       	add	r24, r18
    41f0:	93 1f       	adc	r25, r19
    41f2:	29 81       	ldd	r18, Y+1	; 0x01
    41f4:	42 2f       	mov	r20, r18
    41f6:	50 e0       	ldi	r21, 0x00	; 0
    41f8:	2d 81       	ldd	r18, Y+5	; 0x05
    41fa:	22 2f       	mov	r18, r18
    41fc:	30 e0       	ldi	r19, 0x00	; 0
    41fe:	24 0f       	add	r18, r20
    4200:	35 1f       	adc	r19, r21
    4202:	a9 01       	movw	r20, r18
    4204:	2f 81       	ldd	r18, Y+7	; 0x07
    4206:	38 85       	ldd	r19, Y+8	; 0x08
    4208:	24 0f       	add	r18, r20
    420a:	35 1f       	adc	r19, r21
    420c:	f9 01       	movw	r30, r18
    420e:	20 81       	ld	r18, Z
    4210:	fc 01       	movw	r30, r24
    4212:	20 83       	st	Z, r18
           if (RecPak[PakPos] > 0)
               continue; //While schleife beenden
           uint8_t value_length = RecPak[PakPos];
           Objects->Value = malloc(value_length + 1);
           
           for (uint8_t i = 2; i < value_length; i++)
    4214:	8d 81       	ldd	r24, Y+5	; 0x05
    4216:	8f 5f       	subi	r24, 0xFF	; 255
    4218:	8d 83       	std	Y+5, r24	; 0x05
    421a:	9d 81       	ldd	r25, Y+5	; 0x05
    421c:	8d 85       	ldd	r24, Y+13	; 0x0d
    421e:	98 17       	cp	r25, r24
    4220:	f0 f2       	brcs	.-68     	; 0x41de <snmp_udp_rec+0x3ae>
       Objects = malloc(RecPak[PakPos] + 1); //Speicher reservieren fr die einzelnen Objekte
     
       PakPos += 2; //Von List Length auf Varbind objekt length springen
       
       // ------------ VARBIND ------------
       while (RecPak[PakPos] > 0) //Es ist etwas in dem Varbind
    4222:	89 81       	ldd	r24, Y+1	; 0x01
    4224:	88 2f       	mov	r24, r24
    4226:	90 e0       	ldi	r25, 0x00	; 0
    4228:	2f 81       	ldd	r18, Y+7	; 0x07
    422a:	38 85       	ldd	r19, Y+8	; 0x08
    422c:	82 0f       	add	r24, r18
    422e:	93 1f       	adc	r25, r19
    4230:	fc 01       	movw	r30, r24
    4232:	80 81       	ld	r24, Z
    4234:	88 23       	and	r24, r24
    4236:	09 f0       	breq	.+2      	; 0x423a <snmp_udp_rec+0x40a>
    4238:	41 cf       	rjmp	.-382    	; 0x40bc <snmp_udp_rec+0x28c>
    
    
    
    

    DEBUG("\n\n\nSNMP Nachricht\nVersion: %i \nComm: %s \nPDU: %i \nReq ID: %i\n Error: %i \nError Idx: %i\n\n", SNMP_Data.Version, SNMP_Data.Comm_Name, SNMP_Data.PDU_Type, SNMP_Data.RequestID, SNMP_Data.Error, SNMP_Data.ErrorIndex);
    423a:	8d 8d       	ldd	r24, Y+29	; 0x1d
    423c:	a8 2f       	mov	r26, r24
    423e:	b0 e0       	ldi	r27, 0x00	; 0
    4240:	8c 8d       	ldd	r24, Y+28	; 0x1c
    4242:	e8 2f       	mov	r30, r24
    4244:	f0 e0       	ldi	r31, 0x00	; 0
    4246:	6a 8d       	ldd	r22, Y+26	; 0x1a
    4248:	7b 8d       	ldd	r23, Y+27	; 0x1b
    424a:	89 8d       	ldd	r24, Y+25	; 0x19
    424c:	88 2f       	mov	r24, r24
    424e:	90 e0       	ldi	r25, 0x00	; 0
    4250:	2e 85       	ldd	r18, Y+14	; 0x0e
    4252:	42 2f       	mov	r20, r18
    4254:	50 e0       	ldi	r21, 0x00	; 0
    4256:	2b e0       	ldi	r18, 0x0B	; 11
    4258:	3e e1       	ldi	r19, 0x1E	; 30
    425a:	1b 2f       	mov	r17, r27
    425c:	1f 93       	push	r17
    425e:	af 93       	push	r26
    4260:	af 2f       	mov	r26, r31
    4262:	af 93       	push	r26
    4264:	ef 93       	push	r30
    4266:	e7 2f       	mov	r30, r23
    4268:	ef 93       	push	r30
    426a:	6f 93       	push	r22
    426c:	69 2f       	mov	r22, r25
    426e:	6f 93       	push	r22
    4270:	8f 93       	push	r24
    4272:	ce 01       	movw	r24, r28
    4274:	0e 96       	adiw	r24, 0x0e	; 14
    4276:	01 96       	adiw	r24, 0x01	; 1
    4278:	69 2f       	mov	r22, r25
    427a:	6f 93       	push	r22
    427c:	8f 93       	push	r24
    427e:	85 2f       	mov	r24, r21
    4280:	8f 93       	push	r24
    4282:	84 2f       	mov	r24, r20
    4284:	8f 93       	push	r24
    4286:	83 2f       	mov	r24, r19
    4288:	8f 93       	push	r24
    428a:	82 2f       	mov	r24, r18
    428c:	8f 93       	push	r24
    428e:	0e 94 31 3a 	call	0x7462	; 0x7462 <usart_write_P>
    4292:	8d b7       	in	r24, 0x3d	; 61
    4294:	9e b7       	in	r25, 0x3e	; 62
    4296:	0e 96       	adiw	r24, 0x0e	; 14
    4298:	0f b6       	in	r0, 0x3f	; 63
    429a:	f8 94       	cli
    429c:	de bf       	out	0x3e, r29	; 62
    429e:	0f be       	out	0x3f, r0	; 63
    42a0:	cd bf       	out	0x3d, r28	; 61
    42a2:	a0 96       	adiw	r28, 0x20	; 32
    42a4:	0f b6       	in	r0, 0x3f	; 63
    42a6:	f8 94       	cli
    42a8:	de bf       	out	0x3e, r29	; 62
    42aa:	0f be       	out	0x3f, r0	; 63
    42ac:	cd bf       	out	0x3d, r28	; 61
    42ae:	df 91       	pop	r29
    42b0:	cf 91       	pop	r28
    42b2:	1f 91       	pop	r17
    42b4:	08 95       	ret

000042b6 <htons>:
PING_STRUCT ping;

//----------------------------------------------------------------------------
//Converts integer variables to network Byte order
unsigned int htons(unsigned int val)
{
    42b6:	cf 93       	push	r28
    42b8:	df 93       	push	r29
    42ba:	00 d0       	rcall	.+0      	; 0x42bc <htons+0x6>
    42bc:	cd b7       	in	r28, 0x3d	; 61
    42be:	de b7       	in	r29, 0x3e	; 62
    42c0:	9a 83       	std	Y+2, r25	; 0x02
    42c2:	89 83       	std	Y+1, r24	; 0x01
  return HTONS(val);
    42c4:	89 81       	ldd	r24, Y+1	; 0x01
    42c6:	9a 81       	ldd	r25, Y+2	; 0x02
    42c8:	98 27       	eor	r25, r24
    42ca:	89 27       	eor	r24, r25
    42cc:	98 27       	eor	r25, r24
}
    42ce:	0f 90       	pop	r0
    42d0:	0f 90       	pop	r0
    42d2:	df 91       	pop	r29
    42d4:	cf 91       	pop	r28
    42d6:	08 95       	ret

000042d8 <htons32>:
//----------------------------------------------------------------------------
//Converts integer variables to network Byte order
unsigned long htons32(unsigned long val)
{
    42d8:	cf 93       	push	r28
    42da:	df 93       	push	r29
    42dc:	00 d0       	rcall	.+0      	; 0x42de <htons32+0x6>
    42de:	00 d0       	rcall	.+0      	; 0x42e0 <htons32+0x8>
    42e0:	cd b7       	in	r28, 0x3d	; 61
    42e2:	de b7       	in	r29, 0x3e	; 62
    42e4:	69 83       	std	Y+1, r22	; 0x01
    42e6:	7a 83       	std	Y+2, r23	; 0x02
    42e8:	8b 83       	std	Y+3, r24	; 0x03
    42ea:	9c 83       	std	Y+4, r25	; 0x04
  return HTONS32(val);
    42ec:	89 81       	ldd	r24, Y+1	; 0x01
    42ee:	9a 81       	ldd	r25, Y+2	; 0x02
    42f0:	ab 81       	ldd	r26, Y+3	; 0x03
    42f2:	bc 81       	ldd	r27, Y+4	; 0x04
    42f4:	2b 2f       	mov	r18, r27
    42f6:	33 27       	eor	r19, r19
    42f8:	44 27       	eor	r20, r20
    42fa:	55 27       	eor	r21, r21
    42fc:	89 81       	ldd	r24, Y+1	; 0x01
    42fe:	9a 81       	ldd	r25, Y+2	; 0x02
    4300:	ab 81       	ldd	r26, Y+3	; 0x03
    4302:	bc 81       	ldd	r27, Y+4	; 0x04
    4304:	88 27       	eor	r24, r24
    4306:	99 27       	eor	r25, r25
    4308:	bb 27       	eor	r27, r27
    430a:	89 2f       	mov	r24, r25
    430c:	9a 2f       	mov	r25, r26
    430e:	ab 2f       	mov	r26, r27
    4310:	bb 27       	eor	r27, r27
    4312:	28 0f       	add	r18, r24
    4314:	39 1f       	adc	r19, r25
    4316:	4a 1f       	adc	r20, r26
    4318:	5b 1f       	adc	r21, r27
    431a:	89 81       	ldd	r24, Y+1	; 0x01
    431c:	9a 81       	ldd	r25, Y+2	; 0x02
    431e:	ab 81       	ldd	r26, Y+3	; 0x03
    4320:	bc 81       	ldd	r27, Y+4	; 0x04
    4322:	88 27       	eor	r24, r24
    4324:	aa 27       	eor	r26, r26
    4326:	bb 27       	eor	r27, r27
    4328:	ba 2f       	mov	r27, r26
    432a:	a9 2f       	mov	r26, r25
    432c:	98 2f       	mov	r25, r24
    432e:	88 27       	eor	r24, r24
    4330:	28 0f       	add	r18, r24
    4332:	39 1f       	adc	r19, r25
    4334:	4a 1f       	adc	r20, r26
    4336:	5b 1f       	adc	r21, r27
    4338:	89 81       	ldd	r24, Y+1	; 0x01
    433a:	9a 81       	ldd	r25, Y+2	; 0x02
    433c:	ab 81       	ldd	r26, Y+3	; 0x03
    433e:	bc 81       	ldd	r27, Y+4	; 0x04
    4340:	b8 2f       	mov	r27, r24
    4342:	aa 27       	eor	r26, r26
    4344:	99 27       	eor	r25, r25
    4346:	88 27       	eor	r24, r24
    4348:	82 0f       	add	r24, r18
    434a:	93 1f       	adc	r25, r19
    434c:	a4 1f       	adc	r26, r20
    434e:	b5 1f       	adc	r27, r21
}
    4350:	bc 01       	movw	r22, r24
    4352:	cd 01       	movw	r24, r26
    4354:	0f 90       	pop	r0
    4356:	0f 90       	pop	r0
    4358:	0f 90       	pop	r0
    435a:	0f 90       	pop	r0
    435c:	df 91       	pop	r29
    435e:	cf 91       	pop	r28
    4360:	08 95       	ret

00004362 <stack_init>:

//----------------------------------------------------------------------------
//Trgt Anwendung in Anwendungsliste ein
void stack_init (void)
{
    4362:	0f 93       	push	r16
    4364:	1f 93       	push	r17
    4366:	cf 93       	push	r28
    4368:	df 93       	push	r29
    436a:	cd b7       	in	r28, 0x3d	; 61
    436c:	de b7       	in	r29, 0x3e	; 62
	//Timer starten
	timer_init();
    436e:	0e 94 58 39 	call	0x72b0	; 0x72b0 <timer_init>

	//IP, NETMASK und ROUTER_IP aus EEPROM auslesen	
    (*((unsigned long*)&myip[0])) = get_eeprom_value(IP_EEPROM_STORE,MYIP);
    4372:	0e e9       	ldi	r16, 0x9E	; 158
    4374:	15 e0       	ldi	r17, 0x05	; 5
    4376:	40 ec       	ldi	r20, 0xC0	; 192
    4378:	58 ea       	ldi	r21, 0xA8	; 168
    437a:	61 e0       	ldi	r22, 0x01	; 1
    437c:	73 e6       	ldi	r23, 0x63	; 99
    437e:	8e e1       	ldi	r24, 0x1E	; 30
    4380:	90 e0       	ldi	r25, 0x00	; 0
    4382:	0e 94 60 22 	call	0x44c0	; 0x44c0 <get_eeprom_value>
    4386:	dc 01       	movw	r26, r24
    4388:	cb 01       	movw	r24, r22
    438a:	f8 01       	movw	r30, r16
    438c:	80 83       	st	Z, r24
    438e:	91 83       	std	Z+1, r25	; 0x01
    4390:	a2 83       	std	Z+2, r26	; 0x02
    4392:	b3 83       	std	Z+3, r27	; 0x03
	(*((unsigned long*)&netmask[0])) = get_eeprom_value(NETMASK_EEPROM_STORE,NETMASK);
    4394:	06 ea       	ldi	r16, 0xA6	; 166
    4396:	15 e0       	ldi	r17, 0x05	; 5
    4398:	4f ef       	ldi	r20, 0xFF	; 255
    439a:	5f ef       	ldi	r21, 0xFF	; 255
    439c:	6f ef       	ldi	r22, 0xFF	; 255
    439e:	70 e0       	ldi	r23, 0x00	; 0
    43a0:	82 e2       	ldi	r24, 0x22	; 34
    43a2:	90 e0       	ldi	r25, 0x00	; 0
    43a4:	0e 94 60 22 	call	0x44c0	; 0x44c0 <get_eeprom_value>
    43a8:	dc 01       	movw	r26, r24
    43aa:	cb 01       	movw	r24, r22
    43ac:	f8 01       	movw	r30, r16
    43ae:	80 83       	st	Z, r24
    43b0:	91 83       	std	Z+1, r25	; 0x01
    43b2:	a2 83       	std	Z+2, r26	; 0x02
    43b4:	b3 83       	std	Z+3, r27	; 0x03
	(*((unsigned long*)&router_ip[0])) = get_eeprom_value(ROUTER_IP_EEPROM_STORE,ROUTER_IP);
    43b6:	02 ea       	ldi	r16, 0xA2	; 162
    43b8:	15 e0       	ldi	r17, 0x05	; 5
    43ba:	40 ec       	ldi	r20, 0xC0	; 192
    43bc:	58 ea       	ldi	r21, 0xA8	; 168
    43be:	61 e0       	ldi	r22, 0x01	; 1
    43c0:	71 e0       	ldi	r23, 0x01	; 1
    43c2:	86 e2       	ldi	r24, 0x26	; 38
    43c4:	90 e0       	ldi	r25, 0x00	; 0
    43c6:	0e 94 60 22 	call	0x44c0	; 0x44c0 <get_eeprom_value>
    43ca:	dc 01       	movw	r26, r24
    43cc:	cb 01       	movw	r24, r22
    43ce:	f8 01       	movw	r30, r16
    43d0:	80 83       	st	Z, r24
    43d2:	91 83       	std	Z+1, r25	; 0x01
    43d4:	a2 83       	std	Z+2, r26	; 0x02
    43d6:	b3 83       	std	Z+3, r27	; 0x03
	
	//Broadcast-Adresse berechnen
	(*((unsigned long*)&broadcast_ip[0])) = (((*((unsigned long*)&myip[0])) & (*((unsigned long*)&netmask[0]))) | (~(*((unsigned long*)&netmask[0]))));
    43d8:	6b ea       	ldi	r22, 0xAB	; 171
    43da:	75 e0       	ldi	r23, 0x05	; 5
    43dc:	8e e9       	ldi	r24, 0x9E	; 158
    43de:	95 e0       	ldi	r25, 0x05	; 5
    43e0:	fc 01       	movw	r30, r24
    43e2:	20 81       	ld	r18, Z
    43e4:	31 81       	ldd	r19, Z+1	; 0x01
    43e6:	42 81       	ldd	r20, Z+2	; 0x02
    43e8:	53 81       	ldd	r21, Z+3	; 0x03
    43ea:	86 ea       	ldi	r24, 0xA6	; 166
    43ec:	95 e0       	ldi	r25, 0x05	; 5
    43ee:	fc 01       	movw	r30, r24
    43f0:	80 81       	ld	r24, Z
    43f2:	91 81       	ldd	r25, Z+1	; 0x01
    43f4:	a2 81       	ldd	r26, Z+2	; 0x02
    43f6:	b3 81       	ldd	r27, Z+3	; 0x03
    43f8:	28 23       	and	r18, r24
    43fa:	39 23       	and	r19, r25
    43fc:	4a 23       	and	r20, r26
    43fe:	5b 23       	and	r21, r27
    4400:	86 ea       	ldi	r24, 0xA6	; 166
    4402:	95 e0       	ldi	r25, 0x05	; 5
    4404:	fc 01       	movw	r30, r24
    4406:	80 81       	ld	r24, Z
    4408:	91 81       	ldd	r25, Z+1	; 0x01
    440a:	a2 81       	ldd	r26, Z+2	; 0x02
    440c:	b3 81       	ldd	r27, Z+3	; 0x03
    440e:	80 95       	com	r24
    4410:	90 95       	com	r25
    4412:	a0 95       	com	r26
    4414:	b0 95       	com	r27
    4416:	82 2b       	or	r24, r18
    4418:	93 2b       	or	r25, r19
    441a:	a4 2b       	or	r26, r20
    441c:	b5 2b       	or	r27, r21
    441e:	fb 01       	movw	r30, r22
    4420:	80 83       	st	Z, r24
    4422:	91 83       	std	Z+1, r25	; 0x01
    4424:	a2 83       	std	Z+2, r26	; 0x02
    4426:	b3 83       	std	Z+3, r27	; 0x03
    //DNS-Server IP aus EEPROM auslesen
    (*((unsigned long*)&dns_server_ip[0])) = get_eeprom_value(DNS_IP_EEPROM_STORE,DNS_IP);
    #endif
  
	//MAC Adresse setzen
	mymac[0] = MYMAC1;
    4428:	10 92 37 03 	sts	0x0337, r1	; 0x800337 <mymac>
    mymac[1] = MYMAC2;
    442c:	80 e2       	ldi	r24, 0x20	; 32
    442e:	80 93 38 03 	sts	0x0338, r24	; 0x800338 <mymac+0x1>
    mymac[2] = MYMAC3;
    4432:	88 e1       	ldi	r24, 0x18	; 24
    4434:	80 93 39 03 	sts	0x0339, r24	; 0x800339 <mymac+0x2>
    mymac[3] = MYMAC4;
    4438:	81 eb       	ldi	r24, 0xB1	; 177
    443a:	80 93 3a 03 	sts	0x033A, r24	; 0x80033a <mymac+0x3>
    mymac[4] = MYMAC5;
    443e:	85 e1       	ldi	r24, 0x15	; 21
    4440:	80 93 3b 03 	sts	0x033B, r24	; 0x80033b <mymac+0x4>
    mymac[5] = MYMAC6;
    4444:	8f e6       	ldi	r24, 0x6F	; 111
    4446:	80 93 3c 03 	sts	0x033C, r24	; 0x80033c <mymac+0x5>
	
	/*NIC Initialisieren*/
	DEBUG("\n\rNIC init:");
    444a:	84 e6       	ldi	r24, 0x64	; 100
    444c:	9e e1       	ldi	r25, 0x1E	; 30
    444e:	29 2f       	mov	r18, r25
    4450:	2f 93       	push	r18
    4452:	8f 93       	push	r24
    4454:	0e 94 31 3a 	call	0x7462	; 0x7462 <usart_write_P>
    4458:	0f 90       	pop	r0
    445a:	0f 90       	pop	r0
	ETH_INIT();
    445c:	0e 94 fd 1d 	call	0x3bfa	; 0x3bfa <enc_init>
	
	DEBUG("My IP: %1i.%1i.%1i.%1i\r\n\r\n",myip[0],myip[1],myip[2],myip[3]);
    4460:	80 91 a1 05 	lds	r24, 0x05A1	; 0x8005a1 <myip+0x3>
    4464:	e8 2f       	mov	r30, r24
    4466:	f0 e0       	ldi	r31, 0x00	; 0
    4468:	80 91 a0 05 	lds	r24, 0x05A0	; 0x8005a0 <myip+0x2>
    446c:	68 2f       	mov	r22, r24
    446e:	70 e0       	ldi	r23, 0x00	; 0
    4470:	80 91 9f 05 	lds	r24, 0x059F	; 0x80059f <myip+0x1>
    4474:	48 2f       	mov	r20, r24
    4476:	50 e0       	ldi	r21, 0x00	; 0
    4478:	80 91 9e 05 	lds	r24, 0x059E	; 0x80059e <myip>
    447c:	28 2f       	mov	r18, r24
    447e:	30 e0       	ldi	r19, 0x00	; 0
    4480:	80 e7       	ldi	r24, 0x70	; 112
    4482:	9e e1       	ldi	r25, 0x1E	; 30
    4484:	af 2f       	mov	r26, r31
    4486:	af 93       	push	r26
    4488:	ef 93       	push	r30
    448a:	e7 2f       	mov	r30, r23
    448c:	ef 93       	push	r30
    448e:	6f 93       	push	r22
    4490:	65 2f       	mov	r22, r21
    4492:	6f 93       	push	r22
    4494:	4f 93       	push	r20
    4496:	43 2f       	mov	r20, r19
    4498:	4f 93       	push	r20
    449a:	2f 93       	push	r18
    449c:	29 2f       	mov	r18, r25
    449e:	2f 93       	push	r18
    44a0:	8f 93       	push	r24
    44a2:	0e 94 31 3a 	call	0x7462	; 0x7462 <usart_write_P>
    44a6:	8d b7       	in	r24, 0x3d	; 61
    44a8:	9e b7       	in	r25, 0x3e	; 62
    44aa:	0a 96       	adiw	r24, 0x0a	; 10
    44ac:	0f b6       	in	r0, 0x3f	; 63
    44ae:	f8 94       	cli
    44b0:	de bf       	out	0x3e, r29	; 62
    44b2:	0f be       	out	0x3f, r0	; 63
    44b4:	cd bf       	out	0x3d, r28	; 61
}
    44b6:	df 91       	pop	r29
    44b8:	cf 91       	pop	r28
    44ba:	1f 91       	pop	r17
    44bc:	0f 91       	pop	r16
    44be:	08 95       	ret

000044c0 <get_eeprom_value>:

//----------------------------------------------------------------------------
//
unsigned long get_eeprom_value (unsigned int eeprom_adresse,unsigned long default_value)
{
    44c0:	0f 93       	push	r16
    44c2:	1f 93       	push	r17
    44c4:	cf 93       	push	r28
    44c6:	df 93       	push	r29
    44c8:	cd b7       	in	r28, 0x3d	; 61
    44ca:	de b7       	in	r29, 0x3e	; 62
    44cc:	2b 97       	sbiw	r28, 0x0b	; 11
    44ce:	0f b6       	in	r0, 0x3f	; 63
    44d0:	f8 94       	cli
    44d2:	de bf       	out	0x3e, r29	; 62
    44d4:	0f be       	out	0x3f, r0	; 63
    44d6:	cd bf       	out	0x3d, r28	; 61
    44d8:	9f 83       	std	Y+7, r25	; 0x07
    44da:	8e 83       	std	Y+6, r24	; 0x06
    44dc:	48 87       	std	Y+8, r20	; 0x08
    44de:	59 87       	std	Y+9, r21	; 0x09
    44e0:	6a 87       	std	Y+10, r22	; 0x0a
    44e2:	7b 87       	std	Y+11, r23	; 0x0b
	unsigned char value[4];
	
	for (unsigned char count = 0; count<4;count++)
    44e4:	19 82       	std	Y+1, r1	; 0x01
    44e6:	20 c0       	rjmp	.+64     	; 0x4528 <get_eeprom_value+0x68>
	{
		eeprom_busy_wait ();	
    44e8:	8c e3       	ldi	r24, 0x3C	; 60
    44ea:	90 e0       	ldi	r25, 0x00	; 0
    44ec:	fc 01       	movw	r30, r24
    44ee:	80 81       	ld	r24, Z
    44f0:	88 2f       	mov	r24, r24
    44f2:	90 e0       	ldi	r25, 0x00	; 0
    44f4:	82 70       	andi	r24, 0x02	; 2
    44f6:	99 27       	eor	r25, r25
    44f8:	89 2b       	or	r24, r25
    44fa:	b1 f7       	brne	.-20     	; 0x44e8 <get_eeprom_value+0x28>
		value[count] = eeprom_read_byte((unsigned char *)(eeprom_adresse + count));
    44fc:	89 81       	ldd	r24, Y+1	; 0x01
    44fe:	08 2f       	mov	r16, r24
    4500:	10 e0       	ldi	r17, 0x00	; 0
    4502:	89 81       	ldd	r24, Y+1	; 0x01
    4504:	28 2f       	mov	r18, r24
    4506:	30 e0       	ldi	r19, 0x00	; 0
    4508:	8e 81       	ldd	r24, Y+6	; 0x06
    450a:	9f 81       	ldd	r25, Y+7	; 0x07
    450c:	82 0f       	add	r24, r18
    450e:	93 1f       	adc	r25, r19
    4510:	0e 94 54 3f 	call	0x7ea8	; 0x7ea8 <eeprom_read_byte>
    4514:	28 2f       	mov	r18, r24
    4516:	ce 01       	movw	r24, r28
    4518:	02 96       	adiw	r24, 0x02	; 2
    451a:	80 0f       	add	r24, r16
    451c:	91 1f       	adc	r25, r17
    451e:	fc 01       	movw	r30, r24
    4520:	20 83       	st	Z, r18
//
unsigned long get_eeprom_value (unsigned int eeprom_adresse,unsigned long default_value)
{
	unsigned char value[4];
	
	for (unsigned char count = 0; count<4;count++)
    4522:	89 81       	ldd	r24, Y+1	; 0x01
    4524:	8f 5f       	subi	r24, 0xFF	; 255
    4526:	89 83       	std	Y+1, r24	; 0x01
    4528:	89 81       	ldd	r24, Y+1	; 0x01
    452a:	84 30       	cpi	r24, 0x04	; 4
    452c:	e8 f2       	brcs	.-70     	; 0x44e8 <get_eeprom_value+0x28>
		eeprom_busy_wait ();	
		value[count] = eeprom_read_byte((unsigned char *)(eeprom_adresse + count));
	}

	//Ist der EEPROM Inhalt leer?
	if ((*((unsigned long*)&value[0])) == 0xFFFFFFFF)
    452e:	ce 01       	movw	r24, r28
    4530:	02 96       	adiw	r24, 0x02	; 2
    4532:	fc 01       	movw	r30, r24
    4534:	80 81       	ld	r24, Z
    4536:	91 81       	ldd	r25, Z+1	; 0x01
    4538:	a2 81       	ldd	r26, Z+2	; 0x02
    453a:	b3 81       	ldd	r27, Z+3	; 0x03
    453c:	8f 3f       	cpi	r24, 0xFF	; 255
    453e:	9f 4f       	sbci	r25, 0xFF	; 255
    4540:	af 4f       	sbci	r26, 0xFF	; 255
    4542:	bf 4f       	sbci	r27, 0xFF	; 255
    4544:	29 f4       	brne	.+10     	; 0x4550 <get_eeprom_value+0x90>
	{
		return(default_value);
    4546:	88 85       	ldd	r24, Y+8	; 0x08
    4548:	99 85       	ldd	r25, Y+9	; 0x09
    454a:	aa 85       	ldd	r26, Y+10	; 0x0a
    454c:	bb 85       	ldd	r27, Y+11	; 0x0b
    454e:	07 c0       	rjmp	.+14     	; 0x455e <get_eeprom_value+0x9e>
	}
	return((*((unsigned long*)&value[0])));
    4550:	ce 01       	movw	r24, r28
    4552:	02 96       	adiw	r24, 0x02	; 2
    4554:	fc 01       	movw	r30, r24
    4556:	80 81       	ld	r24, Z
    4558:	91 81       	ldd	r25, Z+1	; 0x01
    455a:	a2 81       	ldd	r26, Z+2	; 0x02
    455c:	b3 81       	ldd	r27, Z+3	; 0x03
}
    455e:	bc 01       	movw	r22, r24
    4560:	cd 01       	movw	r24, r26
    4562:	2b 96       	adiw	r28, 0x0b	; 11
    4564:	0f b6       	in	r0, 0x3f	; 63
    4566:	f8 94       	cli
    4568:	de bf       	out	0x3e, r29	; 62
    456a:	0f be       	out	0x3f, r0	; 63
    456c:	cd bf       	out	0x3d, r28	; 61
    456e:	df 91       	pop	r29
    4570:	cf 91       	pop	r28
    4572:	1f 91       	pop	r17
    4574:	0f 91       	pop	r16
    4576:	08 95       	ret

00004578 <tcp_timer_call>:

//----------------------------------------------------------------------------
//Verwaltung des TCP Timers
void tcp_timer_call (void)
{
    4578:	cf 93       	push	r28
    457a:	df 93       	push	r29
    457c:	1f 92       	push	r1
    457e:	cd b7       	in	r28, 0x3d	; 61
    4580:	de b7       	in	r29, 0x3e	; 62
	for (unsigned char index = 0;index<MAX_TCP_ENTRY;index++)
    4582:	19 82       	std	Y+1, r1	; 0x01
    4584:	ca c0       	rjmp	.+404    	; 0x471a <tcp_timer_call+0x1a2>
	{
		if (tcp_entry[index].time == 0)
    4586:	89 81       	ldd	r24, Y+1	; 0x01
    4588:	28 2f       	mov	r18, r24
    458a:	30 e0       	ldi	r19, 0x00	; 0
    458c:	46 e1       	ldi	r20, 0x16	; 22
    458e:	42 9f       	mul	r20, r18
    4590:	c0 01       	movw	r24, r0
    4592:	43 9f       	mul	r20, r19
    4594:	90 0d       	add	r25, r0
    4596:	11 24       	eor	r1, r1
    4598:	80 54       	subi	r24, 0x40	; 64
    459a:	9d 4f       	sbci	r25, 0xFD	; 253
    459c:	fc 01       	movw	r30, r24
    459e:	80 81       	ld	r24, Z
    45a0:	88 23       	and	r24, r24
    45a2:	09 f0       	breq	.+2      	; 0x45a6 <tcp_timer_call+0x2e>
    45a4:	8e c0       	rjmp	.+284    	; 0x46c2 <tcp_timer_call+0x14a>
		{
			if (tcp_entry[index].ip != 0)
    45a6:	89 81       	ldd	r24, Y+1	; 0x01
    45a8:	28 2f       	mov	r18, r24
    45aa:	30 e0       	ldi	r19, 0x00	; 0
    45ac:	46 e1       	ldi	r20, 0x16	; 22
    45ae:	42 9f       	mul	r20, r18
    45b0:	c0 01       	movw	r24, r0
    45b2:	43 9f       	mul	r20, r19
    45b4:	90 0d       	add	r25, r0
    45b6:	11 24       	eor	r1, r1
    45b8:	83 55       	subi	r24, 0x53	; 83
    45ba:	9d 4f       	sbci	r25, 0xFD	; 253
    45bc:	fc 01       	movw	r30, r24
    45be:	80 81       	ld	r24, Z
    45c0:	91 81       	ldd	r25, Z+1	; 0x01
    45c2:	a2 81       	ldd	r26, Z+2	; 0x02
    45c4:	b3 81       	ldd	r27, Z+3	; 0x03
    45c6:	89 2b       	or	r24, r25
    45c8:	8a 2b       	or	r24, r26
    45ca:	8b 2b       	or	r24, r27
    45cc:	09 f4       	brne	.+2      	; 0x45d0 <tcp_timer_call+0x58>
    45ce:	a2 c0       	rjmp	.+324    	; 0x4714 <tcp_timer_call+0x19c>
			{
				tcp_entry[index].time = TCP_MAX_ENTRY_TIME;
    45d0:	89 81       	ldd	r24, Y+1	; 0x01
    45d2:	28 2f       	mov	r18, r24
    45d4:	30 e0       	ldi	r19, 0x00	; 0
    45d6:	46 e1       	ldi	r20, 0x16	; 22
    45d8:	42 9f       	mul	r20, r18
    45da:	c0 01       	movw	r24, r0
    45dc:	43 9f       	mul	r20, r19
    45de:	90 0d       	add	r25, r0
    45e0:	11 24       	eor	r1, r1
    45e2:	80 54       	subi	r24, 0x40	; 64
    45e4:	9d 4f       	sbci	r25, 0xFD	; 253
    45e6:	23 e0       	ldi	r18, 0x03	; 3
    45e8:	fc 01       	movw	r30, r24
    45ea:	20 83       	st	Z, r18
				if ((tcp_entry[index].error_count++) > MAX_TCP_ERRORCOUNT)
    45ec:	89 81       	ldd	r24, Y+1	; 0x01
    45ee:	88 2f       	mov	r24, r24
    45f0:	90 e0       	ldi	r25, 0x00	; 0
    45f2:	46 e1       	ldi	r20, 0x16	; 22
    45f4:	48 9f       	mul	r20, r24
    45f6:	90 01       	movw	r18, r0
    45f8:	49 9f       	mul	r20, r25
    45fa:	30 0d       	add	r19, r0
    45fc:	11 24       	eor	r1, r1
    45fe:	2f 53       	subi	r18, 0x3F	; 63
    4600:	3d 4f       	sbci	r19, 0xFD	; 253
    4602:	f9 01       	movw	r30, r18
    4604:	40 81       	ld	r20, Z
    4606:	51 e0       	ldi	r21, 0x01	; 1
    4608:	54 0f       	add	r21, r20
    460a:	66 e1       	ldi	r22, 0x16	; 22
    460c:	68 9f       	mul	r22, r24
    460e:	90 01       	movw	r18, r0
    4610:	69 9f       	mul	r22, r25
    4612:	30 0d       	add	r19, r0
    4614:	11 24       	eor	r1, r1
    4616:	c9 01       	movw	r24, r18
    4618:	8f 53       	subi	r24, 0x3F	; 63
    461a:	9d 4f       	sbci	r25, 0xFD	; 253
    461c:	fc 01       	movw	r30, r24
    461e:	50 83       	st	Z, r21
    4620:	46 30       	cpi	r20, 0x06	; 6
    4622:	d0 f1       	brcs	.+116    	; 0x4698 <tcp_timer_call+0x120>
				{
					DEBUG("Eintrag wird entfernt MAX_ERROR STACK:%i\r\n",index);
    4624:	89 81       	ldd	r24, Y+1	; 0x01
    4626:	28 2f       	mov	r18, r24
    4628:	30 e0       	ldi	r19, 0x00	; 0
    462a:	8b e8       	ldi	r24, 0x8B	; 139
    462c:	9e e1       	ldi	r25, 0x1E	; 30
    462e:	43 2f       	mov	r20, r19
    4630:	4f 93       	push	r20
    4632:	2f 93       	push	r18
    4634:	29 2f       	mov	r18, r25
    4636:	2f 93       	push	r18
    4638:	8f 93       	push	r24
    463a:	0e 94 31 3a 	call	0x7462	; 0x7462 <usart_write_P>
    463e:	0f 90       	pop	r0
    4640:	0f 90       	pop	r0
    4642:	0f 90       	pop	r0
    4644:	0f 90       	pop	r0
					ETH_INT_DISABLE;
    4646:	8b e5       	ldi	r24, 0x5B	; 91
    4648:	90 e0       	ldi	r25, 0x00	; 0
    464a:	2b e5       	ldi	r18, 0x5B	; 91
    464c:	30 e0       	ldi	r19, 0x00	; 0
    464e:	f9 01       	movw	r30, r18
    4650:	20 81       	ld	r18, Z
    4652:	2f 7d       	andi	r18, 0xDF	; 223
    4654:	fc 01       	movw	r30, r24
    4656:	20 83       	st	Z, r18
					tcp_entry[index].status =  RST_FLAG | ACK_FLAG;
    4658:	89 81       	ldd	r24, Y+1	; 0x01
    465a:	28 2f       	mov	r18, r24
    465c:	30 e0       	ldi	r19, 0x00	; 0
    465e:	46 e1       	ldi	r20, 0x16	; 22
    4660:	42 9f       	mul	r20, r18
    4662:	c0 01       	movw	r24, r0
    4664:	43 9f       	mul	r20, r19
    4666:	90 0d       	add	r25, r0
    4668:	11 24       	eor	r1, r1
    466a:	83 54       	subi	r24, 0x43	; 67
    466c:	9d 4f       	sbci	r25, 0xFD	; 253
    466e:	24 e1       	ldi	r18, 0x14	; 20
    4670:	fc 01       	movw	r30, r24
    4672:	20 83       	st	Z, r18
					create_new_tcp_packet(0,index);
    4674:	69 81       	ldd	r22, Y+1	; 0x01
    4676:	80 e0       	ldi	r24, 0x00	; 0
    4678:	90 e0       	ldi	r25, 0x00	; 0
    467a:	0e 94 c3 35 	call	0x6b86	; 0x6b86 <create_new_tcp_packet>
					ETH_INT_ENABLE;
    467e:	8b e5       	ldi	r24, 0x5B	; 91
    4680:	90 e0       	ldi	r25, 0x00	; 0
    4682:	2b e5       	ldi	r18, 0x5B	; 91
    4684:	30 e0       	ldi	r19, 0x00	; 0
    4686:	f9 01       	movw	r30, r18
    4688:	20 81       	ld	r18, Z
    468a:	20 62       	ori	r18, 0x20	; 32
    468c:	fc 01       	movw	r30, r24
    468e:	20 83       	st	Z, r18
					tcp_index_del(index);
    4690:	89 81       	ldd	r24, Y+1	; 0x01
    4692:	0e 94 c5 38 	call	0x718a	; 0x718a <tcp_index_del>
    4696:	3e c0       	rjmp	.+124    	; 0x4714 <tcp_timer_call+0x19c>
				}
				else
				{
					DEBUG("Packet wird erneut gesendet STACK:%i\r\n",index);
    4698:	89 81       	ldd	r24, Y+1	; 0x01
    469a:	28 2f       	mov	r18, r24
    469c:	30 e0       	ldi	r19, 0x00	; 0
    469e:	86 eb       	ldi	r24, 0xB6	; 182
    46a0:	9e e1       	ldi	r25, 0x1E	; 30
    46a2:	43 2f       	mov	r20, r19
    46a4:	4f 93       	push	r20
    46a6:	2f 93       	push	r18
    46a8:	29 2f       	mov	r18, r25
    46aa:	2f 93       	push	r18
    46ac:	8f 93       	push	r24
    46ae:	0e 94 31 3a 	call	0x7462	; 0x7462 <usart_write_P>
    46b2:	0f 90       	pop	r0
    46b4:	0f 90       	pop	r0
    46b6:	0f 90       	pop	r0
    46b8:	0f 90       	pop	r0
					find_and_start (index);
    46ba:	89 81       	ldd	r24, Y+1	; 0x01
    46bc:	0e 94 85 37 	call	0x6f0a	; 0x6f0a <find_and_start>
    46c0:	29 c0       	rjmp	.+82     	; 0x4714 <tcp_timer_call+0x19c>
				}
			}
		}
		else
		{
			if (tcp_entry[index].time != TCP_TIME_OFF)
    46c2:	89 81       	ldd	r24, Y+1	; 0x01
    46c4:	28 2f       	mov	r18, r24
    46c6:	30 e0       	ldi	r19, 0x00	; 0
    46c8:	46 e1       	ldi	r20, 0x16	; 22
    46ca:	42 9f       	mul	r20, r18
    46cc:	c0 01       	movw	r24, r0
    46ce:	43 9f       	mul	r20, r19
    46d0:	90 0d       	add	r25, r0
    46d2:	11 24       	eor	r1, r1
    46d4:	80 54       	subi	r24, 0x40	; 64
    46d6:	9d 4f       	sbci	r25, 0xFD	; 253
    46d8:	fc 01       	movw	r30, r24
    46da:	80 81       	ld	r24, Z
    46dc:	8f 3f       	cpi	r24, 0xFF	; 255
    46de:	d1 f0       	breq	.+52     	; 0x4714 <tcp_timer_call+0x19c>
			{
				tcp_entry[index].time--;
    46e0:	89 81       	ldd	r24, Y+1	; 0x01
    46e2:	88 2f       	mov	r24, r24
    46e4:	90 e0       	ldi	r25, 0x00	; 0
    46e6:	46 e1       	ldi	r20, 0x16	; 22
    46e8:	48 9f       	mul	r20, r24
    46ea:	90 01       	movw	r18, r0
    46ec:	49 9f       	mul	r20, r25
    46ee:	30 0d       	add	r19, r0
    46f0:	11 24       	eor	r1, r1
    46f2:	20 54       	subi	r18, 0x40	; 64
    46f4:	3d 4f       	sbci	r19, 0xFD	; 253
    46f6:	f9 01       	movw	r30, r18
    46f8:	20 81       	ld	r18, Z
    46fa:	4f ef       	ldi	r20, 0xFF	; 255
    46fc:	42 0f       	add	r20, r18
    46fe:	56 e1       	ldi	r21, 0x16	; 22
    4700:	58 9f       	mul	r21, r24
    4702:	90 01       	movw	r18, r0
    4704:	59 9f       	mul	r21, r25
    4706:	30 0d       	add	r19, r0
    4708:	11 24       	eor	r1, r1
    470a:	c9 01       	movw	r24, r18
    470c:	80 54       	subi	r24, 0x40	; 64
    470e:	9d 4f       	sbci	r25, 0xFD	; 253
    4710:	fc 01       	movw	r30, r24
    4712:	40 83       	st	Z, r20

//----------------------------------------------------------------------------
//Verwaltung des TCP Timers
void tcp_timer_call (void)
{
	for (unsigned char index = 0;index<MAX_TCP_ENTRY;index++)
    4714:	89 81       	ldd	r24, Y+1	; 0x01
    4716:	8f 5f       	subi	r24, 0xFF	; 255
    4718:	89 83       	std	Y+1, r24	; 0x01
    471a:	89 81       	ldd	r24, Y+1	; 0x01
    471c:	85 30       	cpi	r24, 0x05	; 5
    471e:	08 f4       	brcc	.+2      	; 0x4722 <tcp_timer_call+0x1aa>
    4720:	32 cf       	rjmp	.-412    	; 0x4586 <tcp_timer_call+0xe>
			{
				tcp_entry[index].time--;
			}
		}
	}
}
    4722:	0f 90       	pop	r0
    4724:	df 91       	pop	r29
    4726:	cf 91       	pop	r28
    4728:	08 95       	ret

0000472a <arp_timer_call>:

//----------------------------------------------------------------------------
//Verwaltung des ARP Timers
void arp_timer_call (void)
{
    472a:	cf 93       	push	r28
    472c:	df 93       	push	r29
    472e:	00 d0       	rcall	.+0      	; 0x4730 <arp_timer_call+0x6>
    4730:	cd b7       	in	r28, 0x3d	; 61
    4732:	de b7       	in	r29, 0x3e	; 62
	for (unsigned char a = 0;a<MAX_ARP_ENTRY;a++)
    4734:	19 82       	std	Y+1, r1	; 0x01
    4736:	69 c0       	rjmp	.+210    	; 0x480a <arp_timer_call+0xe0>
	{
		if (arp_entry[a].arp_t_time == 0)
    4738:	89 81       	ldd	r24, Y+1	; 0x01
    473a:	28 2f       	mov	r18, r24
    473c:	30 e0       	ldi	r19, 0x00	; 0
    473e:	c9 01       	movw	r24, r18
    4740:	88 0f       	add	r24, r24
    4742:	99 1f       	adc	r25, r25
    4744:	82 0f       	add	r24, r18
    4746:	93 1f       	adc	r25, r19
    4748:	88 0f       	add	r24, r24
    474a:	99 1f       	adc	r25, r25
    474c:	88 0f       	add	r24, r24
    474e:	99 1f       	adc	r25, r25
    4750:	8b 59       	subi	r24, 0x9B	; 155
    4752:	9d 4f       	sbci	r25, 0xFD	; 253
    4754:	fc 01       	movw	r30, r24
    4756:	80 81       	ld	r24, Z
    4758:	91 81       	ldd	r25, Z+1	; 0x01
    475a:	89 2b       	or	r24, r25
    475c:	89 f5       	brne	.+98     	; 0x47c0 <arp_timer_call+0x96>
		{
			for (unsigned char b = 0;b<6;b++)
    475e:	1a 82       	std	Y+2, r1	; 0x02
    4760:	18 c0       	rjmp	.+48     	; 0x4792 <arp_timer_call+0x68>
			{
				arp_entry[a].arp_t_mac[b]= 0;
    4762:	89 81       	ldd	r24, Y+1	; 0x01
    4764:	28 2f       	mov	r18, r24
    4766:	30 e0       	ldi	r19, 0x00	; 0
    4768:	8a 81       	ldd	r24, Y+2	; 0x02
    476a:	48 2f       	mov	r20, r24
    476c:	50 e0       	ldi	r21, 0x00	; 0
    476e:	c9 01       	movw	r24, r18
    4770:	88 0f       	add	r24, r24
    4772:	99 1f       	adc	r25, r25
    4774:	82 0f       	add	r24, r18
    4776:	93 1f       	adc	r25, r19
    4778:	88 0f       	add	r24, r24
    477a:	99 1f       	adc	r25, r25
    477c:	88 0f       	add	r24, r24
    477e:	99 1f       	adc	r25, r25
    4780:	84 0f       	add	r24, r20
    4782:	95 1f       	adc	r25, r21
    4784:	85 5a       	subi	r24, 0xA5	; 165
    4786:	9d 4f       	sbci	r25, 0xFD	; 253
    4788:	fc 01       	movw	r30, r24
    478a:	10 82       	st	Z, r1
{
	for (unsigned char a = 0;a<MAX_ARP_ENTRY;a++)
	{
		if (arp_entry[a].arp_t_time == 0)
		{
			for (unsigned char b = 0;b<6;b++)
    478c:	8a 81       	ldd	r24, Y+2	; 0x02
    478e:	8f 5f       	subi	r24, 0xFF	; 255
    4790:	8a 83       	std	Y+2, r24	; 0x02
    4792:	8a 81       	ldd	r24, Y+2	; 0x02
    4794:	86 30       	cpi	r24, 0x06	; 6
    4796:	28 f3       	brcs	.-54     	; 0x4762 <arp_timer_call+0x38>
			{
				arp_entry[a].arp_t_mac[b]= 0;
			}
			arp_entry[a].arp_t_ip = 0;
    4798:	89 81       	ldd	r24, Y+1	; 0x01
    479a:	28 2f       	mov	r18, r24
    479c:	30 e0       	ldi	r19, 0x00	; 0
    479e:	c9 01       	movw	r24, r18
    47a0:	88 0f       	add	r24, r24
    47a2:	99 1f       	adc	r25, r25
    47a4:	82 0f       	add	r24, r18
    47a6:	93 1f       	adc	r25, r19
    47a8:	88 0f       	add	r24, r24
    47aa:	99 1f       	adc	r25, r25
    47ac:	88 0f       	add	r24, r24
    47ae:	99 1f       	adc	r25, r25
    47b0:	8f 59       	subi	r24, 0x9F	; 159
    47b2:	9d 4f       	sbci	r25, 0xFD	; 253
    47b4:	fc 01       	movw	r30, r24
    47b6:	10 82       	st	Z, r1
    47b8:	11 82       	std	Z+1, r1	; 0x01
    47ba:	12 82       	std	Z+2, r1	; 0x02
    47bc:	13 82       	std	Z+3, r1	; 0x03
    47be:	22 c0       	rjmp	.+68     	; 0x4804 <arp_timer_call+0xda>
		}
		else
		{
			arp_entry[a].arp_t_time--;
    47c0:	89 81       	ldd	r24, Y+1	; 0x01
    47c2:	28 2f       	mov	r18, r24
    47c4:	30 e0       	ldi	r19, 0x00	; 0
    47c6:	c9 01       	movw	r24, r18
    47c8:	88 0f       	add	r24, r24
    47ca:	99 1f       	adc	r25, r25
    47cc:	82 0f       	add	r24, r18
    47ce:	93 1f       	adc	r25, r19
    47d0:	88 0f       	add	r24, r24
    47d2:	99 1f       	adc	r25, r25
    47d4:	88 0f       	add	r24, r24
    47d6:	99 1f       	adc	r25, r25
    47d8:	8b 59       	subi	r24, 0x9B	; 155
    47da:	9d 4f       	sbci	r25, 0xFD	; 253
    47dc:	fc 01       	movw	r30, r24
    47de:	80 81       	ld	r24, Z
    47e0:	91 81       	ldd	r25, Z+1	; 0x01
    47e2:	ac 01       	movw	r20, r24
    47e4:	41 50       	subi	r20, 0x01	; 1
    47e6:	51 09       	sbc	r21, r1
    47e8:	c9 01       	movw	r24, r18
    47ea:	88 0f       	add	r24, r24
    47ec:	99 1f       	adc	r25, r25
    47ee:	82 0f       	add	r24, r18
    47f0:	93 1f       	adc	r25, r19
    47f2:	88 0f       	add	r24, r24
    47f4:	99 1f       	adc	r25, r25
    47f6:	88 0f       	add	r24, r24
    47f8:	99 1f       	adc	r25, r25
    47fa:	8b 59       	subi	r24, 0x9B	; 155
    47fc:	9d 4f       	sbci	r25, 0xFD	; 253
    47fe:	fc 01       	movw	r30, r24
    4800:	51 83       	std	Z+1, r21	; 0x01
    4802:	40 83       	st	Z, r20

//----------------------------------------------------------------------------
//Verwaltung des ARP Timers
void arp_timer_call (void)
{
	for (unsigned char a = 0;a<MAX_ARP_ENTRY;a++)
    4804:	89 81       	ldd	r24, Y+1	; 0x01
    4806:	8f 5f       	subi	r24, 0xFF	; 255
    4808:	89 83       	std	Y+1, r24	; 0x01
    480a:	89 81       	ldd	r24, Y+1	; 0x01
    480c:	85 30       	cpi	r24, 0x05	; 5
    480e:	08 f4       	brcc	.+2      	; 0x4812 <arp_timer_call+0xe8>
    4810:	93 cf       	rjmp	.-218    	; 0x4738 <arp_timer_call+0xe>
		else
		{
			arp_entry[a].arp_t_time--;
		}
	}
}
    4812:	0f 90       	pop	r0
    4814:	0f 90       	pop	r0
    4816:	df 91       	pop	r29
    4818:	cf 91       	pop	r28
    481a:	08 95       	ret

0000481c <add_tcp_app>:

//----------------------------------------------------------------------------
//Trgt TCP PORT/Anwendung in Anwendungsliste ein
void add_tcp_app (unsigned int port, void(*fp1)(unsigned char))
{
    481c:	cf 93       	push	r28
    481e:	df 93       	push	r29
    4820:	00 d0       	rcall	.+0      	; 0x4822 <add_tcp_app+0x6>
    4822:	00 d0       	rcall	.+0      	; 0x4824 <add_tcp_app+0x8>
    4824:	1f 92       	push	r1
    4826:	cd b7       	in	r28, 0x3d	; 61
    4828:	de b7       	in	r29, 0x3e	; 62
    482a:	9b 83       	std	Y+3, r25	; 0x03
    482c:	8a 83       	std	Y+2, r24	; 0x02
    482e:	7d 83       	std	Y+5, r23	; 0x05
    4830:	6c 83       	std	Y+4, r22	; 0x04
	unsigned char port_index = 0;
    4832:	19 82       	std	Y+1, r1	; 0x01
	//Freien Eintrag in der Anwendungliste suchen
	while (TCP_PORT_TABLE[port_index].port)
    4834:	03 c0       	rjmp	.+6      	; 0x483c <add_tcp_app+0x20>
	{ 
		port_index++;
    4836:	89 81       	ldd	r24, Y+1	; 0x01
    4838:	8f 5f       	subi	r24, 0xFF	; 255
    483a:	89 83       	std	Y+1, r24	; 0x01
//Trgt TCP PORT/Anwendung in Anwendungsliste ein
void add_tcp_app (unsigned int port, void(*fp1)(unsigned char))
{
	unsigned char port_index = 0;
	//Freien Eintrag in der Anwendungliste suchen
	while (TCP_PORT_TABLE[port_index].port)
    483c:	89 81       	ldd	r24, Y+1	; 0x01
    483e:	88 2f       	mov	r24, r24
    4840:	90 e0       	ldi	r25, 0x00	; 0
    4842:	88 0f       	add	r24, r24
    4844:	99 1f       	adc	r25, r25
    4846:	88 0f       	add	r24, r24
    4848:	99 1f       	adc	r25, r25
    484a:	86 53       	subi	r24, 0x36	; 54
    484c:	9e 4f       	sbci	r25, 0xFE	; 254
    484e:	fc 01       	movw	r30, r24
    4850:	80 81       	ld	r24, Z
    4852:	91 81       	ldd	r25, Z+1	; 0x01
    4854:	89 2b       	or	r24, r25
    4856:	79 f7       	brne	.-34     	; 0x4836 <add_tcp_app+0x1a>
	{ 
		port_index++;
	}
	if (port_index >= MAX_APP_ENTRY)
    4858:	89 81       	ldd	r24, Y+1	; 0x01
    485a:	85 30       	cpi	r24, 0x05	; 5
    485c:	50 f0       	brcs	.+20     	; 0x4872 <add_tcp_app+0x56>
	{
		DEBUG("TCP Zuviele Anwendungen wurden gestartet\r\n");
    485e:	8d ed       	ldi	r24, 0xDD	; 221
    4860:	9e e1       	ldi	r25, 0x1E	; 30
    4862:	29 2f       	mov	r18, r25
    4864:	2f 93       	push	r18
    4866:	8f 93       	push	r24
    4868:	0e 94 31 3a 	call	0x7462	; 0x7462 <usart_write_P>
    486c:	0f 90       	pop	r0
    486e:	0f 90       	pop	r0
		return;
    4870:	2e c0       	rjmp	.+92     	; 0x48ce <add_tcp_app+0xb2>
	}
	DEBUG("TCP Anwendung wird in Liste eingetragen: Eintrag %i\r\n",port_index);
    4872:	89 81       	ldd	r24, Y+1	; 0x01
    4874:	28 2f       	mov	r18, r24
    4876:	30 e0       	ldi	r19, 0x00	; 0
    4878:	88 e0       	ldi	r24, 0x08	; 8
    487a:	9f e1       	ldi	r25, 0x1F	; 31
    487c:	43 2f       	mov	r20, r19
    487e:	4f 93       	push	r20
    4880:	2f 93       	push	r18
    4882:	29 2f       	mov	r18, r25
    4884:	2f 93       	push	r18
    4886:	8f 93       	push	r24
    4888:	0e 94 31 3a 	call	0x7462	; 0x7462 <usart_write_P>
    488c:	0f 90       	pop	r0
    488e:	0f 90       	pop	r0
    4890:	0f 90       	pop	r0
    4892:	0f 90       	pop	r0
	TCP_PORT_TABLE[port_index].port = port;
    4894:	89 81       	ldd	r24, Y+1	; 0x01
    4896:	88 2f       	mov	r24, r24
    4898:	90 e0       	ldi	r25, 0x00	; 0
    489a:	88 0f       	add	r24, r24
    489c:	99 1f       	adc	r25, r25
    489e:	88 0f       	add	r24, r24
    48a0:	99 1f       	adc	r25, r25
    48a2:	86 53       	subi	r24, 0x36	; 54
    48a4:	9e 4f       	sbci	r25, 0xFE	; 254
    48a6:	2a 81       	ldd	r18, Y+2	; 0x02
    48a8:	3b 81       	ldd	r19, Y+3	; 0x03
    48aa:	fc 01       	movw	r30, r24
    48ac:	31 83       	std	Z+1, r19	; 0x01
    48ae:	20 83       	st	Z, r18
	TCP_PORT_TABLE[port_index].fp = *fp1;
    48b0:	89 81       	ldd	r24, Y+1	; 0x01
    48b2:	88 2f       	mov	r24, r24
    48b4:	90 e0       	ldi	r25, 0x00	; 0
    48b6:	88 0f       	add	r24, r24
    48b8:	99 1f       	adc	r25, r25
    48ba:	88 0f       	add	r24, r24
    48bc:	99 1f       	adc	r25, r25
    48be:	84 53       	subi	r24, 0x34	; 52
    48c0:	9e 4f       	sbci	r25, 0xFE	; 254
    48c2:	2c 81       	ldd	r18, Y+4	; 0x04
    48c4:	3d 81       	ldd	r19, Y+5	; 0x05
    48c6:	fc 01       	movw	r30, r24
    48c8:	31 83       	std	Z+1, r19	; 0x01
    48ca:	20 83       	st	Z, r18
	return;
    48cc:	00 00       	nop
}
    48ce:	0f 90       	pop	r0
    48d0:	0f 90       	pop	r0
    48d2:	0f 90       	pop	r0
    48d4:	0f 90       	pop	r0
    48d6:	0f 90       	pop	r0
    48d8:	df 91       	pop	r29
    48da:	cf 91       	pop	r28
    48dc:	08 95       	ret

000048de <change_port_tcp_app>:

//----------------------------------------------------------------------------
//nderung der TCP PORT/Anwendung in Anwendungsliste
void change_port_tcp_app (unsigned int port_old, unsigned int port_new)
{
    48de:	cf 93       	push	r28
    48e0:	df 93       	push	r29
    48e2:	00 d0       	rcall	.+0      	; 0x48e4 <change_port_tcp_app+0x6>
    48e4:	00 d0       	rcall	.+0      	; 0x48e6 <change_port_tcp_app+0x8>
    48e6:	1f 92       	push	r1
    48e8:	cd b7       	in	r28, 0x3d	; 61
    48ea:	de b7       	in	r29, 0x3e	; 62
    48ec:	9b 83       	std	Y+3, r25	; 0x03
    48ee:	8a 83       	std	Y+2, r24	; 0x02
    48f0:	7d 83       	std	Y+5, r23	; 0x05
    48f2:	6c 83       	std	Y+4, r22	; 0x04
	unsigned char port_index = 0;
    48f4:	19 82       	std	Y+1, r1	; 0x01
	//Freien Eintrag in der Anwendungliste suchen
	while (TCP_PORT_TABLE[port_index].port && TCP_PORT_TABLE[port_index].port != port_old)
    48f6:	03 c0       	rjmp	.+6      	; 0x48fe <change_port_tcp_app+0x20>
	{ 
		port_index++;
    48f8:	89 81       	ldd	r24, Y+1	; 0x01
    48fa:	8f 5f       	subi	r24, 0xFF	; 255
    48fc:	89 83       	std	Y+1, r24	; 0x01
//nderung der TCP PORT/Anwendung in Anwendungsliste
void change_port_tcp_app (unsigned int port_old, unsigned int port_new)
{
	unsigned char port_index = 0;
	//Freien Eintrag in der Anwendungliste suchen
	while (TCP_PORT_TABLE[port_index].port && TCP_PORT_TABLE[port_index].port != port_old)
    48fe:	89 81       	ldd	r24, Y+1	; 0x01
    4900:	88 2f       	mov	r24, r24
    4902:	90 e0       	ldi	r25, 0x00	; 0
    4904:	88 0f       	add	r24, r24
    4906:	99 1f       	adc	r25, r25
    4908:	88 0f       	add	r24, r24
    490a:	99 1f       	adc	r25, r25
    490c:	86 53       	subi	r24, 0x36	; 54
    490e:	9e 4f       	sbci	r25, 0xFE	; 254
    4910:	fc 01       	movw	r30, r24
    4912:	80 81       	ld	r24, Z
    4914:	91 81       	ldd	r25, Z+1	; 0x01
    4916:	89 2b       	or	r24, r25
    4918:	89 f0       	breq	.+34     	; 0x493c <change_port_tcp_app+0x5e>
    491a:	89 81       	ldd	r24, Y+1	; 0x01
    491c:	88 2f       	mov	r24, r24
    491e:	90 e0       	ldi	r25, 0x00	; 0
    4920:	88 0f       	add	r24, r24
    4922:	99 1f       	adc	r25, r25
    4924:	88 0f       	add	r24, r24
    4926:	99 1f       	adc	r25, r25
    4928:	86 53       	subi	r24, 0x36	; 54
    492a:	9e 4f       	sbci	r25, 0xFE	; 254
    492c:	fc 01       	movw	r30, r24
    492e:	20 81       	ld	r18, Z
    4930:	31 81       	ldd	r19, Z+1	; 0x01
    4932:	8a 81       	ldd	r24, Y+2	; 0x02
    4934:	9b 81       	ldd	r25, Y+3	; 0x03
    4936:	28 17       	cp	r18, r24
    4938:	39 07       	cpc	r19, r25
    493a:	f1 f6       	brne	.-68     	; 0x48f8 <change_port_tcp_app+0x1a>
	{ 
		port_index++;
	}
	if (port_index >= MAX_APP_ENTRY)
    493c:	89 81       	ldd	r24, Y+1	; 0x01
    493e:	85 30       	cpi	r24, 0x05	; 5
    4940:	50 f0       	brcs	.+20     	; 0x4956 <change_port_tcp_app+0x78>
	{
		DEBUG("(Portnderung) Port wurde nicht gefunden\r\n");
    4942:	8e e3       	ldi	r24, 0x3E	; 62
    4944:	9f e1       	ldi	r25, 0x1F	; 31
    4946:	29 2f       	mov	r18, r25
    4948:	2f 93       	push	r18
    494a:	8f 93       	push	r24
    494c:	0e 94 31 3a 	call	0x7462	; 0x7462 <usart_write_P>
    4950:	0f 90       	pop	r0
    4952:	0f 90       	pop	r0
		return;
    4954:	20 c0       	rjmp	.+64     	; 0x4996 <change_port_tcp_app+0xb8>
	}
	DEBUG("TCP Anwendung Port ndern: Eintrag %i\r\n",port_index);
    4956:	89 81       	ldd	r24, Y+1	; 0x01
    4958:	28 2f       	mov	r18, r24
    495a:	30 e0       	ldi	r19, 0x00	; 0
    495c:	89 e6       	ldi	r24, 0x69	; 105
    495e:	9f e1       	ldi	r25, 0x1F	; 31
    4960:	43 2f       	mov	r20, r19
    4962:	4f 93       	push	r20
    4964:	2f 93       	push	r18
    4966:	29 2f       	mov	r18, r25
    4968:	2f 93       	push	r18
    496a:	8f 93       	push	r24
    496c:	0e 94 31 3a 	call	0x7462	; 0x7462 <usart_write_P>
    4970:	0f 90       	pop	r0
    4972:	0f 90       	pop	r0
    4974:	0f 90       	pop	r0
    4976:	0f 90       	pop	r0
	TCP_PORT_TABLE[port_index].port = port_new;
    4978:	89 81       	ldd	r24, Y+1	; 0x01
    497a:	88 2f       	mov	r24, r24
    497c:	90 e0       	ldi	r25, 0x00	; 0
    497e:	88 0f       	add	r24, r24
    4980:	99 1f       	adc	r25, r25
    4982:	88 0f       	add	r24, r24
    4984:	99 1f       	adc	r25, r25
    4986:	86 53       	subi	r24, 0x36	; 54
    4988:	9e 4f       	sbci	r25, 0xFE	; 254
    498a:	2c 81       	ldd	r18, Y+4	; 0x04
    498c:	3d 81       	ldd	r19, Y+5	; 0x05
    498e:	fc 01       	movw	r30, r24
    4990:	31 83       	std	Z+1, r19	; 0x01
    4992:	20 83       	st	Z, r18
	return;
    4994:	00 00       	nop
}
    4996:	0f 90       	pop	r0
    4998:	0f 90       	pop	r0
    499a:	0f 90       	pop	r0
    499c:	0f 90       	pop	r0
    499e:	0f 90       	pop	r0
    49a0:	df 91       	pop	r29
    49a2:	cf 91       	pop	r28
    49a4:	08 95       	ret

000049a6 <add_udp_app>:

//----------------------------------------------------------------------------
//Trgt UDP PORT/Anwendung in Anwendungsliste ein
void add_udp_app (unsigned int port, void(*fp1)(unsigned char))
{
    49a6:	cf 93       	push	r28
    49a8:	df 93       	push	r29
    49aa:	00 d0       	rcall	.+0      	; 0x49ac <add_udp_app+0x6>
    49ac:	00 d0       	rcall	.+0      	; 0x49ae <add_udp_app+0x8>
    49ae:	1f 92       	push	r1
    49b0:	cd b7       	in	r28, 0x3d	; 61
    49b2:	de b7       	in	r29, 0x3e	; 62
    49b4:	9b 83       	std	Y+3, r25	; 0x03
    49b6:	8a 83       	std	Y+2, r24	; 0x02
    49b8:	7d 83       	std	Y+5, r23	; 0x05
    49ba:	6c 83       	std	Y+4, r22	; 0x04
	unsigned char port_index = 0;
    49bc:	19 82       	std	Y+1, r1	; 0x01
	//Freien Eintrag in der Anwendungliste suchen
	while (UDP_PORT_TABLE[port_index].port)
    49be:	03 c0       	rjmp	.+6      	; 0x49c6 <add_udp_app+0x20>
	{ 
		port_index++;
    49c0:	89 81       	ldd	r24, Y+1	; 0x01
    49c2:	8f 5f       	subi	r24, 0xFF	; 255
    49c4:	89 83       	std	Y+1, r24	; 0x01
//Trgt UDP PORT/Anwendung in Anwendungsliste ein
void add_udp_app (unsigned int port, void(*fp1)(unsigned char))
{
	unsigned char port_index = 0;
	//Freien Eintrag in der Anwendungliste suchen
	while (UDP_PORT_TABLE[port_index].port)
    49c6:	89 81       	ldd	r24, Y+1	; 0x01
    49c8:	88 2f       	mov	r24, r24
    49ca:	90 e0       	ldi	r25, 0x00	; 0
    49cc:	88 0f       	add	r24, r24
    49ce:	99 1f       	adc	r25, r25
    49d0:	88 0f       	add	r24, r24
    49d2:	99 1f       	adc	r25, r25
    49d4:	82 52       	subi	r24, 0x22	; 34
    49d6:	9e 4f       	sbci	r25, 0xFE	; 254
    49d8:	fc 01       	movw	r30, r24
    49da:	80 81       	ld	r24, Z
    49dc:	91 81       	ldd	r25, Z+1	; 0x01
    49de:	89 2b       	or	r24, r25
    49e0:	79 f7       	brne	.-34     	; 0x49c0 <add_udp_app+0x1a>
	{ 
		port_index++;
	}
	if (port_index >= MAX_APP_ENTRY)
    49e2:	89 81       	ldd	r24, Y+1	; 0x01
    49e4:	85 30       	cpi	r24, 0x05	; 5
    49e6:	50 f0       	brcs	.+20     	; 0x49fc <add_udp_app+0x56>
	{
		DEBUG("Zuviele UDP Anwendungen wurden gestartet\r\n");
    49e8:	81 e9       	ldi	r24, 0x91	; 145
    49ea:	9f e1       	ldi	r25, 0x1F	; 31
    49ec:	29 2f       	mov	r18, r25
    49ee:	2f 93       	push	r18
    49f0:	8f 93       	push	r24
    49f2:	0e 94 31 3a 	call	0x7462	; 0x7462 <usart_write_P>
    49f6:	0f 90       	pop	r0
    49f8:	0f 90       	pop	r0
		return;
    49fa:	2e c0       	rjmp	.+92     	; 0x4a58 <add_udp_app+0xb2>
	}
	DEBUG("UDP Anwendung wird in Liste eingetragen: Eintrag %i\r\n",port_index);
    49fc:	89 81       	ldd	r24, Y+1	; 0x01
    49fe:	28 2f       	mov	r18, r24
    4a00:	30 e0       	ldi	r19, 0x00	; 0
    4a02:	8c eb       	ldi	r24, 0xBC	; 188
    4a04:	9f e1       	ldi	r25, 0x1F	; 31
    4a06:	43 2f       	mov	r20, r19
    4a08:	4f 93       	push	r20
    4a0a:	2f 93       	push	r18
    4a0c:	29 2f       	mov	r18, r25
    4a0e:	2f 93       	push	r18
    4a10:	8f 93       	push	r24
    4a12:	0e 94 31 3a 	call	0x7462	; 0x7462 <usart_write_P>
    4a16:	0f 90       	pop	r0
    4a18:	0f 90       	pop	r0
    4a1a:	0f 90       	pop	r0
    4a1c:	0f 90       	pop	r0
	UDP_PORT_TABLE[port_index].port = port;
    4a1e:	89 81       	ldd	r24, Y+1	; 0x01
    4a20:	88 2f       	mov	r24, r24
    4a22:	90 e0       	ldi	r25, 0x00	; 0
    4a24:	88 0f       	add	r24, r24
    4a26:	99 1f       	adc	r25, r25
    4a28:	88 0f       	add	r24, r24
    4a2a:	99 1f       	adc	r25, r25
    4a2c:	82 52       	subi	r24, 0x22	; 34
    4a2e:	9e 4f       	sbci	r25, 0xFE	; 254
    4a30:	2a 81       	ldd	r18, Y+2	; 0x02
    4a32:	3b 81       	ldd	r19, Y+3	; 0x03
    4a34:	fc 01       	movw	r30, r24
    4a36:	31 83       	std	Z+1, r19	; 0x01
    4a38:	20 83       	st	Z, r18
	UDP_PORT_TABLE[port_index].fp = *fp1;
    4a3a:	89 81       	ldd	r24, Y+1	; 0x01
    4a3c:	88 2f       	mov	r24, r24
    4a3e:	90 e0       	ldi	r25, 0x00	; 0
    4a40:	88 0f       	add	r24, r24
    4a42:	99 1f       	adc	r25, r25
    4a44:	88 0f       	add	r24, r24
    4a46:	99 1f       	adc	r25, r25
    4a48:	80 52       	subi	r24, 0x20	; 32
    4a4a:	9e 4f       	sbci	r25, 0xFE	; 254
    4a4c:	2c 81       	ldd	r18, Y+4	; 0x04
    4a4e:	3d 81       	ldd	r19, Y+5	; 0x05
    4a50:	fc 01       	movw	r30, r24
    4a52:	31 83       	std	Z+1, r19	; 0x01
    4a54:	20 83       	st	Z, r18
	return;
    4a56:	00 00       	nop
}
    4a58:	0f 90       	pop	r0
    4a5a:	0f 90       	pop	r0
    4a5c:	0f 90       	pop	r0
    4a5e:	0f 90       	pop	r0
    4a60:	0f 90       	pop	r0
    4a62:	df 91       	pop	r29
    4a64:	cf 91       	pop	r28
    4a66:	08 95       	ret

00004a68 <kill_udp_app>:

//----------------------------------------------------------------------------
//Lscht UDP Anwendung aus der Anwendungsliste
void kill_udp_app (unsigned int port)
{
    4a68:	cf 93       	push	r28
    4a6a:	df 93       	push	r29
    4a6c:	00 d0       	rcall	.+0      	; 0x4a6e <kill_udp_app+0x6>
    4a6e:	1f 92       	push	r1
    4a70:	cd b7       	in	r28, 0x3d	; 61
    4a72:	de b7       	in	r29, 0x3e	; 62
    4a74:	9b 83       	std	Y+3, r25	; 0x03
    4a76:	8a 83       	std	Y+2, r24	; 0x02
    unsigned char i;

    for (i = 0; i < MAX_APP_ENTRY; i++)
    4a78:	19 82       	std	Y+1, r1	; 0x01
    4a7a:	20 c0       	rjmp	.+64     	; 0x4abc <kill_udp_app+0x54>
    {
        if ( UDP_PORT_TABLE[i].port == port )
    4a7c:	89 81       	ldd	r24, Y+1	; 0x01
    4a7e:	88 2f       	mov	r24, r24
    4a80:	90 e0       	ldi	r25, 0x00	; 0
    4a82:	88 0f       	add	r24, r24
    4a84:	99 1f       	adc	r25, r25
    4a86:	88 0f       	add	r24, r24
    4a88:	99 1f       	adc	r25, r25
    4a8a:	82 52       	subi	r24, 0x22	; 34
    4a8c:	9e 4f       	sbci	r25, 0xFE	; 254
    4a8e:	fc 01       	movw	r30, r24
    4a90:	20 81       	ld	r18, Z
    4a92:	31 81       	ldd	r19, Z+1	; 0x01
    4a94:	8a 81       	ldd	r24, Y+2	; 0x02
    4a96:	9b 81       	ldd	r25, Y+3	; 0x03
    4a98:	28 17       	cp	r18, r24
    4a9a:	39 07       	cpc	r19, r25
    4a9c:	61 f4       	brne	.+24     	; 0x4ab6 <kill_udp_app+0x4e>
        {
            UDP_PORT_TABLE[i].port = 0;
    4a9e:	89 81       	ldd	r24, Y+1	; 0x01
    4aa0:	88 2f       	mov	r24, r24
    4aa2:	90 e0       	ldi	r25, 0x00	; 0
    4aa4:	88 0f       	add	r24, r24
    4aa6:	99 1f       	adc	r25, r25
    4aa8:	88 0f       	add	r24, r24
    4aaa:	99 1f       	adc	r25, r25
    4aac:	82 52       	subi	r24, 0x22	; 34
    4aae:	9e 4f       	sbci	r25, 0xFE	; 254
    4ab0:	fc 01       	movw	r30, r24
    4ab2:	11 82       	std	Z+1, r1	; 0x01
    4ab4:	10 82       	st	Z, r1
//Lscht UDP Anwendung aus der Anwendungsliste
void kill_udp_app (unsigned int port)
{
    unsigned char i;

    for (i = 0; i < MAX_APP_ENTRY; i++)
    4ab6:	89 81       	ldd	r24, Y+1	; 0x01
    4ab8:	8f 5f       	subi	r24, 0xFF	; 255
    4aba:	89 83       	std	Y+1, r24	; 0x01
    4abc:	89 81       	ldd	r24, Y+1	; 0x01
    4abe:	85 30       	cpi	r24, 0x05	; 5
    4ac0:	e8 f2       	brcs	.-70     	; 0x4a7c <kill_udp_app+0x14>
        if ( UDP_PORT_TABLE[i].port == port )
        {
            UDP_PORT_TABLE[i].port = 0;
        }
    }
    return;
    4ac2:	00 00       	nop
}
    4ac4:	0f 90       	pop	r0
    4ac6:	0f 90       	pop	r0
    4ac8:	0f 90       	pop	r0
    4aca:	df 91       	pop	r29
    4acc:	cf 91       	pop	r28
    4ace:	08 95       	ret

00004ad0 <__vector_3>:

//----------------------------------------------------------------------------
//Interrupt von der Netzwerkkarte
ISR (ETH_INTERRUPT)
{
    4ad0:	1f 92       	push	r1
    4ad2:	0f 92       	push	r0
    4ad4:	00 90 5f 00 	lds	r0, 0x005F	; 0x80005f <__TEXT_REGION_LENGTH__+0x7e005f>
    4ad8:	0f 92       	push	r0
    4ada:	11 24       	eor	r1, r1
    4adc:	2f 93       	push	r18
    4ade:	3f 93       	push	r19
    4ae0:	8f 93       	push	r24
    4ae2:	9f 93       	push	r25
    4ae4:	ef 93       	push	r30
    4ae6:	ff 93       	push	r31
    4ae8:	cf 93       	push	r28
    4aea:	df 93       	push	r29
    4aec:	cd b7       	in	r28, 0x3d	; 61
    4aee:	de b7       	in	r29, 0x3e	; 62
	eth.data_present = 1;
    4af0:	80 91 97 02 	lds	r24, 0x0297	; 0x800297 <eth>
    4af4:	81 60       	ori	r24, 0x01	; 1
    4af6:	80 93 97 02 	sts	0x0297, r24	; 0x800297 <eth>
    stack_watchdog   = 0;
    4afa:	10 92 32 03 	sts	0x0332, r1	; 0x800332 <stack_watchdog+0x1>
    4afe:	10 92 31 03 	sts	0x0331, r1	; 0x800331 <stack_watchdog>
	eth.no_reset	 = 1;	
    4b02:	80 91 97 02 	lds	r24, 0x0297	; 0x800297 <eth>
    4b06:	84 60       	ori	r24, 0x04	; 4
    4b08:	80 93 97 02 	sts	0x0297, r24	; 0x800297 <eth>
	ETH_INT_DISABLE;
    4b0c:	8b e5       	ldi	r24, 0x5B	; 91
    4b0e:	90 e0       	ldi	r25, 0x00	; 0
    4b10:	2b e5       	ldi	r18, 0x5B	; 91
    4b12:	30 e0       	ldi	r19, 0x00	; 0
    4b14:	f9 01       	movw	r30, r18
    4b16:	20 81       	ld	r18, Z
    4b18:	2f 7d       	andi	r18, 0xDF	; 223
    4b1a:	fc 01       	movw	r30, r24
    4b1c:	20 83       	st	Z, r18
}
    4b1e:	df 91       	pop	r29
    4b20:	cf 91       	pop	r28
    4b22:	ff 91       	pop	r31
    4b24:	ef 91       	pop	r30
    4b26:	9f 91       	pop	r25
    4b28:	8f 91       	pop	r24
    4b2a:	3f 91       	pop	r19
    4b2c:	2f 91       	pop	r18
    4b2e:	0f 90       	pop	r0
    4b30:	00 92 5f 00 	sts	0x005F, r0	; 0x80005f <__TEXT_REGION_LENGTH__+0x7e005f>
    4b34:	0f 90       	pop	r0
    4b36:	1f 90       	pop	r1
    4b38:	18 95       	reti

00004b3a <eth_get_data>:

//----------------------------------------------------------------------------
//ETH get data
void eth_get_data (void)
{ 	
    4b3a:	cf 93       	push	r28
    4b3c:	df 93       	push	r29
    4b3e:	00 d0       	rcall	.+0      	; 0x4b40 <eth_get_data+0x6>
    4b40:	cd b7       	in	r28, 0x3d	; 61
    4b42:	de b7       	in	r29, 0x3e	; 62
	if(eth.timer)
    4b44:	80 91 97 02 	lds	r24, 0x0297	; 0x800297 <eth>
    4b48:	86 95       	lsr	r24
    4b4a:	81 70       	andi	r24, 0x01	; 1
    4b4c:	88 23       	and	r24, r24
    4b4e:	49 f0       	breq	.+18     	; 0x4b62 <eth_get_data+0x28>
	{
		tcp_timer_call();
    4b50:	0e 94 bc 22 	call	0x4578	; 0x4578 <tcp_timer_call>
		arp_timer_call();
    4b54:	0e 94 95 23 	call	0x472a	; 0x472a <arp_timer_call>
		eth.timer = 0;
    4b58:	80 91 97 02 	lds	r24, 0x0297	; 0x800297 <eth>
    4b5c:	8d 7f       	andi	r24, 0xFD	; 253
    4b5e:	80 93 97 02 	sts	0x0297, r24	; 0x800297 <eth>
	}	
	if(eth.data_present)
    4b62:	80 91 97 02 	lds	r24, 0x0297	; 0x800297 <eth>
    4b66:	81 70       	andi	r24, 0x01	; 1
    4b68:	88 23       	and	r24, r24
    4b6a:	71 f1       	breq	.+92     	; 0x4bc8 <eth_get_data+0x8e>
	{
	#if USE_ENC28J60
		while(ETH_INT_ACTIVE)
    4b6c:	15 c0       	rjmp	.+42     	; 0x4b98 <eth_get_data+0x5e>
			while (ByteL != ByteH) //(!= bedeutet ungleich)
			{	
	#endif	
				unsigned int packet_length;
				  
				packet_length = ETH_PACKET_RECEIVE(MTU_SIZE,eth_buffer);
    4b6e:	6d e3       	ldi	r22, 0x3D	; 61
    4b70:	73 e0       	ldi	r23, 0x03	; 3
    4b72:	88 e5       	ldi	r24, 0x58	; 88
    4b74:	92 e0       	ldi	r25, 0x02	; 2
    4b76:	0e 94 35 1d 	call	0x3a6a	; 0x3a6a <enc_receive_packet>
    4b7a:	9a 83       	std	Y+2, r25	; 0x02
    4b7c:	89 83       	std	Y+1, r24	; 0x01
				if(packet_length > 0)
    4b7e:	89 81       	ldd	r24, Y+1	; 0x01
    4b80:	9a 81       	ldd	r25, Y+2	; 0x02
    4b82:	89 2b       	or	r24, r25
    4b84:	49 f0       	breq	.+18     	; 0x4b98 <eth_get_data+0x5e>
				{
					eth_buffer[packet_length+1] = 0;
    4b86:	89 81       	ldd	r24, Y+1	; 0x01
    4b88:	9a 81       	ldd	r25, Y+2	; 0x02
    4b8a:	01 96       	adiw	r24, 0x01	; 1
    4b8c:	83 5c       	subi	r24, 0xC3	; 195
    4b8e:	9c 4f       	sbci	r25, 0xFC	; 252
    4b90:	fc 01       	movw	r30, r24
    4b92:	10 82       	st	Z, r1
					check_packet();
    4b94:	0e 94 ea 25 	call	0x4bd4	; 0x4bd4 <check_packet>
		eth.timer = 0;
	}	
	if(eth.data_present)
	{
	#if USE_ENC28J60
		while(ETH_INT_ACTIVE)
    4b98:	86 e3       	ldi	r24, 0x36	; 54
    4b9a:	90 e0       	ldi	r25, 0x00	; 0
    4b9c:	fc 01       	movw	r30, r24
    4b9e:	80 81       	ld	r24, Z
    4ba0:	88 2f       	mov	r24, r24
    4ba2:	90 e0       	ldi	r25, 0x00	; 0
    4ba4:	84 70       	andi	r24, 0x04	; 4
    4ba6:	99 27       	eor	r25, r25
    4ba8:	89 2b       	or	r24, r25
    4baa:	09 f3       	breq	.-62     	; 0x4b6e <eth_get_data+0x34>
		}
	#if USE_RTL8019
		Networkcard_INT_RES();
		Networkcard_Start();
	#endif
		eth.data_present = 0;
    4bac:	80 91 97 02 	lds	r24, 0x0297	; 0x800297 <eth>
    4bb0:	8e 7f       	andi	r24, 0xFE	; 254
    4bb2:	80 93 97 02 	sts	0x0297, r24	; 0x800297 <eth>
		ETH_INT_ENABLE;
    4bb6:	8b e5       	ldi	r24, 0x5B	; 91
    4bb8:	90 e0       	ldi	r25, 0x00	; 0
    4bba:	2b e5       	ldi	r18, 0x5B	; 91
    4bbc:	30 e0       	ldi	r19, 0x00	; 0
    4bbe:	f9 01       	movw	r30, r18
    4bc0:	20 81       	ld	r18, Z
    4bc2:	20 62       	ori	r18, 0x20	; 32
    4bc4:	fc 01       	movw	r30, r24
    4bc6:	20 83       	st	Z, r18
	}
	return;
    4bc8:	00 00       	nop
}
    4bca:	0f 90       	pop	r0
    4bcc:	0f 90       	pop	r0
    4bce:	df 91       	pop	r29
    4bd0:	cf 91       	pop	r28
    4bd2:	08 95       	ret

00004bd4 <check_packet>:
//----------------------------------------------------------------------------
//Check Packet and call Stack for TCP or UDP
void check_packet (void)
{
    4bd4:	ef 92       	push	r14
    4bd6:	ff 92       	push	r15
    4bd8:	0f 93       	push	r16
    4bda:	1f 93       	push	r17
    4bdc:	cf 93       	push	r28
    4bde:	df 93       	push	r29
    4be0:	00 d0       	rcall	.+0      	; 0x4be2 <check_packet+0xe>
    4be2:	00 d0       	rcall	.+0      	; 0x4be4 <check_packet+0x10>
    4be4:	00 d0       	rcall	.+0      	; 0x4be6 <check_packet+0x12>
    4be6:	cd b7       	in	r28, 0x3d	; 61
    4be8:	de b7       	in	r29, 0x3e	; 62
    struct Ethernet_Header *ethernet;    //Pointer auf Ethernet_Header
    struct IP_Header       *ip;          //Pointer auf IP_Header
    struct ICMP_Header     *icmp;        //Pointer auf ICMP_Header

    ethernet = (struct Ethernet_Header *)&eth_buffer[ETHER_OFFSET];
    4bea:	8d e3       	ldi	r24, 0x3D	; 61
    4bec:	93 e0       	ldi	r25, 0x03	; 3
    4bee:	9a 83       	std	Y+2, r25	; 0x02
    4bf0:	89 83       	std	Y+1, r24	; 0x01
    ip       = (struct IP_Header       *)&eth_buffer[IP_OFFSET];
    4bf2:	8b e4       	ldi	r24, 0x4B	; 75
    4bf4:	93 e0       	ldi	r25, 0x03	; 3
    4bf6:	9c 83       	std	Y+4, r25	; 0x04
    4bf8:	8b 83       	std	Y+3, r24	; 0x03
    icmp     = (struct ICMP_Header     *)&eth_buffer[ICMP_OFFSET];
    4bfa:	8f e5       	ldi	r24, 0x5F	; 95
    4bfc:	93 e0       	ldi	r25, 0x03	; 3
    4bfe:	9e 83       	std	Y+6, r25	; 0x06
    4c00:	8d 83       	std	Y+5, r24	; 0x05
    
    if(ethernet->EnetPacketType == HTONS(0x0806) )     //ARP
    4c02:	89 81       	ldd	r24, Y+1	; 0x01
    4c04:	9a 81       	ldd	r25, Y+2	; 0x02
    4c06:	fc 01       	movw	r30, r24
    4c08:	84 85       	ldd	r24, Z+12	; 0x0c
    4c0a:	95 85       	ldd	r25, Z+13	; 0x0d
    4c0c:	88 30       	cpi	r24, 0x08	; 8
    4c0e:	96 40       	sbci	r25, 0x06	; 6
    4c10:	19 f4       	brne	.+6      	; 0x4c18 <check_packet+0x44>
    {
        arp_reply(); // check arp packet request/reply
    4c12:	0e 94 15 2a 	call	0x542a	; 0x542a <arp_reply>
    4c16:	20 c1       	rjmp	.+576    	; 0x4e58 <check_packet+0x284>
    }
    else
    {
        if( ethernet->EnetPacketType == HTONS(0x0800) )  // if IP
    4c18:	89 81       	ldd	r24, Y+1	; 0x01
    4c1a:	9a 81       	ldd	r25, Y+2	; 0x02
    4c1c:	fc 01       	movw	r30, r24
    4c1e:	84 85       	ldd	r24, Z+12	; 0x0c
    4c20:	95 85       	ldd	r25, Z+13	; 0x0d
    4c22:	08 97       	sbiw	r24, 0x08	; 8
    4c24:	09 f0       	breq	.+2      	; 0x4c28 <check_packet+0x54>
    4c26:	18 c1       	rjmp	.+560    	; 0x4e58 <check_packet+0x284>
        {              
            if( ip->IP_Destaddr == *((unsigned long*)&myip[0]) )  // if my IP address 
    4c28:	8b 81       	ldd	r24, Y+3	; 0x03
    4c2a:	9c 81       	ldd	r25, Y+4	; 0x04
    4c2c:	fc 01       	movw	r30, r24
    4c2e:	20 89       	ldd	r18, Z+16	; 0x10
    4c30:	31 89       	ldd	r19, Z+17	; 0x11
    4c32:	42 89       	ldd	r20, Z+18	; 0x12
    4c34:	53 89       	ldd	r21, Z+19	; 0x13
    4c36:	8e e9       	ldi	r24, 0x9E	; 158
    4c38:	95 e0       	ldi	r25, 0x05	; 5
    4c3a:	fc 01       	movw	r30, r24
    4c3c:	80 81       	ld	r24, Z
    4c3e:	91 81       	ldd	r25, Z+1	; 0x01
    4c40:	a2 81       	ldd	r26, Z+2	; 0x02
    4c42:	b3 81       	ldd	r27, Z+3	; 0x03
    4c44:	28 17       	cp	r18, r24
    4c46:	39 07       	cpc	r19, r25
    4c48:	4a 07       	cpc	r20, r26
    4c4a:	5b 07       	cpc	r21, r27
    4c4c:	09 f0       	breq	.+2      	; 0x4c50 <check_packet+0x7c>
    4c4e:	dd c0       	rjmp	.+442    	; 0x4e0a <check_packet+0x236>
            {
                arp_entry_add();  ///Refresh des ARP Eintrages
    4c50:	0e 94 3a 27 	call	0x4e74	; 0x4e74 <arp_entry_add>
                if(ip->IP_Proto == PROT_ICMP)
    4c54:	8b 81       	ldd	r24, Y+3	; 0x03
    4c56:	9c 81       	ldd	r25, Y+4	; 0x04
    4c58:	fc 01       	movw	r30, r24
    4c5a:	81 85       	ldd	r24, Z+9	; 0x09
    4c5c:	81 30       	cpi	r24, 0x01	; 1
    4c5e:	09 f0       	breq	.+2      	; 0x4c62 <check_packet+0x8e>
    4c60:	c3 c0       	rjmp	.+390    	; 0x4de8 <check_packet+0x214>
                {
                    switch ( icmp->ICMP_Type )
    4c62:	8d 81       	ldd	r24, Y+5	; 0x05
    4c64:	9e 81       	ldd	r25, Y+6	; 0x06
    4c66:	fc 01       	movw	r30, r24
    4c68:	80 81       	ld	r24, Z
    4c6a:	88 2f       	mov	r24, r24
    4c6c:	90 e0       	ldi	r25, 0x00	; 0
    4c6e:	00 97       	sbiw	r24, 0x00	; 0
    4c70:	e9 f0       	breq	.+58     	; 0x4cac <check_packet+0xd8>
    4c72:	08 97       	sbiw	r24, 0x08	; 8
    4c74:	09 f0       	breq	.+2      	; 0x4c78 <check_packet+0xa4>
                            DEBUG(".%i",  ((ip->IP_Srcaddr&0x0000FF00)>>8 ));
                            DEBUG(".%i",  ((ip->IP_Srcaddr&0x00FF0000)>>16));
                            DEBUG(".%i :",((ip->IP_Srcaddr&0xFF000000)>>24));
                            break;
                    }
                    return;
    4c76:	f1 c0       	rjmp	.+482    	; 0x4e5a <check_packet+0x286>
                if(ip->IP_Proto == PROT_ICMP)
                {
                    switch ( icmp->ICMP_Type )
                    {
                        case (8): //Ping reqest
                            icmp_send(ip->IP_Srcaddr,0,0,icmp->ICMP_SeqNum,icmp->ICMP_Id); 
    4c78:	8d 81       	ldd	r24, Y+5	; 0x05
    4c7a:	9e 81       	ldd	r25, Y+6	; 0x06
    4c7c:	fc 01       	movw	r30, r24
    4c7e:	44 81       	ldd	r20, Z+4	; 0x04
    4c80:	55 81       	ldd	r21, Z+5	; 0x05
    4c82:	8d 81       	ldd	r24, Y+5	; 0x05
    4c84:	9e 81       	ldd	r25, Y+6	; 0x06
    4c86:	fc 01       	movw	r30, r24
    4c88:	26 81       	ldd	r18, Z+6	; 0x06
    4c8a:	37 81       	ldd	r19, Z+7	; 0x07
    4c8c:	8b 81       	ldd	r24, Y+3	; 0x03
    4c8e:	9c 81       	ldd	r25, Y+4	; 0x04
    4c90:	fc 01       	movw	r30, r24
    4c92:	84 85       	ldd	r24, Z+12	; 0x0c
    4c94:	95 85       	ldd	r25, Z+13	; 0x0d
    4c96:	a6 85       	ldd	r26, Z+14	; 0x0e
    4c98:	b7 85       	ldd	r27, Z+15	; 0x0f
    4c9a:	7a 01       	movw	r14, r20
    4c9c:	89 01       	movw	r16, r18
    4c9e:	20 e0       	ldi	r18, 0x00	; 0
    4ca0:	40 e0       	ldi	r20, 0x00	; 0
    4ca2:	bc 01       	movw	r22, r24
    4ca4:	cd 01       	movw	r24, r26
    4ca6:	0e 94 61 2c 	call	0x58c2	; 0x58c2 <icmp_send>
                            break;
    4caa:	9d c0       	rjmp	.+314    	; 0x4de6 <check_packet+0x212>
                            
                        case (0): //Ping reply
                            if ((*((unsigned long*)&ping.ip1[0])) == ip->IP_Srcaddr)
    4cac:	86 e9       	ldi	r24, 0x96	; 150
    4cae:	95 e0       	ldi	r25, 0x05	; 5
    4cb0:	fc 01       	movw	r30, r24
    4cb2:	20 81       	ld	r18, Z
    4cb4:	31 81       	ldd	r19, Z+1	; 0x01
    4cb6:	42 81       	ldd	r20, Z+2	; 0x02
    4cb8:	53 81       	ldd	r21, Z+3	; 0x03
    4cba:	8b 81       	ldd	r24, Y+3	; 0x03
    4cbc:	9c 81       	ldd	r25, Y+4	; 0x04
    4cbe:	fc 01       	movw	r30, r24
    4cc0:	84 85       	ldd	r24, Z+12	; 0x0c
    4cc2:	95 85       	ldd	r25, Z+13	; 0x0d
    4cc4:	a6 85       	ldd	r26, Z+14	; 0x0e
    4cc6:	b7 85       	ldd	r27, Z+15	; 0x0f
    4cc8:	28 17       	cp	r18, r24
    4cca:	39 07       	cpc	r19, r25
    4ccc:	4a 07       	cpc	r20, r26
    4cce:	5b 07       	cpc	r21, r27
    4cd0:	29 f4       	brne	.+10     	; 0x4cdc <check_packet+0x108>
                            {
                                ping.result |= 0x01;
    4cd2:	80 91 9b 05 	lds	r24, 0x059B	; 0x80059b <ping+0x5>
    4cd6:	81 60       	ori	r24, 0x01	; 1
    4cd8:	80 93 9b 05 	sts	0x059B, r24	; 0x80059b <ping+0x5>
                            }
                            DEBUG("%i",    (ip->IP_Srcaddr&0x000000FF)     );
    4cdc:	8b 81       	ldd	r24, Y+3	; 0x03
    4cde:	9c 81       	ldd	r25, Y+4	; 0x04
    4ce0:	fc 01       	movw	r30, r24
    4ce2:	84 85       	ldd	r24, Z+12	; 0x0c
    4ce4:	95 85       	ldd	r25, Z+13	; 0x0d
    4ce6:	a6 85       	ldd	r26, Z+14	; 0x0e
    4ce8:	b7 85       	ldd	r27, Z+15	; 0x0f
    4cea:	99 27       	eor	r25, r25
    4cec:	aa 27       	eor	r26, r26
    4cee:	bb 27       	eor	r27, r27
    4cf0:	22 ef       	ldi	r18, 0xF2	; 242
    4cf2:	3f e1       	ldi	r19, 0x1F	; 31
    4cf4:	4b 2f       	mov	r20, r27
    4cf6:	4f 93       	push	r20
    4cf8:	4a 2f       	mov	r20, r26
    4cfa:	4f 93       	push	r20
    4cfc:	49 2f       	mov	r20, r25
    4cfe:	4f 93       	push	r20
    4d00:	8f 93       	push	r24
    4d02:	83 2f       	mov	r24, r19
    4d04:	8f 93       	push	r24
    4d06:	82 2f       	mov	r24, r18
    4d08:	8f 93       	push	r24
    4d0a:	0e 94 31 3a 	call	0x7462	; 0x7462 <usart_write_P>
    4d0e:	0f 90       	pop	r0
    4d10:	0f 90       	pop	r0
    4d12:	0f 90       	pop	r0
    4d14:	0f 90       	pop	r0
    4d16:	0f 90       	pop	r0
    4d18:	0f 90       	pop	r0
                            DEBUG(".%i",  ((ip->IP_Srcaddr&0x0000FF00)>>8 ));
    4d1a:	8b 81       	ldd	r24, Y+3	; 0x03
    4d1c:	9c 81       	ldd	r25, Y+4	; 0x04
    4d1e:	fc 01       	movw	r30, r24
    4d20:	84 85       	ldd	r24, Z+12	; 0x0c
    4d22:	95 85       	ldd	r25, Z+13	; 0x0d
    4d24:	a6 85       	ldd	r26, Z+14	; 0x0e
    4d26:	b7 85       	ldd	r27, Z+15	; 0x0f
    4d28:	88 27       	eor	r24, r24
    4d2a:	aa 27       	eor	r26, r26
    4d2c:	bb 27       	eor	r27, r27
    4d2e:	89 2f       	mov	r24, r25
    4d30:	9a 2f       	mov	r25, r26
    4d32:	ab 2f       	mov	r26, r27
    4d34:	bb 27       	eor	r27, r27
    4d36:	25 ef       	ldi	r18, 0xF5	; 245
    4d38:	3f e1       	ldi	r19, 0x1F	; 31
    4d3a:	4b 2f       	mov	r20, r27
    4d3c:	4f 93       	push	r20
    4d3e:	4a 2f       	mov	r20, r26
    4d40:	4f 93       	push	r20
    4d42:	49 2f       	mov	r20, r25
    4d44:	4f 93       	push	r20
    4d46:	8f 93       	push	r24
    4d48:	83 2f       	mov	r24, r19
    4d4a:	8f 93       	push	r24
    4d4c:	82 2f       	mov	r24, r18
    4d4e:	8f 93       	push	r24
    4d50:	0e 94 31 3a 	call	0x7462	; 0x7462 <usart_write_P>
    4d54:	0f 90       	pop	r0
    4d56:	0f 90       	pop	r0
    4d58:	0f 90       	pop	r0
    4d5a:	0f 90       	pop	r0
    4d5c:	0f 90       	pop	r0
    4d5e:	0f 90       	pop	r0
                            DEBUG(".%i",  ((ip->IP_Srcaddr&0x00FF0000)>>16));
    4d60:	8b 81       	ldd	r24, Y+3	; 0x03
    4d62:	9c 81       	ldd	r25, Y+4	; 0x04
    4d64:	fc 01       	movw	r30, r24
    4d66:	84 85       	ldd	r24, Z+12	; 0x0c
    4d68:	95 85       	ldd	r25, Z+13	; 0x0d
    4d6a:	a6 85       	ldd	r26, Z+14	; 0x0e
    4d6c:	b7 85       	ldd	r27, Z+15	; 0x0f
    4d6e:	88 27       	eor	r24, r24
    4d70:	99 27       	eor	r25, r25
    4d72:	bb 27       	eor	r27, r27
    4d74:	cd 01       	movw	r24, r26
    4d76:	aa 27       	eor	r26, r26
    4d78:	bb 27       	eor	r27, r27
    4d7a:	29 ef       	ldi	r18, 0xF9	; 249
    4d7c:	3f e1       	ldi	r19, 0x1F	; 31
    4d7e:	4b 2f       	mov	r20, r27
    4d80:	4f 93       	push	r20
    4d82:	4a 2f       	mov	r20, r26
    4d84:	4f 93       	push	r20
    4d86:	49 2f       	mov	r20, r25
    4d88:	4f 93       	push	r20
    4d8a:	8f 93       	push	r24
    4d8c:	83 2f       	mov	r24, r19
    4d8e:	8f 93       	push	r24
    4d90:	82 2f       	mov	r24, r18
    4d92:	8f 93       	push	r24
    4d94:	0e 94 31 3a 	call	0x7462	; 0x7462 <usart_write_P>
    4d98:	0f 90       	pop	r0
    4d9a:	0f 90       	pop	r0
    4d9c:	0f 90       	pop	r0
    4d9e:	0f 90       	pop	r0
    4da0:	0f 90       	pop	r0
    4da2:	0f 90       	pop	r0
                            DEBUG(".%i :",((ip->IP_Srcaddr&0xFF000000)>>24));
    4da4:	8b 81       	ldd	r24, Y+3	; 0x03
    4da6:	9c 81       	ldd	r25, Y+4	; 0x04
    4da8:	fc 01       	movw	r30, r24
    4daa:	84 85       	ldd	r24, Z+12	; 0x0c
    4dac:	95 85       	ldd	r25, Z+13	; 0x0d
    4dae:	a6 85       	ldd	r26, Z+14	; 0x0e
    4db0:	b7 85       	ldd	r27, Z+15	; 0x0f
    4db2:	8b 2f       	mov	r24, r27
    4db4:	99 27       	eor	r25, r25
    4db6:	aa 27       	eor	r26, r26
    4db8:	bb 27       	eor	r27, r27
    4dba:	2d ef       	ldi	r18, 0xFD	; 253
    4dbc:	3f e1       	ldi	r19, 0x1F	; 31
    4dbe:	4b 2f       	mov	r20, r27
    4dc0:	4f 93       	push	r20
    4dc2:	4a 2f       	mov	r20, r26
    4dc4:	4f 93       	push	r20
    4dc6:	49 2f       	mov	r20, r25
    4dc8:	4f 93       	push	r20
    4dca:	8f 93       	push	r24
    4dcc:	83 2f       	mov	r24, r19
    4dce:	8f 93       	push	r24
    4dd0:	82 2f       	mov	r24, r18
    4dd2:	8f 93       	push	r24
    4dd4:	0e 94 31 3a 	call	0x7462	; 0x7462 <usart_write_P>
    4dd8:	0f 90       	pop	r0
    4dda:	0f 90       	pop	r0
    4ddc:	0f 90       	pop	r0
    4dde:	0f 90       	pop	r0
    4de0:	0f 90       	pop	r0
    4de2:	0f 90       	pop	r0
                            break;
    4de4:	00 00       	nop
                    }
                    return;
    4de6:	39 c0       	rjmp	.+114    	; 0x4e5a <check_packet+0x286>
                }
                else
                {
                    if( ip->IP_Proto == PROT_TCP ) tcp_socket_process();
    4de8:	8b 81       	ldd	r24, Y+3	; 0x03
    4dea:	9c 81       	ldd	r25, Y+4	; 0x04
    4dec:	fc 01       	movw	r30, r24
    4dee:	81 85       	ldd	r24, Z+9	; 0x09
    4df0:	86 30       	cpi	r24, 0x06	; 6
    4df2:	11 f4       	brne	.+4      	; 0x4df8 <check_packet+0x224>
    4df4:	0e 94 dc 31 	call	0x63b8	; 0x63b8 <tcp_socket_process>
                    if( ip->IP_Proto == PROT_UDP ) udp_socket_process();
    4df8:	8b 81       	ldd	r24, Y+3	; 0x03
    4dfa:	9c 81       	ldd	r25, Y+4	; 0x04
    4dfc:	fc 01       	movw	r30, r24
    4dfe:	81 85       	ldd	r24, Z+9	; 0x09
    4e00:	81 31       	cpi	r24, 0x11	; 17
    4e02:	51 f5       	brne	.+84     	; 0x4e58 <check_packet+0x284>
    4e04:	0e 94 b5 30 	call	0x616a	; 0x616a <udp_socket_process>
            {
                if( ip->IP_Proto == PROT_UDP ) udp_socket_process();
            }
        }
    }
    return;
    4e08:	28 c0       	rjmp	.+80     	; 0x4e5a <check_packet+0x286>
                    if( ip->IP_Proto == PROT_TCP ) tcp_socket_process();
                    if( ip->IP_Proto == PROT_UDP ) udp_socket_process();
                }
            }
            else
            if (ip->IP_Destaddr == (unsigned long)0xffffffff || ip->IP_Destaddr == *((unsigned long*)&broadcast_ip[0]) ) // if broadcast
    4e0a:	8b 81       	ldd	r24, Y+3	; 0x03
    4e0c:	9c 81       	ldd	r25, Y+4	; 0x04
    4e0e:	fc 01       	movw	r30, r24
    4e10:	80 89       	ldd	r24, Z+16	; 0x10
    4e12:	91 89       	ldd	r25, Z+17	; 0x11
    4e14:	a2 89       	ldd	r26, Z+18	; 0x12
    4e16:	b3 89       	ldd	r27, Z+19	; 0x13
    4e18:	8f 3f       	cpi	r24, 0xFF	; 255
    4e1a:	9f 4f       	sbci	r25, 0xFF	; 255
    4e1c:	af 4f       	sbci	r26, 0xFF	; 255
    4e1e:	bf 4f       	sbci	r27, 0xFF	; 255
    4e20:	99 f0       	breq	.+38     	; 0x4e48 <check_packet+0x274>
    4e22:	8b 81       	ldd	r24, Y+3	; 0x03
    4e24:	9c 81       	ldd	r25, Y+4	; 0x04
    4e26:	fc 01       	movw	r30, r24
    4e28:	20 89       	ldd	r18, Z+16	; 0x10
    4e2a:	31 89       	ldd	r19, Z+17	; 0x11
    4e2c:	42 89       	ldd	r20, Z+18	; 0x12
    4e2e:	53 89       	ldd	r21, Z+19	; 0x13
    4e30:	8b ea       	ldi	r24, 0xAB	; 171
    4e32:	95 e0       	ldi	r25, 0x05	; 5
    4e34:	fc 01       	movw	r30, r24
    4e36:	80 81       	ld	r24, Z
    4e38:	91 81       	ldd	r25, Z+1	; 0x01
    4e3a:	a2 81       	ldd	r26, Z+2	; 0x02
    4e3c:	b3 81       	ldd	r27, Z+3	; 0x03
    4e3e:	28 17       	cp	r18, r24
    4e40:	39 07       	cpc	r19, r25
    4e42:	4a 07       	cpc	r20, r26
    4e44:	5b 07       	cpc	r21, r27
    4e46:	41 f4       	brne	.+16     	; 0x4e58 <check_packet+0x284>
            {
                if( ip->IP_Proto == PROT_UDP ) udp_socket_process();
    4e48:	8b 81       	ldd	r24, Y+3	; 0x03
    4e4a:	9c 81       	ldd	r25, Y+4	; 0x04
    4e4c:	fc 01       	movw	r30, r24
    4e4e:	81 85       	ldd	r24, Z+9	; 0x09
    4e50:	81 31       	cpi	r24, 0x11	; 17
    4e52:	11 f4       	brne	.+4      	; 0x4e58 <check_packet+0x284>
    4e54:	0e 94 b5 30 	call	0x616a	; 0x616a <udp_socket_process>
            }
        }
    }
    return;
    4e58:	00 00       	nop
}
    4e5a:	26 96       	adiw	r28, 0x06	; 6
    4e5c:	0f b6       	in	r0, 0x3f	; 63
    4e5e:	f8 94       	cli
    4e60:	de bf       	out	0x3e, r29	; 62
    4e62:	0f be       	out	0x3f, r0	; 63
    4e64:	cd bf       	out	0x3d, r28	; 61
    4e66:	df 91       	pop	r29
    4e68:	cf 91       	pop	r28
    4e6a:	1f 91       	pop	r17
    4e6c:	0f 91       	pop	r16
    4e6e:	ff 90       	pop	r15
    4e70:	ef 90       	pop	r14
    4e72:	08 95       	ret

00004e74 <arp_entry_add>:

//----------------------------------------------------------------------------
//erzeugt einen ARP - Eintrag wenn noch nicht vorhanden 
void arp_entry_add (void)
{
    4e74:	cf 93       	push	r28
    4e76:	df 93       	push	r29
    4e78:	cd b7       	in	r28, 0x3d	; 61
    4e7a:	de b7       	in	r29, 0x3e	; 62
    4e7c:	2c 97       	sbiw	r28, 0x0c	; 12
    4e7e:	0f b6       	in	r0, 0x3f	; 63
    4e80:	f8 94       	cli
    4e82:	de bf       	out	0x3e, r29	; 62
    4e84:	0f be       	out	0x3f, r0	; 63
    4e86:	cd bf       	out	0x3d, r28	; 61
    struct Ethernet_Header *ethernet;
    struct ARP_Header      *arp;
    struct IP_Header       *ip;
      
    ethernet = (struct Ethernet_Header *)&eth_buffer[ETHER_OFFSET];
    4e88:	8d e3       	ldi	r24, 0x3D	; 61
    4e8a:	93 e0       	ldi	r25, 0x03	; 3
    4e8c:	98 87       	std	Y+8, r25	; 0x08
    4e8e:	8f 83       	std	Y+7, r24	; 0x07
    arp      = (struct ARP_Header      *)&eth_buffer[ARP_OFFSET];
    4e90:	8b e4       	ldi	r24, 0x4B	; 75
    4e92:	93 e0       	ldi	r25, 0x03	; 3
    4e94:	9a 87       	std	Y+10, r25	; 0x0a
    4e96:	89 87       	std	Y+9, r24	; 0x09
    ip       = (struct IP_Header       *)&eth_buffer[IP_OFFSET];
    4e98:	8b e4       	ldi	r24, 0x4B	; 75
    4e9a:	93 e0       	ldi	r25, 0x03	; 3
    4e9c:	9c 87       	std	Y+12, r25	; 0x0c
    4e9e:	8b 87       	std	Y+11, r24	; 0x0b
        
    //Eintrag schon vorhanden?
    for (unsigned char b = 0; b<MAX_ARP_ENTRY; b++)
    4ea0:	19 82       	std	Y+1, r1	; 0x01
    4ea2:	fe c0       	rjmp	.+508    	; 0x50a0 <arp_entry_add+0x22c>
    {
        if( ethernet->EnetPacketType == HTONS(0x0806) ) //If ARP
    4ea4:	8f 81       	ldd	r24, Y+7	; 0x07
    4ea6:	98 85       	ldd	r25, Y+8	; 0x08
    4ea8:	fc 01       	movw	r30, r24
    4eaa:	84 85       	ldd	r24, Z+12	; 0x0c
    4eac:	95 85       	ldd	r25, Z+13	; 0x0d
    4eae:	88 30       	cpi	r24, 0x08	; 8
    4eb0:	96 40       	sbci	r25, 0x06	; 6
    4eb2:	09 f0       	breq	.+2      	; 0x4eb6 <arp_entry_add+0x42>
    4eb4:	75 c0       	rjmp	.+234    	; 0x4fa0 <arp_entry_add+0x12c>
        {
            if(arp_entry[b].arp_t_ip == arp->ARP_SIPAddr)
    4eb6:	89 81       	ldd	r24, Y+1	; 0x01
    4eb8:	28 2f       	mov	r18, r24
    4eba:	30 e0       	ldi	r19, 0x00	; 0
    4ebc:	c9 01       	movw	r24, r18
    4ebe:	88 0f       	add	r24, r24
    4ec0:	99 1f       	adc	r25, r25
    4ec2:	82 0f       	add	r24, r18
    4ec4:	93 1f       	adc	r25, r19
    4ec6:	88 0f       	add	r24, r24
    4ec8:	99 1f       	adc	r25, r25
    4eca:	88 0f       	add	r24, r24
    4ecc:	99 1f       	adc	r25, r25
    4ece:	8f 59       	subi	r24, 0x9F	; 159
    4ed0:	9d 4f       	sbci	r25, 0xFD	; 253
    4ed2:	fc 01       	movw	r30, r24
    4ed4:	20 81       	ld	r18, Z
    4ed6:	31 81       	ldd	r19, Z+1	; 0x01
    4ed8:	42 81       	ldd	r20, Z+2	; 0x02
    4eda:	53 81       	ldd	r21, Z+3	; 0x03
    4edc:	89 85       	ldd	r24, Y+9	; 0x09
    4ede:	9a 85       	ldd	r25, Y+10	; 0x0a
    4ee0:	fc 01       	movw	r30, r24
    4ee2:	86 85       	ldd	r24, Z+14	; 0x0e
    4ee4:	97 85       	ldd	r25, Z+15	; 0x0f
    4ee6:	a0 89       	ldd	r26, Z+16	; 0x10
    4ee8:	b1 89       	ldd	r27, Z+17	; 0x11
    4eea:	28 17       	cp	r18, r24
    4eec:	39 07       	cpc	r19, r25
    4eee:	4a 07       	cpc	r20, r26
    4ef0:	5b 07       	cpc	r21, r27
    4ef2:	09 f0       	breq	.+2      	; 0x4ef6 <arp_entry_add+0x82>
    4ef4:	55 c0       	rjmp	.+170    	; 0x4fa0 <arp_entry_add+0x12c>
            {
                //Eintrag gefunden Time refresh
				for(unsigned char a = 0; a < 6; a++)
    4ef6:	1a 82       	std	Y+2, r1	; 0x02
    4ef8:	22 c0       	rjmp	.+68     	; 0x4f3e <arp_entry_add+0xca>
				{
					arp_entry[b].arp_t_mac[a] = ethernet->EnetPacketSrc[a];
    4efa:	89 81       	ldd	r24, Y+1	; 0x01
    4efc:	28 2f       	mov	r18, r24
    4efe:	30 e0       	ldi	r19, 0x00	; 0
    4f00:	8a 81       	ldd	r24, Y+2	; 0x02
    4f02:	48 2f       	mov	r20, r24
    4f04:	50 e0       	ldi	r21, 0x00	; 0
    4f06:	8a 81       	ldd	r24, Y+2	; 0x02
    4f08:	88 2f       	mov	r24, r24
    4f0a:	90 e0       	ldi	r25, 0x00	; 0
    4f0c:	6f 81       	ldd	r22, Y+7	; 0x07
    4f0e:	78 85       	ldd	r23, Y+8	; 0x08
    4f10:	86 0f       	add	r24, r22
    4f12:	97 1f       	adc	r25, r23
    4f14:	06 96       	adiw	r24, 0x06	; 6
    4f16:	fc 01       	movw	r30, r24
    4f18:	60 81       	ld	r22, Z
    4f1a:	c9 01       	movw	r24, r18
    4f1c:	88 0f       	add	r24, r24
    4f1e:	99 1f       	adc	r25, r25
    4f20:	82 0f       	add	r24, r18
    4f22:	93 1f       	adc	r25, r19
    4f24:	88 0f       	add	r24, r24
    4f26:	99 1f       	adc	r25, r25
    4f28:	88 0f       	add	r24, r24
    4f2a:	99 1f       	adc	r25, r25
    4f2c:	84 0f       	add	r24, r20
    4f2e:	95 1f       	adc	r25, r21
    4f30:	85 5a       	subi	r24, 0xA5	; 165
    4f32:	9d 4f       	sbci	r25, 0xFD	; 253
    4f34:	fc 01       	movw	r30, r24
    4f36:	60 83       	st	Z, r22
        if( ethernet->EnetPacketType == HTONS(0x0806) ) //If ARP
        {
            if(arp_entry[b].arp_t_ip == arp->ARP_SIPAddr)
            {
                //Eintrag gefunden Time refresh
				for(unsigned char a = 0; a < 6; a++)
    4f38:	8a 81       	ldd	r24, Y+2	; 0x02
    4f3a:	8f 5f       	subi	r24, 0xFF	; 255
    4f3c:	8a 83       	std	Y+2, r24	; 0x02
    4f3e:	8a 81       	ldd	r24, Y+2	; 0x02
    4f40:	86 30       	cpi	r24, 0x06	; 6
    4f42:	d8 f2       	brcs	.-74     	; 0x4efa <arp_entry_add+0x86>
				{
					arp_entry[b].arp_t_mac[a] = ethernet->EnetPacketSrc[a];
				}
				arp_entry[b].arp_t_ip   = arp->ARP_SIPAddr;
    4f44:	89 81       	ldd	r24, Y+1	; 0x01
    4f46:	68 2f       	mov	r22, r24
    4f48:	70 e0       	ldi	r23, 0x00	; 0
    4f4a:	89 85       	ldd	r24, Y+9	; 0x09
    4f4c:	9a 85       	ldd	r25, Y+10	; 0x0a
    4f4e:	fc 01       	movw	r30, r24
    4f50:	26 85       	ldd	r18, Z+14	; 0x0e
    4f52:	37 85       	ldd	r19, Z+15	; 0x0f
    4f54:	40 89       	ldd	r20, Z+16	; 0x10
    4f56:	51 89       	ldd	r21, Z+17	; 0x11
    4f58:	cb 01       	movw	r24, r22
    4f5a:	88 0f       	add	r24, r24
    4f5c:	99 1f       	adc	r25, r25
    4f5e:	86 0f       	add	r24, r22
    4f60:	97 1f       	adc	r25, r23
    4f62:	88 0f       	add	r24, r24
    4f64:	99 1f       	adc	r25, r25
    4f66:	88 0f       	add	r24, r24
    4f68:	99 1f       	adc	r25, r25
    4f6a:	8f 59       	subi	r24, 0x9F	; 159
    4f6c:	9d 4f       	sbci	r25, 0xFD	; 253
    4f6e:	fc 01       	movw	r30, r24
    4f70:	20 83       	st	Z, r18
    4f72:	31 83       	std	Z+1, r19	; 0x01
    4f74:	42 83       	std	Z+2, r20	; 0x02
    4f76:	53 83       	std	Z+3, r21	; 0x03
                arp_entry[b].arp_t_time = ARP_MAX_ENTRY_TIME;
    4f78:	89 81       	ldd	r24, Y+1	; 0x01
    4f7a:	28 2f       	mov	r18, r24
    4f7c:	30 e0       	ldi	r19, 0x00	; 0
    4f7e:	c9 01       	movw	r24, r18
    4f80:	88 0f       	add	r24, r24
    4f82:	99 1f       	adc	r25, r25
    4f84:	82 0f       	add	r24, r18
    4f86:	93 1f       	adc	r25, r19
    4f88:	88 0f       	add	r24, r24
    4f8a:	99 1f       	adc	r25, r25
    4f8c:	88 0f       	add	r24, r24
    4f8e:	99 1f       	adc	r25, r25
    4f90:	8b 59       	subi	r24, 0x9B	; 155
    4f92:	9d 4f       	sbci	r25, 0xFD	; 253
    4f94:	24 e6       	ldi	r18, 0x64	; 100
    4f96:	30 e0       	ldi	r19, 0x00	; 0
    4f98:	fc 01       	movw	r30, r24
    4f9a:	31 83       	std	Z+1, r19	; 0x01
    4f9c:	20 83       	st	Z, r18
                return;
    4f9e:	74 c1       	rjmp	.+744    	; 0x5288 <arp_entry_add+0x414>
            }
        } 
        if( ethernet->EnetPacketType == HTONS(0x0800) ) //If IP
    4fa0:	8f 81       	ldd	r24, Y+7	; 0x07
    4fa2:	98 85       	ldd	r25, Y+8	; 0x08
    4fa4:	fc 01       	movw	r30, r24
    4fa6:	84 85       	ldd	r24, Z+12	; 0x0c
    4fa8:	95 85       	ldd	r25, Z+13	; 0x0d
    4faa:	08 97       	sbiw	r24, 0x08	; 8
    4fac:	09 f0       	breq	.+2      	; 0x4fb0 <arp_entry_add+0x13c>
    4fae:	75 c0       	rjmp	.+234    	; 0x509a <arp_entry_add+0x226>
        {
            if(arp_entry[b].arp_t_ip == ip->IP_Srcaddr)
    4fb0:	89 81       	ldd	r24, Y+1	; 0x01
    4fb2:	28 2f       	mov	r18, r24
    4fb4:	30 e0       	ldi	r19, 0x00	; 0
    4fb6:	c9 01       	movw	r24, r18
    4fb8:	88 0f       	add	r24, r24
    4fba:	99 1f       	adc	r25, r25
    4fbc:	82 0f       	add	r24, r18
    4fbe:	93 1f       	adc	r25, r19
    4fc0:	88 0f       	add	r24, r24
    4fc2:	99 1f       	adc	r25, r25
    4fc4:	88 0f       	add	r24, r24
    4fc6:	99 1f       	adc	r25, r25
    4fc8:	8f 59       	subi	r24, 0x9F	; 159
    4fca:	9d 4f       	sbci	r25, 0xFD	; 253
    4fcc:	fc 01       	movw	r30, r24
    4fce:	20 81       	ld	r18, Z
    4fd0:	31 81       	ldd	r19, Z+1	; 0x01
    4fd2:	42 81       	ldd	r20, Z+2	; 0x02
    4fd4:	53 81       	ldd	r21, Z+3	; 0x03
    4fd6:	8b 85       	ldd	r24, Y+11	; 0x0b
    4fd8:	9c 85       	ldd	r25, Y+12	; 0x0c
    4fda:	fc 01       	movw	r30, r24
    4fdc:	84 85       	ldd	r24, Z+12	; 0x0c
    4fde:	95 85       	ldd	r25, Z+13	; 0x0d
    4fe0:	a6 85       	ldd	r26, Z+14	; 0x0e
    4fe2:	b7 85       	ldd	r27, Z+15	; 0x0f
    4fe4:	28 17       	cp	r18, r24
    4fe6:	39 07       	cpc	r19, r25
    4fe8:	4a 07       	cpc	r20, r26
    4fea:	5b 07       	cpc	r21, r27
    4fec:	09 f0       	breq	.+2      	; 0x4ff0 <arp_entry_add+0x17c>
    4fee:	55 c0       	rjmp	.+170    	; 0x509a <arp_entry_add+0x226>
            {
                //Eintrag gefunden Time refresh
				for(unsigned char a = 0; a < 6; a++)
    4ff0:	1b 82       	std	Y+3, r1	; 0x03
    4ff2:	22 c0       	rjmp	.+68     	; 0x5038 <arp_entry_add+0x1c4>
				{
					arp_entry[b].arp_t_mac[a] = ethernet->EnetPacketSrc[a];
    4ff4:	89 81       	ldd	r24, Y+1	; 0x01
    4ff6:	28 2f       	mov	r18, r24
    4ff8:	30 e0       	ldi	r19, 0x00	; 0
    4ffa:	8b 81       	ldd	r24, Y+3	; 0x03
    4ffc:	48 2f       	mov	r20, r24
    4ffe:	50 e0       	ldi	r21, 0x00	; 0
    5000:	8b 81       	ldd	r24, Y+3	; 0x03
    5002:	88 2f       	mov	r24, r24
    5004:	90 e0       	ldi	r25, 0x00	; 0
    5006:	6f 81       	ldd	r22, Y+7	; 0x07
    5008:	78 85       	ldd	r23, Y+8	; 0x08
    500a:	86 0f       	add	r24, r22
    500c:	97 1f       	adc	r25, r23
    500e:	06 96       	adiw	r24, 0x06	; 6
    5010:	fc 01       	movw	r30, r24
    5012:	60 81       	ld	r22, Z
    5014:	c9 01       	movw	r24, r18
    5016:	88 0f       	add	r24, r24
    5018:	99 1f       	adc	r25, r25
    501a:	82 0f       	add	r24, r18
    501c:	93 1f       	adc	r25, r19
    501e:	88 0f       	add	r24, r24
    5020:	99 1f       	adc	r25, r25
    5022:	88 0f       	add	r24, r24
    5024:	99 1f       	adc	r25, r25
    5026:	84 0f       	add	r24, r20
    5028:	95 1f       	adc	r25, r21
    502a:	85 5a       	subi	r24, 0xA5	; 165
    502c:	9d 4f       	sbci	r25, 0xFD	; 253
    502e:	fc 01       	movw	r30, r24
    5030:	60 83       	st	Z, r22
        if( ethernet->EnetPacketType == HTONS(0x0800) ) //If IP
        {
            if(arp_entry[b].arp_t_ip == ip->IP_Srcaddr)
            {
                //Eintrag gefunden Time refresh
				for(unsigned char a = 0; a < 6; a++)
    5032:	8b 81       	ldd	r24, Y+3	; 0x03
    5034:	8f 5f       	subi	r24, 0xFF	; 255
    5036:	8b 83       	std	Y+3, r24	; 0x03
    5038:	8b 81       	ldd	r24, Y+3	; 0x03
    503a:	86 30       	cpi	r24, 0x06	; 6
    503c:	d8 f2       	brcs	.-74     	; 0x4ff4 <arp_entry_add+0x180>
				{
					arp_entry[b].arp_t_mac[a] = ethernet->EnetPacketSrc[a];
				}
				arp_entry[b].arp_t_ip   = ip->IP_Srcaddr;
    503e:	89 81       	ldd	r24, Y+1	; 0x01
    5040:	68 2f       	mov	r22, r24
    5042:	70 e0       	ldi	r23, 0x00	; 0
    5044:	8b 85       	ldd	r24, Y+11	; 0x0b
    5046:	9c 85       	ldd	r25, Y+12	; 0x0c
    5048:	fc 01       	movw	r30, r24
    504a:	24 85       	ldd	r18, Z+12	; 0x0c
    504c:	35 85       	ldd	r19, Z+13	; 0x0d
    504e:	46 85       	ldd	r20, Z+14	; 0x0e
    5050:	57 85       	ldd	r21, Z+15	; 0x0f
    5052:	cb 01       	movw	r24, r22
    5054:	88 0f       	add	r24, r24
    5056:	99 1f       	adc	r25, r25
    5058:	86 0f       	add	r24, r22
    505a:	97 1f       	adc	r25, r23
    505c:	88 0f       	add	r24, r24
    505e:	99 1f       	adc	r25, r25
    5060:	88 0f       	add	r24, r24
    5062:	99 1f       	adc	r25, r25
    5064:	8f 59       	subi	r24, 0x9F	; 159
    5066:	9d 4f       	sbci	r25, 0xFD	; 253
    5068:	fc 01       	movw	r30, r24
    506a:	20 83       	st	Z, r18
    506c:	31 83       	std	Z+1, r19	; 0x01
    506e:	42 83       	std	Z+2, r20	; 0x02
    5070:	53 83       	std	Z+3, r21	; 0x03
                arp_entry[b].arp_t_time = ARP_MAX_ENTRY_TIME;
    5072:	89 81       	ldd	r24, Y+1	; 0x01
    5074:	28 2f       	mov	r18, r24
    5076:	30 e0       	ldi	r19, 0x00	; 0
    5078:	c9 01       	movw	r24, r18
    507a:	88 0f       	add	r24, r24
    507c:	99 1f       	adc	r25, r25
    507e:	82 0f       	add	r24, r18
    5080:	93 1f       	adc	r25, r19
    5082:	88 0f       	add	r24, r24
    5084:	99 1f       	adc	r25, r25
    5086:	88 0f       	add	r24, r24
    5088:	99 1f       	adc	r25, r25
    508a:	8b 59       	subi	r24, 0x9B	; 155
    508c:	9d 4f       	sbci	r25, 0xFD	; 253
    508e:	24 e6       	ldi	r18, 0x64	; 100
    5090:	30 e0       	ldi	r19, 0x00	; 0
    5092:	fc 01       	movw	r30, r24
    5094:	31 83       	std	Z+1, r19	; 0x01
    5096:	20 83       	st	Z, r18
                return;
    5098:	f7 c0       	rjmp	.+494    	; 0x5288 <arp_entry_add+0x414>
    ethernet = (struct Ethernet_Header *)&eth_buffer[ETHER_OFFSET];
    arp      = (struct ARP_Header      *)&eth_buffer[ARP_OFFSET];
    ip       = (struct IP_Header       *)&eth_buffer[IP_OFFSET];
        
    //Eintrag schon vorhanden?
    for (unsigned char b = 0; b<MAX_ARP_ENTRY; b++)
    509a:	89 81       	ldd	r24, Y+1	; 0x01
    509c:	8f 5f       	subi	r24, 0xFF	; 255
    509e:	89 83       	std	Y+1, r24	; 0x01
    50a0:	89 81       	ldd	r24, Y+1	; 0x01
    50a2:	85 30       	cpi	r24, 0x05	; 5
    50a4:	08 f4       	brcc	.+2      	; 0x50a8 <arp_entry_add+0x234>
    50a6:	fe ce       	rjmp	.-516    	; 0x4ea4 <arp_entry_add+0x30>
            }
        }
    }
  
    //Freien Eintrag finden
    for (unsigned char b = 0; b<MAX_ARP_ENTRY; b++)
    50a8:	1c 82       	std	Y+4, r1	; 0x04
    50aa:	e0 c0       	rjmp	.+448    	; 0x526c <arp_entry_add+0x3f8>
    {
        if(arp_entry[b].arp_t_ip == 0)
    50ac:	8c 81       	ldd	r24, Y+4	; 0x04
    50ae:	28 2f       	mov	r18, r24
    50b0:	30 e0       	ldi	r19, 0x00	; 0
    50b2:	c9 01       	movw	r24, r18
    50b4:	88 0f       	add	r24, r24
    50b6:	99 1f       	adc	r25, r25
    50b8:	82 0f       	add	r24, r18
    50ba:	93 1f       	adc	r25, r19
    50bc:	88 0f       	add	r24, r24
    50be:	99 1f       	adc	r25, r25
    50c0:	88 0f       	add	r24, r24
    50c2:	99 1f       	adc	r25, r25
    50c4:	8f 59       	subi	r24, 0x9F	; 159
    50c6:	9d 4f       	sbci	r25, 0xFD	; 253
    50c8:	fc 01       	movw	r30, r24
    50ca:	80 81       	ld	r24, Z
    50cc:	91 81       	ldd	r25, Z+1	; 0x01
    50ce:	a2 81       	ldd	r26, Z+2	; 0x02
    50d0:	b3 81       	ldd	r27, Z+3	; 0x03
    50d2:	89 2b       	or	r24, r25
    50d4:	8a 2b       	or	r24, r26
    50d6:	8b 2b       	or	r24, r27
    50d8:	09 f0       	breq	.+2      	; 0x50dc <arp_entry_add+0x268>
    50da:	c5 c0       	rjmp	.+394    	; 0x5266 <arp_entry_add+0x3f2>
        {
            if( ethernet->EnetPacketType == HTONS(0x0806) ) //if ARP
    50dc:	8f 81       	ldd	r24, Y+7	; 0x07
    50de:	98 85       	ldd	r25, Y+8	; 0x08
    50e0:	fc 01       	movw	r30, r24
    50e2:	84 85       	ldd	r24, Z+12	; 0x0c
    50e4:	95 85       	ldd	r25, Z+13	; 0x0d
    50e6:	88 30       	cpi	r24, 0x08	; 8
    50e8:	96 40       	sbci	r25, 0x06	; 6
    50ea:	09 f0       	breq	.+2      	; 0x50ee <arp_entry_add+0x27a>
    50ec:	55 c0       	rjmp	.+170    	; 0x5198 <arp_entry_add+0x324>
            {
                for(unsigned char a = 0; a < 6; a++)
    50ee:	1d 82       	std	Y+5, r1	; 0x05
    50f0:	22 c0       	rjmp	.+68     	; 0x5136 <arp_entry_add+0x2c2>
                {
                    arp_entry[b].arp_t_mac[a] = ethernet->EnetPacketSrc[a]; 
    50f2:	8c 81       	ldd	r24, Y+4	; 0x04
    50f4:	28 2f       	mov	r18, r24
    50f6:	30 e0       	ldi	r19, 0x00	; 0
    50f8:	8d 81       	ldd	r24, Y+5	; 0x05
    50fa:	48 2f       	mov	r20, r24
    50fc:	50 e0       	ldi	r21, 0x00	; 0
    50fe:	8d 81       	ldd	r24, Y+5	; 0x05
    5100:	88 2f       	mov	r24, r24
    5102:	90 e0       	ldi	r25, 0x00	; 0
    5104:	6f 81       	ldd	r22, Y+7	; 0x07
    5106:	78 85       	ldd	r23, Y+8	; 0x08
    5108:	86 0f       	add	r24, r22
    510a:	97 1f       	adc	r25, r23
    510c:	06 96       	adiw	r24, 0x06	; 6
    510e:	fc 01       	movw	r30, r24
    5110:	60 81       	ld	r22, Z
    5112:	c9 01       	movw	r24, r18
    5114:	88 0f       	add	r24, r24
    5116:	99 1f       	adc	r25, r25
    5118:	82 0f       	add	r24, r18
    511a:	93 1f       	adc	r25, r19
    511c:	88 0f       	add	r24, r24
    511e:	99 1f       	adc	r25, r25
    5120:	88 0f       	add	r24, r24
    5122:	99 1f       	adc	r25, r25
    5124:	84 0f       	add	r24, r20
    5126:	95 1f       	adc	r25, r21
    5128:	85 5a       	subi	r24, 0xA5	; 165
    512a:	9d 4f       	sbci	r25, 0xFD	; 253
    512c:	fc 01       	movw	r30, r24
    512e:	60 83       	st	Z, r22
    {
        if(arp_entry[b].arp_t_ip == 0)
        {
            if( ethernet->EnetPacketType == HTONS(0x0806) ) //if ARP
            {
                for(unsigned char a = 0; a < 6; a++)
    5130:	8d 81       	ldd	r24, Y+5	; 0x05
    5132:	8f 5f       	subi	r24, 0xFF	; 255
    5134:	8d 83       	std	Y+5, r24	; 0x05
    5136:	8d 81       	ldd	r24, Y+5	; 0x05
    5138:	86 30       	cpi	r24, 0x06	; 6
    513a:	d8 f2       	brcs	.-74     	; 0x50f2 <arp_entry_add+0x27e>
                {
                    arp_entry[b].arp_t_mac[a] = ethernet->EnetPacketSrc[a]; 
                }
                arp_entry[b].arp_t_ip   = arp->ARP_SIPAddr;
    513c:	8c 81       	ldd	r24, Y+4	; 0x04
    513e:	68 2f       	mov	r22, r24
    5140:	70 e0       	ldi	r23, 0x00	; 0
    5142:	89 85       	ldd	r24, Y+9	; 0x09
    5144:	9a 85       	ldd	r25, Y+10	; 0x0a
    5146:	fc 01       	movw	r30, r24
    5148:	26 85       	ldd	r18, Z+14	; 0x0e
    514a:	37 85       	ldd	r19, Z+15	; 0x0f
    514c:	40 89       	ldd	r20, Z+16	; 0x10
    514e:	51 89       	ldd	r21, Z+17	; 0x11
    5150:	cb 01       	movw	r24, r22
    5152:	88 0f       	add	r24, r24
    5154:	99 1f       	adc	r25, r25
    5156:	86 0f       	add	r24, r22
    5158:	97 1f       	adc	r25, r23
    515a:	88 0f       	add	r24, r24
    515c:	99 1f       	adc	r25, r25
    515e:	88 0f       	add	r24, r24
    5160:	99 1f       	adc	r25, r25
    5162:	8f 59       	subi	r24, 0x9F	; 159
    5164:	9d 4f       	sbci	r25, 0xFD	; 253
    5166:	fc 01       	movw	r30, r24
    5168:	20 83       	st	Z, r18
    516a:	31 83       	std	Z+1, r19	; 0x01
    516c:	42 83       	std	Z+2, r20	; 0x02
    516e:	53 83       	std	Z+3, r21	; 0x03
                arp_entry[b].arp_t_time = ARP_MAX_ENTRY_TIME;
    5170:	8c 81       	ldd	r24, Y+4	; 0x04
    5172:	28 2f       	mov	r18, r24
    5174:	30 e0       	ldi	r19, 0x00	; 0
    5176:	c9 01       	movw	r24, r18
    5178:	88 0f       	add	r24, r24
    517a:	99 1f       	adc	r25, r25
    517c:	82 0f       	add	r24, r18
    517e:	93 1f       	adc	r25, r19
    5180:	88 0f       	add	r24, r24
    5182:	99 1f       	adc	r25, r25
    5184:	88 0f       	add	r24, r24
    5186:	99 1f       	adc	r25, r25
    5188:	8b 59       	subi	r24, 0x9B	; 155
    518a:	9d 4f       	sbci	r25, 0xFD	; 253
    518c:	24 e6       	ldi	r18, 0x64	; 100
    518e:	30 e0       	ldi	r19, 0x00	; 0
    5190:	fc 01       	movw	r30, r24
    5192:	31 83       	std	Z+1, r19	; 0x01
    5194:	20 83       	st	Z, r18
                return;
    5196:	78 c0       	rjmp	.+240    	; 0x5288 <arp_entry_add+0x414>
            }
            if( ethernet->EnetPacketType == HTONS(0x0800) ) //if IP
    5198:	8f 81       	ldd	r24, Y+7	; 0x07
    519a:	98 85       	ldd	r25, Y+8	; 0x08
    519c:	fc 01       	movw	r30, r24
    519e:	84 85       	ldd	r24, Z+12	; 0x0c
    51a0:	95 85       	ldd	r25, Z+13	; 0x0d
    51a2:	08 97       	sbiw	r24, 0x08	; 8
    51a4:	09 f0       	breq	.+2      	; 0x51a8 <arp_entry_add+0x334>
    51a6:	55 c0       	rjmp	.+170    	; 0x5252 <arp_entry_add+0x3de>
            {
                for(unsigned char a = 0; a < 6; a++)
    51a8:	1e 82       	std	Y+6, r1	; 0x06
    51aa:	22 c0       	rjmp	.+68     	; 0x51f0 <arp_entry_add+0x37c>
                {
                    arp_entry[b].arp_t_mac[a] = ethernet->EnetPacketSrc[a]; 
    51ac:	8c 81       	ldd	r24, Y+4	; 0x04
    51ae:	28 2f       	mov	r18, r24
    51b0:	30 e0       	ldi	r19, 0x00	; 0
    51b2:	8e 81       	ldd	r24, Y+6	; 0x06
    51b4:	48 2f       	mov	r20, r24
    51b6:	50 e0       	ldi	r21, 0x00	; 0
    51b8:	8e 81       	ldd	r24, Y+6	; 0x06
    51ba:	88 2f       	mov	r24, r24
    51bc:	90 e0       	ldi	r25, 0x00	; 0
    51be:	6f 81       	ldd	r22, Y+7	; 0x07
    51c0:	78 85       	ldd	r23, Y+8	; 0x08
    51c2:	86 0f       	add	r24, r22
    51c4:	97 1f       	adc	r25, r23
    51c6:	06 96       	adiw	r24, 0x06	; 6
    51c8:	fc 01       	movw	r30, r24
    51ca:	60 81       	ld	r22, Z
    51cc:	c9 01       	movw	r24, r18
    51ce:	88 0f       	add	r24, r24
    51d0:	99 1f       	adc	r25, r25
    51d2:	82 0f       	add	r24, r18
    51d4:	93 1f       	adc	r25, r19
    51d6:	88 0f       	add	r24, r24
    51d8:	99 1f       	adc	r25, r25
    51da:	88 0f       	add	r24, r24
    51dc:	99 1f       	adc	r25, r25
    51de:	84 0f       	add	r24, r20
    51e0:	95 1f       	adc	r25, r21
    51e2:	85 5a       	subi	r24, 0xA5	; 165
    51e4:	9d 4f       	sbci	r25, 0xFD	; 253
    51e6:	fc 01       	movw	r30, r24
    51e8:	60 83       	st	Z, r22
                arp_entry[b].arp_t_time = ARP_MAX_ENTRY_TIME;
                return;
            }
            if( ethernet->EnetPacketType == HTONS(0x0800) ) //if IP
            {
                for(unsigned char a = 0; a < 6; a++)
    51ea:	8e 81       	ldd	r24, Y+6	; 0x06
    51ec:	8f 5f       	subi	r24, 0xFF	; 255
    51ee:	8e 83       	std	Y+6, r24	; 0x06
    51f0:	8e 81       	ldd	r24, Y+6	; 0x06
    51f2:	86 30       	cpi	r24, 0x06	; 6
    51f4:	d8 f2       	brcs	.-74     	; 0x51ac <arp_entry_add+0x338>
                {
                    arp_entry[b].arp_t_mac[a] = ethernet->EnetPacketSrc[a]; 
                }
                arp_entry[b].arp_t_ip   = ip->IP_Srcaddr;
    51f6:	8c 81       	ldd	r24, Y+4	; 0x04
    51f8:	68 2f       	mov	r22, r24
    51fa:	70 e0       	ldi	r23, 0x00	; 0
    51fc:	8b 85       	ldd	r24, Y+11	; 0x0b
    51fe:	9c 85       	ldd	r25, Y+12	; 0x0c
    5200:	fc 01       	movw	r30, r24
    5202:	24 85       	ldd	r18, Z+12	; 0x0c
    5204:	35 85       	ldd	r19, Z+13	; 0x0d
    5206:	46 85       	ldd	r20, Z+14	; 0x0e
    5208:	57 85       	ldd	r21, Z+15	; 0x0f
    520a:	cb 01       	movw	r24, r22
    520c:	88 0f       	add	r24, r24
    520e:	99 1f       	adc	r25, r25
    5210:	86 0f       	add	r24, r22
    5212:	97 1f       	adc	r25, r23
    5214:	88 0f       	add	r24, r24
    5216:	99 1f       	adc	r25, r25
    5218:	88 0f       	add	r24, r24
    521a:	99 1f       	adc	r25, r25
    521c:	8f 59       	subi	r24, 0x9F	; 159
    521e:	9d 4f       	sbci	r25, 0xFD	; 253
    5220:	fc 01       	movw	r30, r24
    5222:	20 83       	st	Z, r18
    5224:	31 83       	std	Z+1, r19	; 0x01
    5226:	42 83       	std	Z+2, r20	; 0x02
    5228:	53 83       	std	Z+3, r21	; 0x03
                arp_entry[b].arp_t_time = ARP_MAX_ENTRY_TIME;
    522a:	8c 81       	ldd	r24, Y+4	; 0x04
    522c:	28 2f       	mov	r18, r24
    522e:	30 e0       	ldi	r19, 0x00	; 0
    5230:	c9 01       	movw	r24, r18
    5232:	88 0f       	add	r24, r24
    5234:	99 1f       	adc	r25, r25
    5236:	82 0f       	add	r24, r18
    5238:	93 1f       	adc	r25, r19
    523a:	88 0f       	add	r24, r24
    523c:	99 1f       	adc	r25, r25
    523e:	88 0f       	add	r24, r24
    5240:	99 1f       	adc	r25, r25
    5242:	8b 59       	subi	r24, 0x9B	; 155
    5244:	9d 4f       	sbci	r25, 0xFD	; 253
    5246:	24 e6       	ldi	r18, 0x64	; 100
    5248:	30 e0       	ldi	r19, 0x00	; 0
    524a:	fc 01       	movw	r30, r24
    524c:	31 83       	std	Z+1, r19	; 0x01
    524e:	20 83       	st	Z, r18
                return;
    5250:	1b c0       	rjmp	.+54     	; 0x5288 <arp_entry_add+0x414>
            }
            DEBUG("Kein ARP oder IP Packet!\r\n");
    5252:	83 e0       	ldi	r24, 0x03	; 3
    5254:	90 e2       	ldi	r25, 0x20	; 32
    5256:	29 2f       	mov	r18, r25
    5258:	2f 93       	push	r18
    525a:	8f 93       	push	r24
    525c:	0e 94 31 3a 	call	0x7462	; 0x7462 <usart_write_P>
    5260:	0f 90       	pop	r0
    5262:	0f 90       	pop	r0
            return;
    5264:	11 c0       	rjmp	.+34     	; 0x5288 <arp_entry_add+0x414>
            }
        }
    }
  
    //Freien Eintrag finden
    for (unsigned char b = 0; b<MAX_ARP_ENTRY; b++)
    5266:	8c 81       	ldd	r24, Y+4	; 0x04
    5268:	8f 5f       	subi	r24, 0xFF	; 255
    526a:	8c 83       	std	Y+4, r24	; 0x04
    526c:	8c 81       	ldd	r24, Y+4	; 0x04
    526e:	85 30       	cpi	r24, 0x05	; 5
    5270:	08 f4       	brcc	.+2      	; 0x5274 <arp_entry_add+0x400>
    5272:	1c cf       	rjmp	.-456    	; 0x50ac <arp_entry_add+0x238>
            DEBUG("Kein ARP oder IP Packet!\r\n");
            return;
        }
    }
    //Eintrag konnte nicht mehr aufgenommen werden
    DEBUG("ARP entry tabelle voll!\r\n");
    5274:	8e e1       	ldi	r24, 0x1E	; 30
    5276:	90 e2       	ldi	r25, 0x20	; 32
    5278:	29 2f       	mov	r18, r25
    527a:	2f 93       	push	r18
    527c:	8f 93       	push	r24
    527e:	0e 94 31 3a 	call	0x7462	; 0x7462 <usart_write_P>
    5282:	0f 90       	pop	r0
    5284:	0f 90       	pop	r0
    return;
    5286:	00 00       	nop
}
    5288:	2c 96       	adiw	r28, 0x0c	; 12
    528a:	0f b6       	in	r0, 0x3f	; 63
    528c:	f8 94       	cli
    528e:	de bf       	out	0x3e, r29	; 62
    5290:	0f be       	out	0x3f, r0	; 63
    5292:	cd bf       	out	0x3d, r28	; 61
    5294:	df 91       	pop	r29
    5296:	cf 91       	pop	r28
    5298:	08 95       	ret

0000529a <arp_entry_search>:

//----------------------------------------------------------------------------
//Diese Routine such anhand der IP den ARP eintrag
char arp_entry_search (unsigned long dest_ip)
{
    529a:	cf 93       	push	r28
    529c:	df 93       	push	r29
    529e:	00 d0       	rcall	.+0      	; 0x52a0 <arp_entry_search+0x6>
    52a0:	00 d0       	rcall	.+0      	; 0x52a2 <arp_entry_search+0x8>
    52a2:	1f 92       	push	r1
    52a4:	cd b7       	in	r28, 0x3d	; 61
    52a6:	de b7       	in	r29, 0x3e	; 62
    52a8:	6a 83       	std	Y+2, r22	; 0x02
    52aa:	7b 83       	std	Y+3, r23	; 0x03
    52ac:	8c 83       	std	Y+4, r24	; 0x04
    52ae:	9d 83       	std	Y+5, r25	; 0x05
	for (unsigned char b = 0;b<MAX_ARP_ENTRY;b++)
    52b0:	19 82       	std	Y+1, r1	; 0x01
    52b2:	21 c0       	rjmp	.+66     	; 0x52f6 <arp_entry_search+0x5c>
	{
		if(arp_entry[b].arp_t_ip == dest_ip)
    52b4:	89 81       	ldd	r24, Y+1	; 0x01
    52b6:	28 2f       	mov	r18, r24
    52b8:	30 e0       	ldi	r19, 0x00	; 0
    52ba:	c9 01       	movw	r24, r18
    52bc:	88 0f       	add	r24, r24
    52be:	99 1f       	adc	r25, r25
    52c0:	82 0f       	add	r24, r18
    52c2:	93 1f       	adc	r25, r19
    52c4:	88 0f       	add	r24, r24
    52c6:	99 1f       	adc	r25, r25
    52c8:	88 0f       	add	r24, r24
    52ca:	99 1f       	adc	r25, r25
    52cc:	8f 59       	subi	r24, 0x9F	; 159
    52ce:	9d 4f       	sbci	r25, 0xFD	; 253
    52d0:	fc 01       	movw	r30, r24
    52d2:	20 81       	ld	r18, Z
    52d4:	31 81       	ldd	r19, Z+1	; 0x01
    52d6:	42 81       	ldd	r20, Z+2	; 0x02
    52d8:	53 81       	ldd	r21, Z+3	; 0x03
    52da:	8a 81       	ldd	r24, Y+2	; 0x02
    52dc:	9b 81       	ldd	r25, Y+3	; 0x03
    52de:	ac 81       	ldd	r26, Y+4	; 0x04
    52e0:	bd 81       	ldd	r27, Y+5	; 0x05
    52e2:	28 17       	cp	r18, r24
    52e4:	39 07       	cpc	r19, r25
    52e6:	4a 07       	cpc	r20, r26
    52e8:	5b 07       	cpc	r21, r27
    52ea:	11 f4       	brne	.+4      	; 0x52f0 <arp_entry_search+0x56>
		{
			return(b);
    52ec:	89 81       	ldd	r24, Y+1	; 0x01
    52ee:	07 c0       	rjmp	.+14     	; 0x52fe <arp_entry_search+0x64>

//----------------------------------------------------------------------------
//Diese Routine such anhand der IP den ARP eintrag
char arp_entry_search (unsigned long dest_ip)
{
	for (unsigned char b = 0;b<MAX_ARP_ENTRY;b++)
    52f0:	89 81       	ldd	r24, Y+1	; 0x01
    52f2:	8f 5f       	subi	r24, 0xFF	; 255
    52f4:	89 83       	std	Y+1, r24	; 0x01
    52f6:	89 81       	ldd	r24, Y+1	; 0x01
    52f8:	85 30       	cpi	r24, 0x05	; 5
    52fa:	e0 f2       	brcs	.-72     	; 0x52b4 <arp_entry_search+0x1a>
		if(arp_entry[b].arp_t_ip == dest_ip)
		{
			return(b);
		}
	}
	return (MAX_ARP_ENTRY);
    52fc:	85 e0       	ldi	r24, 0x05	; 5
}
    52fe:	0f 90       	pop	r0
    5300:	0f 90       	pop	r0
    5302:	0f 90       	pop	r0
    5304:	0f 90       	pop	r0
    5306:	0f 90       	pop	r0
    5308:	df 91       	pop	r29
    530a:	cf 91       	pop	r28
    530c:	08 95       	ret

0000530e <new_eth_header>:

//----------------------------------------------------------------------------
//Diese Routine Erzeugt ein neuen Ethernetheader
void new_eth_header (unsigned char *buffer,unsigned long dest_ip)
{
    530e:	cf 93       	push	r28
    5310:	df 93       	push	r29
    5312:	cd b7       	in	r28, 0x3d	; 61
    5314:	de b7       	in	r29, 0x3e	; 62
    5316:	2b 97       	sbiw	r28, 0x0b	; 11
    5318:	0f b6       	in	r0, 0x3f	; 63
    531a:	f8 94       	cli
    531c:	de bf       	out	0x3e, r29	; 62
    531e:	0f be       	out	0x3f, r0	; 63
    5320:	cd bf       	out	0x3d, r28	; 61
    5322:	9f 83       	std	Y+7, r25	; 0x07
    5324:	8e 83       	std	Y+6, r24	; 0x06
    5326:	48 87       	std	Y+8, r20	; 0x08
    5328:	59 87       	std	Y+9, r21	; 0x09
    532a:	6a 87       	std	Y+10, r22	; 0x0a
    532c:	7b 87       	std	Y+11, r23	; 0x0b
    unsigned char b;
    unsigned char a;
	struct Ethernet_Header *ethernet;
	ethernet = (struct Ethernet_Header *)&buffer[ETHER_OFFSET];
    532e:	8e 81       	ldd	r24, Y+6	; 0x06
    5330:	9f 81       	ldd	r25, Y+7	; 0x07
    5332:	9c 83       	std	Y+4, r25	; 0x04
    5334:	8b 83       	std	Y+3, r24	; 0x03
	
	b = arp_entry_search (dest_ip);
    5336:	88 85       	ldd	r24, Y+8	; 0x08
    5338:	99 85       	ldd	r25, Y+9	; 0x09
    533a:	aa 85       	ldd	r26, Y+10	; 0x0a
    533c:	bb 85       	ldd	r27, Y+11	; 0x0b
    533e:	bc 01       	movw	r22, r24
    5340:	cd 01       	movw	r24, r26
    5342:	0e 94 4d 29 	call	0x529a	; 0x529a <arp_entry_search>
    5346:	8d 83       	std	Y+5, r24	; 0x05
	if (b != MAX_ARP_ENTRY) //Eintrag gefunden wenn ungleich
    5348:	8d 81       	ldd	r24, Y+5	; 0x05
    534a:	85 30       	cpi	r24, 0x05	; 5
    534c:	c1 f1       	breq	.+112    	; 0x53be <new_eth_header+0xb0>
	{
		for(unsigned char a = 0; a < 6; a++)
    534e:	1a 82       	std	Y+2, r1	; 0x02
    5350:	32 c0       	rjmp	.+100    	; 0x53b6 <new_eth_header+0xa8>
		{
			//MAC Destadresse wird geschrieben mit MAC Sourceadresse
			ethernet->EnetPacketDest[a] = arp_entry[b].arp_t_mac[a];
    5352:	8a 81       	ldd	r24, Y+2	; 0x02
    5354:	48 2f       	mov	r20, r24
    5356:	50 e0       	ldi	r21, 0x00	; 0
    5358:	8d 81       	ldd	r24, Y+5	; 0x05
    535a:	28 2f       	mov	r18, r24
    535c:	30 e0       	ldi	r19, 0x00	; 0
    535e:	8a 81       	ldd	r24, Y+2	; 0x02
    5360:	68 2f       	mov	r22, r24
    5362:	70 e0       	ldi	r23, 0x00	; 0
    5364:	c9 01       	movw	r24, r18
    5366:	88 0f       	add	r24, r24
    5368:	99 1f       	adc	r25, r25
    536a:	82 0f       	add	r24, r18
    536c:	93 1f       	adc	r25, r19
    536e:	88 0f       	add	r24, r24
    5370:	99 1f       	adc	r25, r25
    5372:	88 0f       	add	r24, r24
    5374:	99 1f       	adc	r25, r25
    5376:	86 0f       	add	r24, r22
    5378:	97 1f       	adc	r25, r23
    537a:	85 5a       	subi	r24, 0xA5	; 165
    537c:	9d 4f       	sbci	r25, 0xFD	; 253
    537e:	fc 01       	movw	r30, r24
    5380:	20 81       	ld	r18, Z
    5382:	8b 81       	ldd	r24, Y+3	; 0x03
    5384:	9c 81       	ldd	r25, Y+4	; 0x04
    5386:	84 0f       	add	r24, r20
    5388:	95 1f       	adc	r25, r21
    538a:	fc 01       	movw	r30, r24
    538c:	20 83       	st	Z, r18
			//Meine MAC Adresse wird in Sourceadresse geschrieben
			ethernet->EnetPacketSrc[a] = mymac[a];
    538e:	8a 81       	ldd	r24, Y+2	; 0x02
    5390:	88 2f       	mov	r24, r24
    5392:	90 e0       	ldi	r25, 0x00	; 0
    5394:	2a 81       	ldd	r18, Y+2	; 0x02
    5396:	22 2f       	mov	r18, r18
    5398:	30 e0       	ldi	r19, 0x00	; 0
    539a:	29 5c       	subi	r18, 0xC9	; 201
    539c:	3c 4f       	sbci	r19, 0xFC	; 252
    539e:	f9 01       	movw	r30, r18
    53a0:	40 81       	ld	r20, Z
    53a2:	2b 81       	ldd	r18, Y+3	; 0x03
    53a4:	3c 81       	ldd	r19, Y+4	; 0x04
    53a6:	82 0f       	add	r24, r18
    53a8:	93 1f       	adc	r25, r19
    53aa:	06 96       	adiw	r24, 0x06	; 6
    53ac:	fc 01       	movw	r30, r24
    53ae:	40 83       	st	Z, r20
	ethernet = (struct Ethernet_Header *)&buffer[ETHER_OFFSET];
	
	b = arp_entry_search (dest_ip);
	if (b != MAX_ARP_ENTRY) //Eintrag gefunden wenn ungleich
	{
		for(unsigned char a = 0; a < 6; a++)
    53b0:	8a 81       	ldd	r24, Y+2	; 0x02
    53b2:	8f 5f       	subi	r24, 0xFF	; 255
    53b4:	8a 83       	std	Y+2, r24	; 0x02
    53b6:	8a 81       	ldd	r24, Y+2	; 0x02
    53b8:	86 30       	cpi	r24, 0x06	; 6
    53ba:	58 f2       	brcs	.-106    	; 0x5352 <new_eth_header+0x44>
			//MAC Destadresse wird geschrieben mit MAC Sourceadresse
			ethernet->EnetPacketDest[a] = arp_entry[b].arp_t_mac[a];
			//Meine MAC Adresse wird in Sourceadresse geschrieben
			ethernet->EnetPacketSrc[a] = mymac[a];
		}
		return;
    53bc:	2d c0       	rjmp	.+90     	; 0x5418 <new_eth_header+0x10a>
	}
    
	DEBUG("ARP Eintrag nicht gefunden*\r\n");
    53be:	88 e3       	ldi	r24, 0x38	; 56
    53c0:	90 e2       	ldi	r25, 0x20	; 32
    53c2:	29 2f       	mov	r18, r25
    53c4:	2f 93       	push	r18
    53c6:	8f 93       	push	r24
    53c8:	0e 94 31 3a 	call	0x7462	; 0x7462 <usart_write_P>
    53cc:	0f 90       	pop	r0
    53ce:	0f 90       	pop	r0
	for(a = 0; a < 6; a++)
    53d0:	19 82       	std	Y+1, r1	; 0x01
    53d2:	1e c0       	rjmp	.+60     	; 0x5410 <new_eth_header+0x102>
	{
		//MAC Destadresse wird geschrieben mit MAC Sourceadresse
		ethernet->EnetPacketDest[a] = 0xFF;
    53d4:	89 81       	ldd	r24, Y+1	; 0x01
    53d6:	88 2f       	mov	r24, r24
    53d8:	90 e0       	ldi	r25, 0x00	; 0
    53da:	2b 81       	ldd	r18, Y+3	; 0x03
    53dc:	3c 81       	ldd	r19, Y+4	; 0x04
    53de:	82 0f       	add	r24, r18
    53e0:	93 1f       	adc	r25, r19
    53e2:	2f ef       	ldi	r18, 0xFF	; 255
    53e4:	fc 01       	movw	r30, r24
    53e6:	20 83       	st	Z, r18
		//Meine MAC Adresse wird in Sourceadresse geschrieben
		ethernet->EnetPacketSrc[a] = mymac[a];
    53e8:	89 81       	ldd	r24, Y+1	; 0x01
    53ea:	88 2f       	mov	r24, r24
    53ec:	90 e0       	ldi	r25, 0x00	; 0
    53ee:	29 81       	ldd	r18, Y+1	; 0x01
    53f0:	22 2f       	mov	r18, r18
    53f2:	30 e0       	ldi	r19, 0x00	; 0
    53f4:	29 5c       	subi	r18, 0xC9	; 201
    53f6:	3c 4f       	sbci	r19, 0xFC	; 252
    53f8:	f9 01       	movw	r30, r18
    53fa:	40 81       	ld	r20, Z
    53fc:	2b 81       	ldd	r18, Y+3	; 0x03
    53fe:	3c 81       	ldd	r19, Y+4	; 0x04
    5400:	82 0f       	add	r24, r18
    5402:	93 1f       	adc	r25, r19
    5404:	06 96       	adiw	r24, 0x06	; 6
    5406:	fc 01       	movw	r30, r24
    5408:	40 83       	st	Z, r20
		}
		return;
	}
    
	DEBUG("ARP Eintrag nicht gefunden*\r\n");
	for(a = 0; a < 6; a++)
    540a:	89 81       	ldd	r24, Y+1	; 0x01
    540c:	8f 5f       	subi	r24, 0xFF	; 255
    540e:	89 83       	std	Y+1, r24	; 0x01
    5410:	89 81       	ldd	r24, Y+1	; 0x01
    5412:	86 30       	cpi	r24, 0x06	; 6
    5414:	f8 f2       	brcs	.-66     	; 0x53d4 <new_eth_header+0xc6>
		//MAC Destadresse wird geschrieben mit MAC Sourceadresse
		ethernet->EnetPacketDest[a] = 0xFF;
		//Meine MAC Adresse wird in Sourceadresse geschrieben
		ethernet->EnetPacketSrc[a] = mymac[a];
	}
	return;
    5416:	00 00       	nop

}
    5418:	2b 96       	adiw	r28, 0x0b	; 11
    541a:	0f b6       	in	r0, 0x3f	; 63
    541c:	f8 94       	cli
    541e:	de bf       	out	0x3e, r29	; 62
    5420:	0f be       	out	0x3f, r0	; 63
    5422:	cd bf       	out	0x3d, r28	; 61
    5424:	df 91       	pop	r29
    5426:	cf 91       	pop	r28
    5428:	08 95       	ret

0000542a <arp_reply>:

//----------------------------------------------------------------------------
//Diese Routine Antwortet auf ein ARP Paket
void arp_reply (void)
{
    542a:	cf 93       	push	r28
    542c:	df 93       	push	r29
    542e:	00 d0       	rcall	.+0      	; 0x5430 <arp_reply+0x6>
    5430:	00 d0       	rcall	.+0      	; 0x5432 <arp_reply+0x8>
    5432:	00 d0       	rcall	.+0      	; 0x5434 <arp_reply+0xa>
    5434:	cd b7       	in	r28, 0x3d	; 61
    5436:	de b7       	in	r29, 0x3e	; 62
    unsigned char b;
    unsigned char a;
    struct Ethernet_Header *ethernet;
    struct ARP_Header      *arp;

    ethernet = (struct Ethernet_Header *)&eth_buffer[ETHER_OFFSET];
    5438:	8d e3       	ldi	r24, 0x3D	; 61
    543a:	93 e0       	ldi	r25, 0x03	; 3
    543c:	9b 83       	std	Y+3, r25	; 0x03
    543e:	8a 83       	std	Y+2, r24	; 0x02
    arp      = (struct ARP_Header      *)&eth_buffer[ARP_OFFSET];
    5440:	8b e4       	ldi	r24, 0x4B	; 75
    5442:	93 e0       	ldi	r25, 0x03	; 3
    5444:	9d 83       	std	Y+5, r25	; 0x05
    5446:	8c 83       	std	Y+4, r24	; 0x04


    if( arp->ARP_HWType  == HTONS(0x0001)  &&             // Hardware Typ:   Ethernet
    5448:	8c 81       	ldd	r24, Y+4	; 0x04
    544a:	9d 81       	ldd	r25, Y+5	; 0x05
    544c:	fc 01       	movw	r30, r24
    544e:	80 81       	ld	r24, Z
    5450:	91 81       	ldd	r25, Z+1	; 0x01
    5452:	81 15       	cp	r24, r1
    5454:	91 40       	sbci	r25, 0x01	; 1
    5456:	09 f0       	breq	.+2      	; 0x545a <arp_reply+0x30>
    5458:	dc c0       	rjmp	.+440    	; 0x5612 <arp_reply+0x1e8>
        arp->ARP_PRType  == HTONS(0x0800)  &&             // Protokoll Typ:  IP
    545a:	8c 81       	ldd	r24, Y+4	; 0x04
    545c:	9d 81       	ldd	r25, Y+5	; 0x05
    545e:	fc 01       	movw	r30, r24
    5460:	82 81       	ldd	r24, Z+2	; 0x02
    5462:	93 81       	ldd	r25, Z+3	; 0x03

    ethernet = (struct Ethernet_Header *)&eth_buffer[ETHER_OFFSET];
    arp      = (struct ARP_Header      *)&eth_buffer[ARP_OFFSET];


    if( arp->ARP_HWType  == HTONS(0x0001)  &&             // Hardware Typ:   Ethernet
    5464:	08 97       	sbiw	r24, 0x08	; 8
    5466:	09 f0       	breq	.+2      	; 0x546a <arp_reply+0x40>
    5468:	d4 c0       	rjmp	.+424    	; 0x5612 <arp_reply+0x1e8>
        arp->ARP_PRType  == HTONS(0x0800)  &&             // Protokoll Typ:  IP
        arp->ARP_HWLen   == 0x06           &&             // Lnge der Hardwareadresse: 6
    546a:	8c 81       	ldd	r24, Y+4	; 0x04
    546c:	9d 81       	ldd	r25, Y+5	; 0x05
    546e:	fc 01       	movw	r30, r24
    5470:	84 81       	ldd	r24, Z+4	; 0x04
    ethernet = (struct Ethernet_Header *)&eth_buffer[ETHER_OFFSET];
    arp      = (struct ARP_Header      *)&eth_buffer[ARP_OFFSET];


    if( arp->ARP_HWType  == HTONS(0x0001)  &&             // Hardware Typ:   Ethernet
        arp->ARP_PRType  == HTONS(0x0800)  &&             // Protokoll Typ:  IP
    5472:	86 30       	cpi	r24, 0x06	; 6
    5474:	09 f0       	breq	.+2      	; 0x5478 <arp_reply+0x4e>
    5476:	cd c0       	rjmp	.+410    	; 0x5612 <arp_reply+0x1e8>
        arp->ARP_HWLen   == 0x06           &&             // Lnge der Hardwareadresse: 6
        arp->ARP_PRLen   == 0x04           &&             // Lnge der Protokolladresse: 4 
    5478:	8c 81       	ldd	r24, Y+4	; 0x04
    547a:	9d 81       	ldd	r25, Y+5	; 0x05
    547c:	fc 01       	movw	r30, r24
    547e:	85 81       	ldd	r24, Z+5	; 0x05
    arp      = (struct ARP_Header      *)&eth_buffer[ARP_OFFSET];


    if( arp->ARP_HWType  == HTONS(0x0001)  &&             // Hardware Typ:   Ethernet
        arp->ARP_PRType  == HTONS(0x0800)  &&             // Protokoll Typ:  IP
        arp->ARP_HWLen   == 0x06           &&             // Lnge der Hardwareadresse: 6
    5480:	84 30       	cpi	r24, 0x04	; 4
    5482:	09 f0       	breq	.+2      	; 0x5486 <arp_reply+0x5c>
    5484:	c6 c0       	rjmp	.+396    	; 0x5612 <arp_reply+0x1e8>
        arp->ARP_PRLen   == 0x04           &&             // Lnge der Protokolladresse: 4 
        arp->ARP_TIPAddr == *((unsigned long*)&myip[0])) // Fr uns?
    5486:	8c 81       	ldd	r24, Y+4	; 0x04
    5488:	9d 81       	ldd	r25, Y+5	; 0x05
    548a:	fc 01       	movw	r30, r24
    548c:	20 8d       	ldd	r18, Z+24	; 0x18
    548e:	31 8d       	ldd	r19, Z+25	; 0x19
    5490:	42 8d       	ldd	r20, Z+26	; 0x1a
    5492:	53 8d       	ldd	r21, Z+27	; 0x1b
    5494:	8e e9       	ldi	r24, 0x9E	; 158
    5496:	95 e0       	ldi	r25, 0x05	; 5
    5498:	fc 01       	movw	r30, r24
    549a:	80 81       	ld	r24, Z
    549c:	91 81       	ldd	r25, Z+1	; 0x01
    549e:	a2 81       	ldd	r26, Z+2	; 0x02
    54a0:	b3 81       	ldd	r27, Z+3	; 0x03


    if( arp->ARP_HWType  == HTONS(0x0001)  &&             // Hardware Typ:   Ethernet
        arp->ARP_PRType  == HTONS(0x0800)  &&             // Protokoll Typ:  IP
        arp->ARP_HWLen   == 0x06           &&             // Lnge der Hardwareadresse: 6
        arp->ARP_PRLen   == 0x04           &&             // Lnge der Protokolladresse: 4 
    54a2:	28 17       	cp	r18, r24
    54a4:	39 07       	cpc	r19, r25
    54a6:	4a 07       	cpc	r20, r26
    54a8:	5b 07       	cpc	r21, r27
    54aa:	09 f0       	breq	.+2      	; 0x54ae <arp_reply+0x84>
    54ac:	b2 c0       	rjmp	.+356    	; 0x5612 <arp_reply+0x1e8>
        arp->ARP_TIPAddr == *((unsigned long*)&myip[0])) // Fr uns?
    {
        if (arp->ARP_Op == HTONS(0x0001) )                  // Request?
    54ae:	8c 81       	ldd	r24, Y+4	; 0x04
    54b0:	9d 81       	ldd	r25, Y+5	; 0x05
    54b2:	fc 01       	movw	r30, r24
    54b4:	86 81       	ldd	r24, Z+6	; 0x06
    54b6:	97 81       	ldd	r25, Z+7	; 0x07
    54b8:	81 15       	cp	r24, r1
    54ba:	91 40       	sbci	r25, 0x01	; 1
    54bc:	09 f0       	breq	.+2      	; 0x54c0 <arp_reply+0x96>
    54be:	96 c0       	rjmp	.+300    	; 0x55ec <arp_reply+0x1c2>
        {
            arp_entry_add(); 
    54c0:	0e 94 3a 27 	call	0x4e74	; 0x4e74 <arp_entry_add>
            new_eth_header (eth_buffer, arp->ARP_SIPAddr); // Erzeugt ein neuen Ethernetheader
    54c4:	8c 81       	ldd	r24, Y+4	; 0x04
    54c6:	9d 81       	ldd	r25, Y+5	; 0x05
    54c8:	fc 01       	movw	r30, r24
    54ca:	86 85       	ldd	r24, Z+14	; 0x0e
    54cc:	97 85       	ldd	r25, Z+15	; 0x0f
    54ce:	a0 89       	ldd	r26, Z+16	; 0x10
    54d0:	b1 89       	ldd	r27, Z+17	; 0x11
    54d2:	ac 01       	movw	r20, r24
    54d4:	bd 01       	movw	r22, r26
    54d6:	8d e3       	ldi	r24, 0x3D	; 61
    54d8:	93 e0       	ldi	r25, 0x03	; 3
    54da:	0e 94 87 29 	call	0x530e	; 0x530e <new_eth_header>
            ethernet->EnetPacketType = HTONS(0x0806);      // Nutzlast 0x0800=IP Datagramm;0x0806 = ARP
    54de:	8a 81       	ldd	r24, Y+2	; 0x02
    54e0:	9b 81       	ldd	r25, Y+3	; 0x03
    54e2:	28 e0       	ldi	r18, 0x08	; 8
    54e4:	36 e0       	ldi	r19, 0x06	; 6
    54e6:	fc 01       	movw	r30, r24
    54e8:	35 87       	std	Z+13, r19	; 0x0d
    54ea:	24 87       	std	Z+12, r18	; 0x0c
      
            b = arp_entry_search (arp->ARP_SIPAddr);
    54ec:	8c 81       	ldd	r24, Y+4	; 0x04
    54ee:	9d 81       	ldd	r25, Y+5	; 0x05
    54f0:	fc 01       	movw	r30, r24
    54f2:	86 85       	ldd	r24, Z+14	; 0x0e
    54f4:	97 85       	ldd	r25, Z+15	; 0x0f
    54f6:	a0 89       	ldd	r26, Z+16	; 0x10
    54f8:	b1 89       	ldd	r27, Z+17	; 0x11
    54fa:	bc 01       	movw	r22, r24
    54fc:	cd 01       	movw	r24, r26
    54fe:	0e 94 4d 29 	call	0x529a	; 0x529a <arp_entry_search>
    5502:	8e 83       	std	Y+6, r24	; 0x06
            if (b < MAX_ARP_ENTRY)                         // Eintrag gefunden wenn ungleich
    5504:	8e 81       	ldd	r24, Y+6	; 0x06
    5506:	85 30       	cpi	r24, 0x05	; 5
    5508:	c8 f5       	brcc	.+114    	; 0x557c <arp_reply+0x152>
            {
                for(a = 0; a < 6; a++)
    550a:	19 82       	std	Y+1, r1	; 0x01
    550c:	33 c0       	rjmp	.+102    	; 0x5574 <arp_reply+0x14a>
                {
                    arp->ARP_THAddr[a] = arp_entry[b].arp_t_mac[a];
    550e:	89 81       	ldd	r24, Y+1	; 0x01
    5510:	48 2f       	mov	r20, r24
    5512:	50 e0       	ldi	r21, 0x00	; 0
    5514:	8e 81       	ldd	r24, Y+6	; 0x06
    5516:	28 2f       	mov	r18, r24
    5518:	30 e0       	ldi	r19, 0x00	; 0
    551a:	89 81       	ldd	r24, Y+1	; 0x01
    551c:	68 2f       	mov	r22, r24
    551e:	70 e0       	ldi	r23, 0x00	; 0
    5520:	c9 01       	movw	r24, r18
    5522:	88 0f       	add	r24, r24
    5524:	99 1f       	adc	r25, r25
    5526:	82 0f       	add	r24, r18
    5528:	93 1f       	adc	r25, r19
    552a:	88 0f       	add	r24, r24
    552c:	99 1f       	adc	r25, r25
    552e:	88 0f       	add	r24, r24
    5530:	99 1f       	adc	r25, r25
    5532:	86 0f       	add	r24, r22
    5534:	97 1f       	adc	r25, r23
    5536:	85 5a       	subi	r24, 0xA5	; 165
    5538:	9d 4f       	sbci	r25, 0xFD	; 253
    553a:	fc 01       	movw	r30, r24
    553c:	20 81       	ld	r18, Z
    553e:	8c 81       	ldd	r24, Y+4	; 0x04
    5540:	9d 81       	ldd	r25, Y+5	; 0x05
    5542:	84 0f       	add	r24, r20
    5544:	95 1f       	adc	r25, r21
    5546:	42 96       	adiw	r24, 0x12	; 18
    5548:	fc 01       	movw	r30, r24
    554a:	20 83       	st	Z, r18
                    arp->ARP_SHAddr[a] = mymac[a];
    554c:	89 81       	ldd	r24, Y+1	; 0x01
    554e:	88 2f       	mov	r24, r24
    5550:	90 e0       	ldi	r25, 0x00	; 0
    5552:	29 81       	ldd	r18, Y+1	; 0x01
    5554:	22 2f       	mov	r18, r18
    5556:	30 e0       	ldi	r19, 0x00	; 0
    5558:	29 5c       	subi	r18, 0xC9	; 201
    555a:	3c 4f       	sbci	r19, 0xFC	; 252
    555c:	f9 01       	movw	r30, r18
    555e:	40 81       	ld	r20, Z
    5560:	2c 81       	ldd	r18, Y+4	; 0x04
    5562:	3d 81       	ldd	r19, Y+5	; 0x05
    5564:	82 0f       	add	r24, r18
    5566:	93 1f       	adc	r25, r19
    5568:	08 96       	adiw	r24, 0x08	; 8
    556a:	fc 01       	movw	r30, r24
    556c:	40 83       	st	Z, r20
            ethernet->EnetPacketType = HTONS(0x0806);      // Nutzlast 0x0800=IP Datagramm;0x0806 = ARP
      
            b = arp_entry_search (arp->ARP_SIPAddr);
            if (b < MAX_ARP_ENTRY)                         // Eintrag gefunden wenn ungleich
            {
                for(a = 0; a < 6; a++)
    556e:	89 81       	ldd	r24, Y+1	; 0x01
    5570:	8f 5f       	subi	r24, 0xFF	; 255
    5572:	89 83       	std	Y+1, r24	; 0x01
    5574:	89 81       	ldd	r24, Y+1	; 0x01
    5576:	86 30       	cpi	r24, 0x06	; 6
    5578:	50 f2       	brcs	.-108    	; 0x550e <arp_reply+0xe4>
    557a:	09 c0       	rjmp	.+18     	; 0x558e <arp_reply+0x164>
                    arp->ARP_SHAddr[a] = mymac[a];
                }
            }
            else
            {
                DEBUG("ARP Eintrag nicht gefunden\r\n");        // Unwarscheinlich
    557c:	86 e5       	ldi	r24, 0x56	; 86
    557e:	90 e2       	ldi	r25, 0x20	; 32
    5580:	29 2f       	mov	r18, r25
    5582:	2f 93       	push	r18
    5584:	8f 93       	push	r24
    5586:	0e 94 31 3a 	call	0x7462	; 0x7462 <usart_write_P>
    558a:	0f 90       	pop	r0
    558c:	0f 90       	pop	r0
            }
      
            arp->ARP_Op      = HTONS(0x0002);                   // ARP op = ECHO  
    558e:	8c 81       	ldd	r24, Y+4	; 0x04
    5590:	9d 81       	ldd	r25, Y+5	; 0x05
    5592:	20 e0       	ldi	r18, 0x00	; 0
    5594:	32 e0       	ldi	r19, 0x02	; 2
    5596:	fc 01       	movw	r30, r24
    5598:	37 83       	std	Z+7, r19	; 0x07
    559a:	26 83       	std	Z+6, r18	; 0x06
            arp->ARP_TIPAddr = arp->ARP_SIPAddr;                // ARP Target IP Adresse 
    559c:	8c 81       	ldd	r24, Y+4	; 0x04
    559e:	9d 81       	ldd	r25, Y+5	; 0x05
    55a0:	fc 01       	movw	r30, r24
    55a2:	86 85       	ldd	r24, Z+14	; 0x0e
    55a4:	97 85       	ldd	r25, Z+15	; 0x0f
    55a6:	a0 89       	ldd	r26, Z+16	; 0x10
    55a8:	b1 89       	ldd	r27, Z+17	; 0x11
    55aa:	2c 81       	ldd	r18, Y+4	; 0x04
    55ac:	3d 81       	ldd	r19, Y+5	; 0x05
    55ae:	f9 01       	movw	r30, r18
    55b0:	80 8f       	std	Z+24, r24	; 0x18
    55b2:	91 8f       	std	Z+25, r25	; 0x19
    55b4:	a2 8f       	std	Z+26, r26	; 0x1a
    55b6:	b3 8f       	std	Z+27, r27	; 0x1b
            arp->ARP_SIPAddr = *((unsigned long *)&myip[0]);   // Meine IP Adresse = ARP Source
    55b8:	8e e9       	ldi	r24, 0x9E	; 158
    55ba:	95 e0       	ldi	r25, 0x05	; 5
    55bc:	fc 01       	movw	r30, r24
    55be:	80 81       	ld	r24, Z
    55c0:	91 81       	ldd	r25, Z+1	; 0x01
    55c2:	a2 81       	ldd	r26, Z+2	; 0x02
    55c4:	b3 81       	ldd	r27, Z+3	; 0x03
    55c6:	2c 81       	ldd	r18, Y+4	; 0x04
    55c8:	3d 81       	ldd	r19, Y+5	; 0x05
    55ca:	f9 01       	movw	r30, r18
    55cc:	86 87       	std	Z+14, r24	; 0x0e
    55ce:	97 87       	std	Z+15, r25	; 0x0f
    55d0:	a0 8b       	std	Z+16, r26	; 0x10
    55d2:	b1 8b       	std	Z+17, r27	; 0x11
      
            ETH_PACKET_SEND(ARP_REPLY_LEN,eth_buffer);          // ARP Reply senden...
    55d4:	6d e3       	ldi	r22, 0x3D	; 61
    55d6:	73 e0       	ldi	r23, 0x03	; 3
    55d8:	8c e3       	ldi	r24, 0x3C	; 60
    55da:	90 e0       	ldi	r25, 0x00	; 0
    55dc:	0e 94 c5 1c 	call	0x398a	; 0x398a <enc_send_packet>
			eth.no_reset	 = 1;	
    55e0:	80 91 97 02 	lds	r24, 0x0297	; 0x800297 <eth>
    55e4:	84 60       	ori	r24, 0x04	; 4
    55e6:	80 93 97 02 	sts	0x0297, r24	; 0x800297 <eth>
            return;
    55ea:	14 c0       	rjmp	.+40     	; 0x5614 <arp_reply+0x1ea>
        }

        if ( arp->ARP_Op == HTONS(0x0002) )                    // REPLY von einem anderen Client
    55ec:	8c 81       	ldd	r24, Y+4	; 0x04
    55ee:	9d 81       	ldd	r25, Y+5	; 0x05
    55f0:	fc 01       	movw	r30, r24
    55f2:	86 81       	ldd	r24, Z+6	; 0x06
    55f4:	97 81       	ldd	r25, Z+7	; 0x07
    55f6:	81 15       	cp	r24, r1
    55f8:	92 40       	sbci	r25, 0x02	; 2
    55fa:	59 f4       	brne	.+22     	; 0x5612 <arp_reply+0x1e8>
        {
            arp_entry_add();
    55fc:	0e 94 3a 27 	call	0x4e74	; 0x4e74 <arp_entry_add>
            DEBUG("ARP REPLY EMPFANGEN!\r\n");
    5600:	83 e7       	ldi	r24, 0x73	; 115
    5602:	90 e2       	ldi	r25, 0x20	; 32
    5604:	29 2f       	mov	r18, r25
    5606:	2f 93       	push	r18
    5608:	8f 93       	push	r24
    560a:	0e 94 31 3a 	call	0x7462	; 0x7462 <usart_write_P>
    560e:	0f 90       	pop	r0
    5610:	0f 90       	pop	r0
        }
    }
    return;
    5612:	00 00       	nop
}
    5614:	26 96       	adiw	r28, 0x06	; 6
    5616:	0f b6       	in	r0, 0x3f	; 63
    5618:	f8 94       	cli
    561a:	de bf       	out	0x3e, r29	; 62
    561c:	0f be       	out	0x3f, r0	; 63
    561e:	cd bf       	out	0x3d, r28	; 61
    5620:	df 91       	pop	r29
    5622:	cf 91       	pop	r28
    5624:	08 95       	ret

00005626 <arp_request>:

//----------------------------------------------------------------------------
//Diese Routine erzeugt einen ARP Request
char arp_request (unsigned long dest_ip)
{
    5626:	cf 93       	push	r28
    5628:	df 93       	push	r29
    562a:	cd b7       	in	r28, 0x3d	; 61
    562c:	de b7       	in	r29, 0x3e	; 62
    562e:	ed 97       	sbiw	r28, 0x3d	; 61
    5630:	0f b6       	in	r0, 0x3f	; 63
    5632:	f8 94       	cli
    5634:	de bf       	out	0x3e, r29	; 62
    5636:	0f be       	out	0x3f, r0	; 63
    5638:	cd bf       	out	0x3d, r28	; 61
    563a:	6a af       	std	Y+58, r22	; 0x3a
    563c:	7b af       	std	Y+59, r23	; 0x3b
    563e:	8c af       	std	Y+60, r24	; 0x3c
    5640:	9d af       	std	Y+61, r25	; 0x3d
    unsigned char buffer[ARP_REQUEST_LEN];
    unsigned char index = 0;
    5642:	1e 82       	std	Y+6, r1	; 0x06
    unsigned long dest_ip_store;

    struct Ethernet_Header *ethernet;
    struct ARP_Header *arp;

    ethernet = (struct Ethernet_Header *)&buffer[ETHER_OFFSET];
    5644:	ce 01       	movw	r24, r28
    5646:	40 96       	adiw	r24, 0x10	; 16
    5648:	98 87       	std	Y+8, r25	; 0x08
    564a:	8f 83       	std	Y+7, r24	; 0x07
    arp      = (struct ARP_Header      *)&buffer[ARP_OFFSET];
    564c:	ce 01       	movw	r24, r28
    564e:	40 96       	adiw	r24, 0x10	; 16
    5650:	0e 96       	adiw	r24, 0x0e	; 14
    5652:	9a 87       	std	Y+10, r25	; 0x0a
    5654:	89 87       	std	Y+9, r24	; 0x09

    dest_ip_store = dest_ip;
    5656:	8a ad       	ldd	r24, Y+58	; 0x3a
    5658:	9b ad       	ldd	r25, Y+59	; 0x3b
    565a:	ac ad       	ldd	r26, Y+60	; 0x3c
    565c:	bd ad       	ldd	r27, Y+61	; 0x3d
    565e:	8b 87       	std	Y+11, r24	; 0x0b
    5660:	9c 87       	std	Y+12, r25	; 0x0c
    5662:	ad 87       	std	Y+13, r26	; 0x0d
    5664:	be 87       	std	Y+14, r27	; 0x0e

    if ( (dest_ip & (*((unsigned long *)&netmask[0])))==
       ((*((unsigned long *)&myip[0]))&(*((unsigned long *)&netmask[0]))) )
    5666:	8e e9       	ldi	r24, 0x9E	; 158
    5668:	95 e0       	ldi	r25, 0x05	; 5
    566a:	fc 01       	movw	r30, r24
    566c:	20 81       	ld	r18, Z
    566e:	31 81       	ldd	r19, Z+1	; 0x01
    5670:	42 81       	ldd	r20, Z+2	; 0x02
    5672:	53 81       	ldd	r21, Z+3	; 0x03
    ethernet = (struct Ethernet_Header *)&buffer[ETHER_OFFSET];
    arp      = (struct ARP_Header      *)&buffer[ARP_OFFSET];

    dest_ip_store = dest_ip;

    if ( (dest_ip & (*((unsigned long *)&netmask[0])))==
    5674:	8a ad       	ldd	r24, Y+58	; 0x3a
    5676:	9b ad       	ldd	r25, Y+59	; 0x3b
    5678:	ac ad       	ldd	r26, Y+60	; 0x3c
    567a:	bd ad       	ldd	r27, Y+61	; 0x3d
    567c:	28 27       	eor	r18, r24
    567e:	39 27       	eor	r19, r25
    5680:	4a 27       	eor	r20, r26
    5682:	5b 27       	eor	r21, r27
    5684:	86 ea       	ldi	r24, 0xA6	; 166
    5686:	95 e0       	ldi	r25, 0x05	; 5
    5688:	fc 01       	movw	r30, r24
    568a:	80 81       	ld	r24, Z
    568c:	91 81       	ldd	r25, Z+1	; 0x01
    568e:	a2 81       	ldd	r26, Z+2	; 0x02
    5690:	b3 81       	ldd	r27, Z+3	; 0x03
    5692:	82 23       	and	r24, r18
    5694:	93 23       	and	r25, r19
    5696:	a4 23       	and	r26, r20
    5698:	b5 23       	and	r27, r21
    569a:	89 2b       	or	r24, r25
    569c:	8a 2b       	or	r24, r26
    569e:	8b 2b       	or	r24, r27
    56a0:	51 f4       	brne	.+20     	; 0x56b6 <arp_request+0x90>
       ((*((unsigned long *)&myip[0]))&(*((unsigned long *)&netmask[0]))) )
    {
        DEBUG("MY NETWORK!\r\n");
    56a2:	8a e8       	ldi	r24, 0x8A	; 138
    56a4:	90 e2       	ldi	r25, 0x20	; 32
    56a6:	29 2f       	mov	r18, r25
    56a8:	2f 93       	push	r18
    56aa:	8f 93       	push	r24
    56ac:	0e 94 31 3a 	call	0x7462	; 0x7462 <usart_write_P>
    56b0:	0f 90       	pop	r0
    56b2:	0f 90       	pop	r0
    56b4:	14 c0       	rjmp	.+40     	; 0x56de <arp_request+0xb8>
    }
    else
    {
        DEBUG("ROUTING!\r\n");
    56b6:	88 e9       	ldi	r24, 0x98	; 152
    56b8:	90 e2       	ldi	r25, 0x20	; 32
    56ba:	29 2f       	mov	r18, r25
    56bc:	2f 93       	push	r18
    56be:	8f 93       	push	r24
    56c0:	0e 94 31 3a 	call	0x7462	; 0x7462 <usart_write_P>
    56c4:	0f 90       	pop	r0
    56c6:	0f 90       	pop	r0
        dest_ip = (*((unsigned long *)&router_ip[0]));
    56c8:	82 ea       	ldi	r24, 0xA2	; 162
    56ca:	95 e0       	ldi	r25, 0x05	; 5
    56cc:	fc 01       	movw	r30, r24
    56ce:	80 81       	ld	r24, Z
    56d0:	91 81       	ldd	r25, Z+1	; 0x01
    56d2:	a2 81       	ldd	r26, Z+2	; 0x02
    56d4:	b3 81       	ldd	r27, Z+3	; 0x03
    56d6:	8a af       	std	Y+58, r24	; 0x3a
    56d8:	9b af       	std	Y+59, r25	; 0x3b
    56da:	ac af       	std	Y+60, r26	; 0x3c
    56dc:	bd af       	std	Y+61, r27	; 0x3d
    }

    ethernet->EnetPacketType = HTONS(0x0806);          // Nutzlast 0x0800=IP Datagramm;0x0806 = ARP
    56de:	8f 81       	ldd	r24, Y+7	; 0x07
    56e0:	98 85       	ldd	r25, Y+8	; 0x08
    56e2:	28 e0       	ldi	r18, 0x08	; 8
    56e4:	36 e0       	ldi	r19, 0x06	; 6
    56e6:	fc 01       	movw	r30, r24
    56e8:	35 87       	std	Z+13, r19	; 0x0d
    56ea:	24 87       	std	Z+12, r18	; 0x0c
  
    new_eth_header (buffer,dest_ip);
    56ec:	8a ad       	ldd	r24, Y+58	; 0x3a
    56ee:	9b ad       	ldd	r25, Y+59	; 0x3b
    56f0:	ac ad       	ldd	r26, Y+60	; 0x3c
    56f2:	bd ad       	ldd	r27, Y+61	; 0x3d
    56f4:	9e 01       	movw	r18, r28
    56f6:	20 5f       	subi	r18, 0xF0	; 240
    56f8:	3f 4f       	sbci	r19, 0xFF	; 255
    56fa:	ac 01       	movw	r20, r24
    56fc:	bd 01       	movw	r22, r26
    56fe:	c9 01       	movw	r24, r18
    5700:	0e 94 87 29 	call	0x530e	; 0x530e <new_eth_header>
  
    arp->ARP_SIPAddr = *((unsigned long *)&myip[0]);   // MyIP = ARP Source IP
    5704:	8e e9       	ldi	r24, 0x9E	; 158
    5706:	95 e0       	ldi	r25, 0x05	; 5
    5708:	fc 01       	movw	r30, r24
    570a:	80 81       	ld	r24, Z
    570c:	91 81       	ldd	r25, Z+1	; 0x01
    570e:	a2 81       	ldd	r26, Z+2	; 0x02
    5710:	b3 81       	ldd	r27, Z+3	; 0x03
    5712:	29 85       	ldd	r18, Y+9	; 0x09
    5714:	3a 85       	ldd	r19, Y+10	; 0x0a
    5716:	f9 01       	movw	r30, r18
    5718:	86 87       	std	Z+14, r24	; 0x0e
    571a:	97 87       	std	Z+15, r25	; 0x0f
    571c:	a0 8b       	std	Z+16, r26	; 0x10
    571e:	b1 8b       	std	Z+17, r27	; 0x11
    arp->ARP_TIPAddr = dest_ip;                         // Dest IP 
    5720:	29 85       	ldd	r18, Y+9	; 0x09
    5722:	3a 85       	ldd	r19, Y+10	; 0x0a
    5724:	8a ad       	ldd	r24, Y+58	; 0x3a
    5726:	9b ad       	ldd	r25, Y+59	; 0x3b
    5728:	ac ad       	ldd	r26, Y+60	; 0x3c
    572a:	bd ad       	ldd	r27, Y+61	; 0x3d
    572c:	f9 01       	movw	r30, r18
    572e:	80 8f       	std	Z+24, r24	; 0x18
    5730:	91 8f       	std	Z+25, r25	; 0x19
    5732:	a2 8f       	std	Z+26, r26	; 0x1a
    5734:	b3 8f       	std	Z+27, r27	; 0x1b
  
    for(count = 0; count < 6; count++)
    5736:	19 82       	std	Y+1, r1	; 0x01
    5738:	1e c0       	rjmp	.+60     	; 0x5776 <arp_request+0x150>
    {
        arp->ARP_SHAddr[count] = mymac[count];
    573a:	89 81       	ldd	r24, Y+1	; 0x01
    573c:	88 2f       	mov	r24, r24
    573e:	90 e0       	ldi	r25, 0x00	; 0
    5740:	29 81       	ldd	r18, Y+1	; 0x01
    5742:	22 2f       	mov	r18, r18
    5744:	30 e0       	ldi	r19, 0x00	; 0
    5746:	29 5c       	subi	r18, 0xC9	; 201
    5748:	3c 4f       	sbci	r19, 0xFC	; 252
    574a:	f9 01       	movw	r30, r18
    574c:	40 81       	ld	r20, Z
    574e:	29 85       	ldd	r18, Y+9	; 0x09
    5750:	3a 85       	ldd	r19, Y+10	; 0x0a
    5752:	82 0f       	add	r24, r18
    5754:	93 1f       	adc	r25, r19
    5756:	08 96       	adiw	r24, 0x08	; 8
    5758:	fc 01       	movw	r30, r24
    575a:	40 83       	st	Z, r20
        arp->ARP_THAddr[count] = 0;
    575c:	89 81       	ldd	r24, Y+1	; 0x01
    575e:	88 2f       	mov	r24, r24
    5760:	90 e0       	ldi	r25, 0x00	; 0
    5762:	29 85       	ldd	r18, Y+9	; 0x09
    5764:	3a 85       	ldd	r19, Y+10	; 0x0a
    5766:	82 0f       	add	r24, r18
    5768:	93 1f       	adc	r25, r19
    576a:	42 96       	adiw	r24, 0x12	; 18
    576c:	fc 01       	movw	r30, r24
    576e:	10 82       	st	Z, r1
    new_eth_header (buffer,dest_ip);
  
    arp->ARP_SIPAddr = *((unsigned long *)&myip[0]);   // MyIP = ARP Source IP
    arp->ARP_TIPAddr = dest_ip;                         // Dest IP 
  
    for(count = 0; count < 6; count++)
    5770:	89 81       	ldd	r24, Y+1	; 0x01
    5772:	8f 5f       	subi	r24, 0xFF	; 255
    5774:	89 83       	std	Y+1, r24	; 0x01
    5776:	89 81       	ldd	r24, Y+1	; 0x01
    5778:	86 30       	cpi	r24, 0x06	; 6
    577a:	f8 f2       	brcs	.-66     	; 0x573a <arp_request+0x114>
    {
        arp->ARP_SHAddr[count] = mymac[count];
        arp->ARP_THAddr[count] = 0;
    }
  
    arp->ARP_HWType = HTONS(0x0001);
    577c:	89 85       	ldd	r24, Y+9	; 0x09
    577e:	9a 85       	ldd	r25, Y+10	; 0x0a
    5780:	20 e0       	ldi	r18, 0x00	; 0
    5782:	31 e0       	ldi	r19, 0x01	; 1
    5784:	fc 01       	movw	r30, r24
    5786:	31 83       	std	Z+1, r19	; 0x01
    5788:	20 83       	st	Z, r18
    arp->ARP_PRType = HTONS(0x0800);
    578a:	89 85       	ldd	r24, Y+9	; 0x09
    578c:	9a 85       	ldd	r25, Y+10	; 0x0a
    578e:	28 e0       	ldi	r18, 0x08	; 8
    5790:	30 e0       	ldi	r19, 0x00	; 0
    5792:	fc 01       	movw	r30, r24
    5794:	33 83       	std	Z+3, r19	; 0x03
    5796:	22 83       	std	Z+2, r18	; 0x02
    arp->ARP_HWLen  = 0x06;
    5798:	89 85       	ldd	r24, Y+9	; 0x09
    579a:	9a 85       	ldd	r25, Y+10	; 0x0a
    579c:	26 e0       	ldi	r18, 0x06	; 6
    579e:	fc 01       	movw	r30, r24
    57a0:	24 83       	std	Z+4, r18	; 0x04
    arp->ARP_PRLen  = 0x04;
    57a2:	89 85       	ldd	r24, Y+9	; 0x09
    57a4:	9a 85       	ldd	r25, Y+10	; 0x0a
    57a6:	24 e0       	ldi	r18, 0x04	; 4
    57a8:	fc 01       	movw	r30, r24
    57aa:	25 83       	std	Z+5, r18	; 0x05
    arp->ARP_Op     = HTONS(0x0001);
    57ac:	89 85       	ldd	r24, Y+9	; 0x09
    57ae:	9a 85       	ldd	r25, Y+10	; 0x0a
    57b0:	20 e0       	ldi	r18, 0x00	; 0
    57b2:	31 e0       	ldi	r19, 0x01	; 1
    57b4:	fc 01       	movw	r30, r24
    57b6:	37 83       	std	Z+7, r19	; 0x07
    57b8:	26 83       	std	Z+6, r18	; 0x06

    ETH_PACKET_SEND(ARP_REQUEST_LEN, buffer);        //send....
    57ba:	ce 01       	movw	r24, r28
    57bc:	40 96       	adiw	r24, 0x10	; 16
    57be:	bc 01       	movw	r22, r24
    57c0:	8a e2       	ldi	r24, 0x2A	; 42
    57c2:	90 e0       	ldi	r25, 0x00	; 0
    57c4:	0e 94 c5 1c 	call	0x398a	; 0x398a <enc_send_packet>
	eth.no_reset	 = 1;	
    57c8:	80 91 97 02 	lds	r24, 0x0297	; 0x800297 <eth>
    57cc:	84 60       	ori	r24, 0x04	; 4
    57ce:	80 93 97 02 	sts	0x0297, r24	; 0x800297 <eth>
  
    for(count = 0; count<20; count++)
    57d2:	19 82       	std	Y+1, r1	; 0x01
    57d4:	68 c0       	rjmp	.+208    	; 0x58a6 <arp_request+0x280>
    {
        index_tmp = arp_entry_search(dest_ip_store);
    57d6:	8b 85       	ldd	r24, Y+11	; 0x0b
    57d8:	9c 85       	ldd	r25, Y+12	; 0x0c
    57da:	ad 85       	ldd	r26, Y+13	; 0x0d
    57dc:	be 85       	ldd	r27, Y+14	; 0x0e
    57de:	bc 01       	movw	r22, r24
    57e0:	cd 01       	movw	r24, r26
    57e2:	0e 94 4d 29 	call	0x529a	; 0x529a <arp_entry_search>
    57e6:	8f 87       	std	Y+15, r24	; 0x0f
        index = arp_entry_search(dest_ip);
    57e8:	8a ad       	ldd	r24, Y+58	; 0x3a
    57ea:	9b ad       	ldd	r25, Y+59	; 0x3b
    57ec:	ac ad       	ldd	r26, Y+60	; 0x3c
    57ee:	bd ad       	ldd	r27, Y+61	; 0x3d
    57f0:	bc 01       	movw	r22, r24
    57f2:	cd 01       	movw	r24, r26
    57f4:	0e 94 4d 29 	call	0x529a	; 0x529a <arp_entry_search>
    57f8:	8e 83       	std	Y+6, r24	; 0x06
        if (index < MAX_ARP_ENTRY || index_tmp < MAX_ARP_ENTRY)
    57fa:	8e 81       	ldd	r24, Y+6	; 0x06
    57fc:	85 30       	cpi	r24, 0x05	; 5
    57fe:	18 f0       	brcs	.+6      	; 0x5806 <arp_request+0x1e0>
    5800:	8f 85       	ldd	r24, Y+15	; 0x0f
    5802:	85 30       	cpi	r24, 0x05	; 5
    5804:	40 f5       	brcc	.+80     	; 0x5856 <arp_request+0x230>
        {
            DEBUG("ARP EINTRAG GEFUNDEN!\r\n");
    5806:	83 ea       	ldi	r24, 0xA3	; 163
    5808:	90 e2       	ldi	r25, 0x20	; 32
    580a:	29 2f       	mov	r18, r25
    580c:	2f 93       	push	r18
    580e:	8f 93       	push	r24
    5810:	0e 94 31 3a 	call	0x7462	; 0x7462 <usart_write_P>
    5814:	0f 90       	pop	r0
    5816:	0f 90       	pop	r0
            if (index_tmp < MAX_ARP_ENTRY) return(1);//OK
    5818:	8f 85       	ldd	r24, Y+15	; 0x0f
    581a:	85 30       	cpi	r24, 0x05	; 5
    581c:	10 f4       	brcc	.+4      	; 0x5822 <arp_request+0x1fc>
    581e:	81 e0       	ldi	r24, 0x01	; 1
    5820:	47 c0       	rjmp	.+142    	; 0x58b0 <arp_request+0x28a>
            arp_entry[index].arp_t_ip = dest_ip_store;
    5822:	8e 81       	ldd	r24, Y+6	; 0x06
    5824:	28 2f       	mov	r18, r24
    5826:	30 e0       	ldi	r19, 0x00	; 0
    5828:	c9 01       	movw	r24, r18
    582a:	88 0f       	add	r24, r24
    582c:	99 1f       	adc	r25, r25
    582e:	82 0f       	add	r24, r18
    5830:	93 1f       	adc	r25, r19
    5832:	88 0f       	add	r24, r24
    5834:	99 1f       	adc	r25, r25
    5836:	88 0f       	add	r24, r24
    5838:	99 1f       	adc	r25, r25
    583a:	9c 01       	movw	r18, r24
    583c:	2f 59       	subi	r18, 0x9F	; 159
    583e:	3d 4f       	sbci	r19, 0xFD	; 253
    5840:	8b 85       	ldd	r24, Y+11	; 0x0b
    5842:	9c 85       	ldd	r25, Y+12	; 0x0c
    5844:	ad 85       	ldd	r26, Y+13	; 0x0d
    5846:	be 85       	ldd	r27, Y+14	; 0x0e
    5848:	f9 01       	movw	r30, r18
    584a:	80 83       	st	Z, r24
    584c:	91 83       	std	Z+1, r25	; 0x01
    584e:	a2 83       	std	Z+2, r26	; 0x02
    5850:	b3 83       	std	Z+3, r27	; 0x03
            return(1);//OK
    5852:	81 e0       	ldi	r24, 0x01	; 1
    5854:	2d c0       	rjmp	.+90     	; 0x58b0 <arp_request+0x28a>
        }
        for(a=0;a<10000;a++)
    5856:	1a 82       	std	Y+2, r1	; 0x02
    5858:	1b 82       	std	Y+3, r1	; 0x03
    585a:	1c 82       	std	Y+4, r1	; 0x04
    585c:	1d 82       	std	Y+5, r1	; 0x05
    585e:	0c c0       	rjmp	.+24     	; 0x5878 <arp_request+0x252>
        {
            asm("nop");
    5860:	00 00       	nop
            DEBUG("ARP EINTRAG GEFUNDEN!\r\n");
            if (index_tmp < MAX_ARP_ENTRY) return(1);//OK
            arp_entry[index].arp_t_ip = dest_ip_store;
            return(1);//OK
        }
        for(a=0;a<10000;a++)
    5862:	8a 81       	ldd	r24, Y+2	; 0x02
    5864:	9b 81       	ldd	r25, Y+3	; 0x03
    5866:	ac 81       	ldd	r26, Y+4	; 0x04
    5868:	bd 81       	ldd	r27, Y+5	; 0x05
    586a:	01 96       	adiw	r24, 0x01	; 1
    586c:	a1 1d       	adc	r26, r1
    586e:	b1 1d       	adc	r27, r1
    5870:	8a 83       	std	Y+2, r24	; 0x02
    5872:	9b 83       	std	Y+3, r25	; 0x03
    5874:	ac 83       	std	Y+4, r26	; 0x04
    5876:	bd 83       	std	Y+5, r27	; 0x05
    5878:	8a 81       	ldd	r24, Y+2	; 0x02
    587a:	9b 81       	ldd	r25, Y+3	; 0x03
    587c:	ac 81       	ldd	r26, Y+4	; 0x04
    587e:	bd 81       	ldd	r27, Y+5	; 0x05
    5880:	80 31       	cpi	r24, 0x10	; 16
    5882:	97 42       	sbci	r25, 0x27	; 39
    5884:	a1 05       	cpc	r26, r1
    5886:	b1 05       	cpc	r27, r1
    5888:	58 f3       	brcs	.-42     	; 0x5860 <arp_request+0x23a>
        {
            asm("nop");
        }
        eth_get_data();
    588a:	0e 94 9d 25 	call	0x4b3a	; 0x4b3a <eth_get_data>
        DEBUG("**KEINEN ARP EINTRAG GEFUNDEN**\r\n");
    588e:	8b eb       	ldi	r24, 0xBB	; 187
    5890:	90 e2       	ldi	r25, 0x20	; 32
    5892:	29 2f       	mov	r18, r25
    5894:	2f 93       	push	r18
    5896:	8f 93       	push	r24
    5898:	0e 94 31 3a 	call	0x7462	; 0x7462 <usart_write_P>
    589c:	0f 90       	pop	r0
    589e:	0f 90       	pop	r0
    arp->ARP_Op     = HTONS(0x0001);

    ETH_PACKET_SEND(ARP_REQUEST_LEN, buffer);        //send....
	eth.no_reset	 = 1;	
  
    for(count = 0; count<20; count++)
    58a0:	89 81       	ldd	r24, Y+1	; 0x01
    58a2:	8f 5f       	subi	r24, 0xFF	; 255
    58a4:	89 83       	std	Y+1, r24	; 0x01
    58a6:	89 81       	ldd	r24, Y+1	; 0x01
    58a8:	84 31       	cpi	r24, 0x14	; 20
    58aa:	08 f4       	brcc	.+2      	; 0x58ae <arp_request+0x288>
    58ac:	94 cf       	rjmp	.-216    	; 0x57d6 <arp_request+0x1b0>
            asm("nop");
        }
        eth_get_data();
        DEBUG("**KEINEN ARP EINTRAG GEFUNDEN**\r\n");
    }
    return(0);//keine Antwort
    58ae:	80 e0       	ldi	r24, 0x00	; 0
}
    58b0:	ed 96       	adiw	r28, 0x3d	; 61
    58b2:	0f b6       	in	r0, 0x3f	; 63
    58b4:	f8 94       	cli
    58b6:	de bf       	out	0x3e, r29	; 62
    58b8:	0f be       	out	0x3f, r0	; 63
    58ba:	cd bf       	out	0x3d, r28	; 61
    58bc:	df 91       	pop	r29
    58be:	cf 91       	pop	r28
    58c0:	08 95       	ret

000058c2 <icmp_send>:
//----------------------------------------------------------------------------
//Diese Routine erzeugt ein neues ICMP Packet
void icmp_send (unsigned long dest_ip, unsigned char icmp_type, 
                unsigned char icmp_code, unsigned int icmp_sn, 
                unsigned int icmp_id)
{
    58c2:	ef 92       	push	r14
    58c4:	ff 92       	push	r15
    58c6:	0f 93       	push	r16
    58c8:	1f 93       	push	r17
    58ca:	cf 93       	push	r28
    58cc:	df 93       	push	r29
    58ce:	cd b7       	in	r28, 0x3d	; 61
    58d0:	de b7       	in	r29, 0x3e	; 62
    58d2:	60 97       	sbiw	r28, 0x10	; 16
    58d4:	0f b6       	in	r0, 0x3f	; 63
    58d6:	f8 94       	cli
    58d8:	de bf       	out	0x3e, r29	; 62
    58da:	0f be       	out	0x3f, r0	; 63
    58dc:	cd bf       	out	0x3d, r28	; 61
    58de:	6f 83       	std	Y+7, r22	; 0x07
    58e0:	78 87       	std	Y+8, r23	; 0x08
    58e2:	89 87       	std	Y+9, r24	; 0x09
    58e4:	9a 87       	std	Y+10, r25	; 0x0a
    58e6:	4b 87       	std	Y+11, r20	; 0x0b
    58e8:	2c 87       	std	Y+12, r18	; 0x0c
    58ea:	1e 87       	std	Y+14, r17	; 0x0e
    58ec:	0d 87       	std	Y+13, r16	; 0x0d
    58ee:	f8 8a       	std	Y+16, r15	; 0x10
    58f0:	ef 86       	std	Y+15, r14	; 0x0f
    unsigned int result16;  //Checksum
    struct IP_Header   *ip;
    struct ICMP_Header *icmp;

    ip   = (struct IP_Header   *)&eth_buffer[IP_OFFSET];
    58f2:	8b e4       	ldi	r24, 0x4B	; 75
    58f4:	93 e0       	ldi	r25, 0x03	; 3
    58f6:	9a 83       	std	Y+2, r25	; 0x02
    58f8:	89 83       	std	Y+1, r24	; 0x01
    icmp = (struct ICMP_Header *)&eth_buffer[ICMP_OFFSET];
    58fa:	8f e5       	ldi	r24, 0x5F	; 95
    58fc:	93 e0       	ldi	r25, 0x03	; 3
    58fe:	9c 83       	std	Y+4, r25	; 0x04
    5900:	8b 83       	std	Y+3, r24	; 0x03

    //Das ist ein Echo Reply Packet
    icmp->ICMP_Type   = icmp_type;
    5902:	8b 81       	ldd	r24, Y+3	; 0x03
    5904:	9c 81       	ldd	r25, Y+4	; 0x04
    5906:	2b 85       	ldd	r18, Y+11	; 0x0b
    5908:	fc 01       	movw	r30, r24
    590a:	20 83       	st	Z, r18
    icmp->ICMP_Code   = icmp_code;
    590c:	8b 81       	ldd	r24, Y+3	; 0x03
    590e:	9c 81       	ldd	r25, Y+4	; 0x04
    5910:	2c 85       	ldd	r18, Y+12	; 0x0c
    5912:	fc 01       	movw	r30, r24
    5914:	21 83       	std	Z+1, r18	; 0x01
    icmp->ICMP_Id     = icmp_id;
    5916:	8b 81       	ldd	r24, Y+3	; 0x03
    5918:	9c 81       	ldd	r25, Y+4	; 0x04
    591a:	2f 85       	ldd	r18, Y+15	; 0x0f
    591c:	38 89       	ldd	r19, Y+16	; 0x10
    591e:	fc 01       	movw	r30, r24
    5920:	35 83       	std	Z+5, r19	; 0x05
    5922:	24 83       	std	Z+4, r18	; 0x04
    icmp->ICMP_SeqNum = icmp_sn;
    5924:	8b 81       	ldd	r24, Y+3	; 0x03
    5926:	9c 81       	ldd	r25, Y+4	; 0x04
    5928:	2d 85       	ldd	r18, Y+13	; 0x0d
    592a:	3e 85       	ldd	r19, Y+14	; 0x0e
    592c:	fc 01       	movw	r30, r24
    592e:	37 83       	std	Z+7, r19	; 0x07
    5930:	26 83       	std	Z+6, r18	; 0x06
    icmp->ICMP_Cksum  = 0;
    5932:	8b 81       	ldd	r24, Y+3	; 0x03
    5934:	9c 81       	ldd	r25, Y+4	; 0x04
    5936:	fc 01       	movw	r30, r24
    5938:	13 82       	std	Z+3, r1	; 0x03
    593a:	12 82       	std	Z+2, r1	; 0x02
    ip->IP_Pktlen     = HTONS(0x0054);   // 0x54 = 84 
    593c:	89 81       	ldd	r24, Y+1	; 0x01
    593e:	9a 81       	ldd	r25, Y+2	; 0x02
    5940:	20 e0       	ldi	r18, 0x00	; 0
    5942:	34 e5       	ldi	r19, 0x54	; 84
    5944:	fc 01       	movw	r30, r24
    5946:	33 83       	std	Z+3, r19	; 0x03
    5948:	22 83       	std	Z+2, r18	; 0x02
    ip->IP_Proto      = PROT_ICMP;
    594a:	89 81       	ldd	r24, Y+1	; 0x01
    594c:	9a 81       	ldd	r25, Y+2	; 0x02
    594e:	21 e0       	ldi	r18, 0x01	; 1
    5950:	fc 01       	movw	r30, r24
    5952:	21 87       	std	Z+9, r18	; 0x09
    make_ip_header (eth_buffer,dest_ip);
    5954:	8f 81       	ldd	r24, Y+7	; 0x07
    5956:	98 85       	ldd	r25, Y+8	; 0x08
    5958:	a9 85       	ldd	r26, Y+9	; 0x09
    595a:	ba 85       	ldd	r27, Y+10	; 0x0a
    595c:	ac 01       	movw	r20, r24
    595e:	bd 01       	movw	r22, r26
    5960:	8d e3       	ldi	r24, 0x3D	; 61
    5962:	93 e0       	ldi	r25, 0x03	; 3
    5964:	0e 94 ac 2d 	call	0x5b58	; 0x5b58 <make_ip_header>

    //Berechnung der ICMP Header lnge
    result16 = htons(ip->IP_Pktlen);
    5968:	89 81       	ldd	r24, Y+1	; 0x01
    596a:	9a 81       	ldd	r25, Y+2	; 0x02
    596c:	fc 01       	movw	r30, r24
    596e:	82 81       	ldd	r24, Z+2	; 0x02
    5970:	93 81       	ldd	r25, Z+3	; 0x03
    5972:	0e 94 5b 21 	call	0x42b6	; 0x42b6 <htons>
    5976:	9e 83       	std	Y+6, r25	; 0x06
    5978:	8d 83       	std	Y+5, r24	; 0x05
    result16 = result16 - ((ip->IP_Vers_Len & 0x0F) << 2);
    597a:	89 81       	ldd	r24, Y+1	; 0x01
    597c:	9a 81       	ldd	r25, Y+2	; 0x02
    597e:	fc 01       	movw	r30, r24
    5980:	80 81       	ld	r24, Z
    5982:	88 2f       	mov	r24, r24
    5984:	90 e0       	ldi	r25, 0x00	; 0
    5986:	8f 70       	andi	r24, 0x0F	; 15
    5988:	99 27       	eor	r25, r25
    598a:	88 0f       	add	r24, r24
    598c:	99 1f       	adc	r25, r25
    598e:	88 0f       	add	r24, r24
    5990:	99 1f       	adc	r25, r25
    5992:	9c 01       	movw	r18, r24
    5994:	8d 81       	ldd	r24, Y+5	; 0x05
    5996:	9e 81       	ldd	r25, Y+6	; 0x06
    5998:	82 1b       	sub	r24, r18
    599a:	93 0b       	sbc	r25, r19
    599c:	9e 83       	std	Y+6, r25	; 0x06
    599e:	8d 83       	std	Y+5, r24	; 0x05

    //pointer wird auf das erste Paket im ICMP Header gesetzt
    //jetzt wird die Checksumme berechnet
    result16 = checksum (&icmp->ICMP_Type, result16, 0);
    59a0:	8b 81       	ldd	r24, Y+3	; 0x03
    59a2:	9c 81       	ldd	r25, Y+4	; 0x04
    59a4:	6d 81       	ldd	r22, Y+5	; 0x05
    59a6:	7e 81       	ldd	r23, Y+6	; 0x06
    59a8:	20 e0       	ldi	r18, 0x00	; 0
    59aa:	30 e0       	ldi	r19, 0x00	; 0
    59ac:	a9 01       	movw	r20, r18
    59ae:	0e 94 fd 2c 	call	0x59fa	; 0x59fa <checksum>
    59b2:	9e 83       	std	Y+6, r25	; 0x06
    59b4:	8d 83       	std	Y+5, r24	; 0x05
  
    //schreibt Checksumme ins Packet
    icmp->ICMP_Cksum = htons(result16);
    59b6:	8d 81       	ldd	r24, Y+5	; 0x05
    59b8:	9e 81       	ldd	r25, Y+6	; 0x06
    59ba:	0e 94 5b 21 	call	0x42b6	; 0x42b6 <htons>
    59be:	9c 01       	movw	r18, r24
    59c0:	8b 81       	ldd	r24, Y+3	; 0x03
    59c2:	9c 81       	ldd	r25, Y+4	; 0x04
    59c4:	fc 01       	movw	r30, r24
    59c6:	33 83       	std	Z+3, r19	; 0x03
    59c8:	22 83       	std	Z+2, r18	; 0x02
  
    //Sendet das erzeugte ICMP Packet 
    ETH_PACKET_SEND(ICMP_REPLY_LEN,eth_buffer);
    59ca:	6d e3       	ldi	r22, 0x3D	; 61
    59cc:	73 e0       	ldi	r23, 0x03	; 3
    59ce:	82 e6       	ldi	r24, 0x62	; 98
    59d0:	90 e0       	ldi	r25, 0x00	; 0
    59d2:	0e 94 c5 1c 	call	0x398a	; 0x398a <enc_send_packet>
	eth.no_reset	 = 1;	
    59d6:	80 91 97 02 	lds	r24, 0x0297	; 0x800297 <eth>
    59da:	84 60       	ori	r24, 0x04	; 4
    59dc:	80 93 97 02 	sts	0x0297, r24	; 0x800297 <eth>
}
    59e0:	60 96       	adiw	r28, 0x10	; 16
    59e2:	0f b6       	in	r0, 0x3f	; 63
    59e4:	f8 94       	cli
    59e6:	de bf       	out	0x3e, r29	; 62
    59e8:	0f be       	out	0x3f, r0	; 63
    59ea:	cd bf       	out	0x3d, r28	; 61
    59ec:	df 91       	pop	r29
    59ee:	cf 91       	pop	r28
    59f0:	1f 91       	pop	r17
    59f2:	0f 91       	pop	r16
    59f4:	ff 90       	pop	r15
    59f6:	ef 90       	pop	r14
    59f8:	08 95       	ret

000059fa <checksum>:

//----------------------------------------------------------------------------
//Diese Routine erzeugt eine Cecksumme
unsigned int checksum (unsigned char *pointer,unsigned int result16,unsigned long result32)
{
    59fa:	cf 93       	push	r28
    59fc:	df 93       	push	r29
    59fe:	cd b7       	in	r28, 0x3d	; 61
    5a00:	de b7       	in	r29, 0x3e	; 62
    5a02:	2c 97       	sbiw	r28, 0x0c	; 12
    5a04:	0f b6       	in	r0, 0x3f	; 63
    5a06:	f8 94       	cli
    5a08:	de bf       	out	0x3e, r29	; 62
    5a0a:	0f be       	out	0x3f, r0	; 63
    5a0c:	cd bf       	out	0x3d, r28	; 61
    5a0e:	9e 83       	std	Y+6, r25	; 0x06
    5a10:	8d 83       	std	Y+5, r24	; 0x05
    5a12:	78 87       	std	Y+8, r23	; 0x08
    5a14:	6f 83       	std	Y+7, r22	; 0x07
    5a16:	29 87       	std	Y+9, r18	; 0x09
    5a18:	3a 87       	std	Y+10, r19	; 0x0a
    5a1a:	4b 87       	std	Y+11, r20	; 0x0b
    5a1c:	5c 87       	std	Y+12, r21	; 0x0c
	unsigned int result16_1 = 0x0000;
    5a1e:	1a 82       	std	Y+2, r1	; 0x02
    5a20:	19 82       	std	Y+1, r1	; 0x01
	unsigned char DataH;
	unsigned char DataL;
	
	//Jetzt werden alle Packete in einer While Schleife addiert
	while(result16 > 1)
    5a22:	36 c0       	rjmp	.+108    	; 0x5a90 <checksum+0x96>
	{
		//schreibt Inhalt Pointer nach DATAH danach inc Pointer
		DataH=*pointer++;
    5a24:	8d 81       	ldd	r24, Y+5	; 0x05
    5a26:	9e 81       	ldd	r25, Y+6	; 0x06
    5a28:	9c 01       	movw	r18, r24
    5a2a:	2f 5f       	subi	r18, 0xFF	; 255
    5a2c:	3f 4f       	sbci	r19, 0xFF	; 255
    5a2e:	3e 83       	std	Y+6, r19	; 0x06
    5a30:	2d 83       	std	Y+5, r18	; 0x05
    5a32:	fc 01       	movw	r30, r24
    5a34:	80 81       	ld	r24, Z
    5a36:	8b 83       	std	Y+3, r24	; 0x03

		//schreibt Inhalt Pointer nach DATAL danach inc Pointer
		DataL=*pointer++;
    5a38:	8d 81       	ldd	r24, Y+5	; 0x05
    5a3a:	9e 81       	ldd	r25, Y+6	; 0x06
    5a3c:	9c 01       	movw	r18, r24
    5a3e:	2f 5f       	subi	r18, 0xFF	; 255
    5a40:	3f 4f       	sbci	r19, 0xFF	; 255
    5a42:	3e 83       	std	Y+6, r19	; 0x06
    5a44:	2d 83       	std	Y+5, r18	; 0x05
    5a46:	fc 01       	movw	r30, r24
    5a48:	80 81       	ld	r24, Z
    5a4a:	8c 83       	std	Y+4, r24	; 0x04

		//erzeugt Int aus Data L und Data H
		result16_1 = ((DataH << 8)+DataL);
    5a4c:	8b 81       	ldd	r24, Y+3	; 0x03
    5a4e:	88 2f       	mov	r24, r24
    5a50:	90 e0       	ldi	r25, 0x00	; 0
    5a52:	38 2f       	mov	r19, r24
    5a54:	22 27       	eor	r18, r18
    5a56:	8c 81       	ldd	r24, Y+4	; 0x04
    5a58:	88 2f       	mov	r24, r24
    5a5a:	90 e0       	ldi	r25, 0x00	; 0
    5a5c:	82 0f       	add	r24, r18
    5a5e:	93 1f       	adc	r25, r19
    5a60:	9a 83       	std	Y+2, r25	; 0x02
    5a62:	89 83       	std	Y+1, r24	; 0x01
		//Addiert packet mit vorherigen
		result32 = result32 + result16_1;
    5a64:	89 81       	ldd	r24, Y+1	; 0x01
    5a66:	9a 81       	ldd	r25, Y+2	; 0x02
    5a68:	cc 01       	movw	r24, r24
    5a6a:	a0 e0       	ldi	r26, 0x00	; 0
    5a6c:	b0 e0       	ldi	r27, 0x00	; 0
    5a6e:	29 85       	ldd	r18, Y+9	; 0x09
    5a70:	3a 85       	ldd	r19, Y+10	; 0x0a
    5a72:	4b 85       	ldd	r20, Y+11	; 0x0b
    5a74:	5c 85       	ldd	r21, Y+12	; 0x0c
    5a76:	82 0f       	add	r24, r18
    5a78:	93 1f       	adc	r25, r19
    5a7a:	a4 1f       	adc	r26, r20
    5a7c:	b5 1f       	adc	r27, r21
    5a7e:	89 87       	std	Y+9, r24	; 0x09
    5a80:	9a 87       	std	Y+10, r25	; 0x0a
    5a82:	ab 87       	std	Y+11, r26	; 0x0b
    5a84:	bc 87       	std	Y+12, r27	; 0x0c
		//decrimiert Lnge von TCP Headerschleife um 2
		result16 -=2;
    5a86:	8f 81       	ldd	r24, Y+7	; 0x07
    5a88:	98 85       	ldd	r25, Y+8	; 0x08
    5a8a:	02 97       	sbiw	r24, 0x02	; 2
    5a8c:	98 87       	std	Y+8, r25	; 0x08
    5a8e:	8f 83       	std	Y+7, r24	; 0x07
	unsigned int result16_1 = 0x0000;
	unsigned char DataH;
	unsigned char DataL;
	
	//Jetzt werden alle Packete in einer While Schleife addiert
	while(result16 > 1)
    5a90:	8f 81       	ldd	r24, Y+7	; 0x07
    5a92:	98 85       	ldd	r25, Y+8	; 0x08
    5a94:	02 97       	sbiw	r24, 0x02	; 2
    5a96:	30 f6       	brcc	.-116    	; 0x5a24 <checksum+0x2a>
		//decrimiert Lnge von TCP Headerschleife um 2
		result16 -=2;
	}

	//Ist der Wert result16 ungerade ist DataL = 0
	if(result16 > 0)
    5a98:	8f 81       	ldd	r24, Y+7	; 0x07
    5a9a:	98 85       	ldd	r25, Y+8	; 0x08
    5a9c:	89 2b       	or	r24, r25
    5a9e:	e9 f0       	breq	.+58     	; 0x5ada <checksum+0xe0>
	{
		//schreibt Inhalt Pointer nach DATAH danach inc Pointer
		DataH=*pointer;
    5aa0:	8d 81       	ldd	r24, Y+5	; 0x05
    5aa2:	9e 81       	ldd	r25, Y+6	; 0x06
    5aa4:	fc 01       	movw	r30, r24
    5aa6:	80 81       	ld	r24, Z
    5aa8:	8b 83       	std	Y+3, r24	; 0x03
		//erzeugt Int aus Data L ist 0 (ist nicht in der Berechnung) und Data H
		result16_1 = (DataH << 8);
    5aaa:	8b 81       	ldd	r24, Y+3	; 0x03
    5aac:	88 2f       	mov	r24, r24
    5aae:	90 e0       	ldi	r25, 0x00	; 0
    5ab0:	98 2f       	mov	r25, r24
    5ab2:	88 27       	eor	r24, r24
    5ab4:	9a 83       	std	Y+2, r25	; 0x02
    5ab6:	89 83       	std	Y+1, r24	; 0x01
		//Addiert packet mit vorherigen
		result32 = result32 + result16_1;
    5ab8:	89 81       	ldd	r24, Y+1	; 0x01
    5aba:	9a 81       	ldd	r25, Y+2	; 0x02
    5abc:	cc 01       	movw	r24, r24
    5abe:	a0 e0       	ldi	r26, 0x00	; 0
    5ac0:	b0 e0       	ldi	r27, 0x00	; 0
    5ac2:	29 85       	ldd	r18, Y+9	; 0x09
    5ac4:	3a 85       	ldd	r19, Y+10	; 0x0a
    5ac6:	4b 85       	ldd	r20, Y+11	; 0x0b
    5ac8:	5c 85       	ldd	r21, Y+12	; 0x0c
    5aca:	82 0f       	add	r24, r18
    5acc:	93 1f       	adc	r25, r19
    5ace:	a4 1f       	adc	r26, r20
    5ad0:	b5 1f       	adc	r27, r21
    5ad2:	89 87       	std	Y+9, r24	; 0x09
    5ad4:	9a 87       	std	Y+10, r25	; 0x0a
    5ad6:	ab 87       	std	Y+11, r26	; 0x0b
    5ad8:	bc 87       	std	Y+12, r27	; 0x0c
	}
	
	//Komplementbildung (addiert Long INT_H Byte mit Long INT L Byte)
	result32 = ((result32 & 0x0000FFFF)+ ((result32 & 0xFFFF0000) >> 16));
    5ada:	89 85       	ldd	r24, Y+9	; 0x09
    5adc:	9a 85       	ldd	r25, Y+10	; 0x0a
    5ade:	ab 85       	ldd	r26, Y+11	; 0x0b
    5ae0:	bc 85       	ldd	r27, Y+12	; 0x0c
    5ae2:	9c 01       	movw	r18, r24
    5ae4:	ad 01       	movw	r20, r26
    5ae6:	44 27       	eor	r20, r20
    5ae8:	55 27       	eor	r21, r21
    5aea:	89 85       	ldd	r24, Y+9	; 0x09
    5aec:	9a 85       	ldd	r25, Y+10	; 0x0a
    5aee:	ab 85       	ldd	r26, Y+11	; 0x0b
    5af0:	bc 85       	ldd	r27, Y+12	; 0x0c
    5af2:	cd 01       	movw	r24, r26
    5af4:	aa 27       	eor	r26, r26
    5af6:	bb 27       	eor	r27, r27
    5af8:	82 0f       	add	r24, r18
    5afa:	93 1f       	adc	r25, r19
    5afc:	a4 1f       	adc	r26, r20
    5afe:	b5 1f       	adc	r27, r21
    5b00:	89 87       	std	Y+9, r24	; 0x09
    5b02:	9a 87       	std	Y+10, r25	; 0x0a
    5b04:	ab 87       	std	Y+11, r26	; 0x0b
    5b06:	bc 87       	std	Y+12, r27	; 0x0c
	result32 = ((result32 & 0x0000FFFF)+ ((result32 & 0xFFFF0000) >> 16));	
    5b08:	89 85       	ldd	r24, Y+9	; 0x09
    5b0a:	9a 85       	ldd	r25, Y+10	; 0x0a
    5b0c:	ab 85       	ldd	r26, Y+11	; 0x0b
    5b0e:	bc 85       	ldd	r27, Y+12	; 0x0c
    5b10:	9c 01       	movw	r18, r24
    5b12:	ad 01       	movw	r20, r26
    5b14:	44 27       	eor	r20, r20
    5b16:	55 27       	eor	r21, r21
    5b18:	89 85       	ldd	r24, Y+9	; 0x09
    5b1a:	9a 85       	ldd	r25, Y+10	; 0x0a
    5b1c:	ab 85       	ldd	r26, Y+11	; 0x0b
    5b1e:	bc 85       	ldd	r27, Y+12	; 0x0c
    5b20:	cd 01       	movw	r24, r26
    5b22:	aa 27       	eor	r26, r26
    5b24:	bb 27       	eor	r27, r27
    5b26:	82 0f       	add	r24, r18
    5b28:	93 1f       	adc	r25, r19
    5b2a:	a4 1f       	adc	r26, r20
    5b2c:	b5 1f       	adc	r27, r21
    5b2e:	89 87       	std	Y+9, r24	; 0x09
    5b30:	9a 87       	std	Y+10, r25	; 0x0a
    5b32:	ab 87       	std	Y+11, r26	; 0x0b
    5b34:	bc 87       	std	Y+12, r27	; 0x0c
	result16 =~(result32 & 0x0000FFFF);
    5b36:	89 85       	ldd	r24, Y+9	; 0x09
    5b38:	9a 85       	ldd	r25, Y+10	; 0x0a
    5b3a:	80 95       	com	r24
    5b3c:	90 95       	com	r25
    5b3e:	98 87       	std	Y+8, r25	; 0x08
    5b40:	8f 83       	std	Y+7, r24	; 0x07
	
	return (result16);
    5b42:	8f 81       	ldd	r24, Y+7	; 0x07
    5b44:	98 85       	ldd	r25, Y+8	; 0x08
}
    5b46:	2c 96       	adiw	r28, 0x0c	; 12
    5b48:	0f b6       	in	r0, 0x3f	; 63
    5b4a:	f8 94       	cli
    5b4c:	de bf       	out	0x3e, r29	; 62
    5b4e:	0f be       	out	0x3f, r0	; 63
    5b50:	cd bf       	out	0x3d, r28	; 61
    5b52:	df 91       	pop	r29
    5b54:	cf 91       	pop	r28
    5b56:	08 95       	ret

00005b58 <make_ip_header>:

//----------------------------------------------------------------------------
//Diese Routine erzeugt ein IP Packet
void make_ip_header (unsigned char *buffer,unsigned long dest_ip)
{
    5b58:	cf 93       	push	r28
    5b5a:	df 93       	push	r29
    5b5c:	cd b7       	in	r28, 0x3d	; 61
    5b5e:	de b7       	in	r29, 0x3e	; 62
    5b60:	2c 97       	sbiw	r28, 0x0c	; 12
    5b62:	0f b6       	in	r0, 0x3f	; 63
    5b64:	f8 94       	cli
    5b66:	de bf       	out	0x3e, r29	; 62
    5b68:	0f be       	out	0x3f, r0	; 63
    5b6a:	cd bf       	out	0x3d, r28	; 61
    5b6c:	98 87       	std	Y+8, r25	; 0x08
    5b6e:	8f 83       	std	Y+7, r24	; 0x07
    5b70:	49 87       	std	Y+9, r20	; 0x09
    5b72:	5a 87       	std	Y+10, r21	; 0x0a
    5b74:	6b 87       	std	Y+11, r22	; 0x0b
    5b76:	7c 87       	std	Y+12, r23	; 0x0c
    unsigned int result16;  //Checksum
    struct Ethernet_Header *ethernet;
    struct IP_Header       *ip;

    ethernet = (struct Ethernet_Header *)&buffer[ETHER_OFFSET];
    5b78:	8f 81       	ldd	r24, Y+7	; 0x07
    5b7a:	98 85       	ldd	r25, Y+8	; 0x08
    5b7c:	9a 83       	std	Y+2, r25	; 0x02
    5b7e:	89 83       	std	Y+1, r24	; 0x01
    ip       = (struct IP_Header       *)&buffer[IP_OFFSET];
    5b80:	8f 81       	ldd	r24, Y+7	; 0x07
    5b82:	98 85       	ldd	r25, Y+8	; 0x08
    5b84:	0e 96       	adiw	r24, 0x0e	; 14
    5b86:	9c 83       	std	Y+4, r25	; 0x04
    5b88:	8b 83       	std	Y+3, r24	; 0x03

    new_eth_header (buffer, dest_ip);         //Erzeugt einen neuen Ethernetheader
    5b8a:	89 85       	ldd	r24, Y+9	; 0x09
    5b8c:	9a 85       	ldd	r25, Y+10	; 0x0a
    5b8e:	ab 85       	ldd	r26, Y+11	; 0x0b
    5b90:	bc 85       	ldd	r27, Y+12	; 0x0c
    5b92:	2f 81       	ldd	r18, Y+7	; 0x07
    5b94:	38 85       	ldd	r19, Y+8	; 0x08
    5b96:	ac 01       	movw	r20, r24
    5b98:	bd 01       	movw	r22, r26
    5b9a:	c9 01       	movw	r24, r18
    5b9c:	0e 94 87 29 	call	0x530e	; 0x530e <new_eth_header>
    ethernet->EnetPacketType = HTONS(0x0800); //Nutzlast 0x0800=IP
    5ba0:	89 81       	ldd	r24, Y+1	; 0x01
    5ba2:	9a 81       	ldd	r25, Y+2	; 0x02
    5ba4:	28 e0       	ldi	r18, 0x08	; 8
    5ba6:	30 e0       	ldi	r19, 0x00	; 0
    5ba8:	fc 01       	movw	r30, r24
    5baa:	35 87       	std	Z+13, r19	; 0x0d
    5bac:	24 87       	std	Z+12, r18	; 0x0c

    IP_id_counter++;
    5bae:	80 91 f2 01 	lds	r24, 0x01F2	; 0x8001f2 <IP_id_counter>
    5bb2:	90 91 f3 01 	lds	r25, 0x01F3	; 0x8001f3 <IP_id_counter+0x1>
    5bb6:	01 96       	adiw	r24, 0x01	; 1
    5bb8:	90 93 f3 01 	sts	0x01F3, r25	; 0x8001f3 <IP_id_counter+0x1>
    5bbc:	80 93 f2 01 	sts	0x01F2, r24	; 0x8001f2 <IP_id_counter>

    ip->IP_Frag_Offset = 0x0040;  //don't fragment
    5bc0:	8b 81       	ldd	r24, Y+3	; 0x03
    5bc2:	9c 81       	ldd	r25, Y+4	; 0x04
    5bc4:	20 e4       	ldi	r18, 0x40	; 64
    5bc6:	30 e0       	ldi	r19, 0x00	; 0
    5bc8:	fc 01       	movw	r30, r24
    5bca:	37 83       	std	Z+7, r19	; 0x07
    5bcc:	26 83       	std	Z+6, r18	; 0x06
    ip->IP_ttl         = 128;      //max. hops
    5bce:	8b 81       	ldd	r24, Y+3	; 0x03
    5bd0:	9c 81       	ldd	r25, Y+4	; 0x04
    5bd2:	20 e8       	ldi	r18, 0x80	; 128
    5bd4:	fc 01       	movw	r30, r24
    5bd6:	20 87       	std	Z+8, r18	; 0x08
    ip->IP_Id          = htons(IP_id_counter);
    5bd8:	80 91 f2 01 	lds	r24, 0x01F2	; 0x8001f2 <IP_id_counter>
    5bdc:	90 91 f3 01 	lds	r25, 0x01F3	; 0x8001f3 <IP_id_counter+0x1>
    5be0:	0e 94 5b 21 	call	0x42b6	; 0x42b6 <htons>
    5be4:	9c 01       	movw	r18, r24
    5be6:	8b 81       	ldd	r24, Y+3	; 0x03
    5be8:	9c 81       	ldd	r25, Y+4	; 0x04
    5bea:	fc 01       	movw	r30, r24
    5bec:	35 83       	std	Z+5, r19	; 0x05
    5bee:	24 83       	std	Z+4, r18	; 0x04
    ip->IP_Vers_Len    = 0x45;  //4 BIT Die Versionsnummer von IP, 
    5bf0:	8b 81       	ldd	r24, Y+3	; 0x03
    5bf2:	9c 81       	ldd	r25, Y+4	; 0x04
    5bf4:	25 e4       	ldi	r18, 0x45	; 69
    5bf6:	fc 01       	movw	r30, r24
    5bf8:	20 83       	st	Z, r18
    ip->IP_Tos         = 0;
    5bfa:	8b 81       	ldd	r24, Y+3	; 0x03
    5bfc:	9c 81       	ldd	r25, Y+4	; 0x04
    5bfe:	fc 01       	movw	r30, r24
    5c00:	11 82       	std	Z+1, r1	; 0x01
    ip->IP_Destaddr     = dest_ip;
    5c02:	2b 81       	ldd	r18, Y+3	; 0x03
    5c04:	3c 81       	ldd	r19, Y+4	; 0x04
    5c06:	89 85       	ldd	r24, Y+9	; 0x09
    5c08:	9a 85       	ldd	r25, Y+10	; 0x0a
    5c0a:	ab 85       	ldd	r26, Y+11	; 0x0b
    5c0c:	bc 85       	ldd	r27, Y+12	; 0x0c
    5c0e:	f9 01       	movw	r30, r18
    5c10:	80 8b       	std	Z+16, r24	; 0x10
    5c12:	91 8b       	std	Z+17, r25	; 0x11
    5c14:	a2 8b       	std	Z+18, r26	; 0x12
    5c16:	b3 8b       	std	Z+19, r27	; 0x13
    ip->IP_Srcaddr     = *((unsigned long *)&myip[0]);
    5c18:	8e e9       	ldi	r24, 0x9E	; 158
    5c1a:	95 e0       	ldi	r25, 0x05	; 5
    5c1c:	fc 01       	movw	r30, r24
    5c1e:	80 81       	ld	r24, Z
    5c20:	91 81       	ldd	r25, Z+1	; 0x01
    5c22:	a2 81       	ldd	r26, Z+2	; 0x02
    5c24:	b3 81       	ldd	r27, Z+3	; 0x03
    5c26:	2b 81       	ldd	r18, Y+3	; 0x03
    5c28:	3c 81       	ldd	r19, Y+4	; 0x04
    5c2a:	f9 01       	movw	r30, r18
    5c2c:	84 87       	std	Z+12, r24	; 0x0c
    5c2e:	95 87       	std	Z+13, r25	; 0x0d
    5c30:	a6 87       	std	Z+14, r26	; 0x0e
    5c32:	b7 87       	std	Z+15, r27	; 0x0f
    ip->IP_Hdr_Cksum   = 0;
    5c34:	8b 81       	ldd	r24, Y+3	; 0x03
    5c36:	9c 81       	ldd	r25, Y+4	; 0x04
    5c38:	fc 01       	movw	r30, r24
    5c3a:	13 86       	std	Z+11, r1	; 0x0b
    5c3c:	12 86       	std	Z+10, r1	; 0x0a
  
    //Berechnung der IP Header lnge  
    result16 = (ip->IP_Vers_Len & 0x0F) << 2;
    5c3e:	8b 81       	ldd	r24, Y+3	; 0x03
    5c40:	9c 81       	ldd	r25, Y+4	; 0x04
    5c42:	fc 01       	movw	r30, r24
    5c44:	80 81       	ld	r24, Z
    5c46:	88 2f       	mov	r24, r24
    5c48:	90 e0       	ldi	r25, 0x00	; 0
    5c4a:	8f 70       	andi	r24, 0x0F	; 15
    5c4c:	99 27       	eor	r25, r25
    5c4e:	88 0f       	add	r24, r24
    5c50:	99 1f       	adc	r25, r25
    5c52:	88 0f       	add	r24, r24
    5c54:	99 1f       	adc	r25, r25
    5c56:	9e 83       	std	Y+6, r25	; 0x06
    5c58:	8d 83       	std	Y+5, r24	; 0x05

    //jetzt wird die Checksumme berechnet
    result16 = checksum (&ip->IP_Vers_Len, result16, 0);
    5c5a:	8b 81       	ldd	r24, Y+3	; 0x03
    5c5c:	9c 81       	ldd	r25, Y+4	; 0x04
    5c5e:	6d 81       	ldd	r22, Y+5	; 0x05
    5c60:	7e 81       	ldd	r23, Y+6	; 0x06
    5c62:	20 e0       	ldi	r18, 0x00	; 0
    5c64:	30 e0       	ldi	r19, 0x00	; 0
    5c66:	a9 01       	movw	r20, r18
    5c68:	0e 94 fd 2c 	call	0x59fa	; 0x59fa <checksum>
    5c6c:	9e 83       	std	Y+6, r25	; 0x06
    5c6e:	8d 83       	std	Y+5, r24	; 0x05

    //schreibt Checksumme ins Packet
    ip->IP_Hdr_Cksum = htons(result16);
    5c70:	8d 81       	ldd	r24, Y+5	; 0x05
    5c72:	9e 81       	ldd	r25, Y+6	; 0x06
    5c74:	0e 94 5b 21 	call	0x42b6	; 0x42b6 <htons>
    5c78:	9c 01       	movw	r18, r24
    5c7a:	8b 81       	ldd	r24, Y+3	; 0x03
    5c7c:	9c 81       	ldd	r25, Y+4	; 0x04
    5c7e:	fc 01       	movw	r30, r24
    5c80:	33 87       	std	Z+11, r19	; 0x0b
    5c82:	22 87       	std	Z+10, r18	; 0x0a
    return;
    5c84:	00 00       	nop
}
    5c86:	2c 96       	adiw	r28, 0x0c	; 12
    5c88:	0f b6       	in	r0, 0x3f	; 63
    5c8a:	f8 94       	cli
    5c8c:	de bf       	out	0x3e, r29	; 62
    5c8e:	0f be       	out	0x3f, r0	; 63
    5c90:	cd bf       	out	0x3d, r28	; 61
    5c92:	df 91       	pop	r29
    5c94:	cf 91       	pop	r28
    5c96:	08 95       	ret

00005c98 <tcp_entry_add>:

//----------------------------------------------------------------------------
//Diese Routine verwaltet TCP-Eintrge
void tcp_entry_add (unsigned char *buffer)
{
    5c98:	0f 93       	push	r16
    5c9a:	1f 93       	push	r17
    5c9c:	cf 93       	push	r28
    5c9e:	df 93       	push	r29
    5ca0:	cd b7       	in	r28, 0x3d	; 61
    5ca2:	de b7       	in	r29, 0x3e	; 62
    5ca4:	2c 97       	sbiw	r28, 0x0c	; 12
    5ca6:	0f b6       	in	r0, 0x3f	; 63
    5ca8:	f8 94       	cli
    5caa:	de bf       	out	0x3e, r29	; 62
    5cac:	0f be       	out	0x3f, r0	; 63
    5cae:	cd bf       	out	0x3d, r28	; 61
    5cb0:	9c 87       	std	Y+12, r25	; 0x0c
    5cb2:	8b 87       	std	Y+11, r24	; 0x0b
    unsigned long result32;

    struct TCP_Header *tcp;
    struct IP_Header  *ip;

    tcp = (struct TCP_Header *)&buffer[TCP_OFFSET];
    5cb4:	8b 85       	ldd	r24, Y+11	; 0x0b
    5cb6:	9c 85       	ldd	r25, Y+12	; 0x0c
    5cb8:	82 96       	adiw	r24, 0x22	; 34
    5cba:	9c 83       	std	Y+4, r25	; 0x04
    5cbc:	8b 83       	std	Y+3, r24	; 0x03
    ip  = (struct IP_Header  *)&buffer[IP_OFFSET];
    5cbe:	8b 85       	ldd	r24, Y+11	; 0x0b
    5cc0:	9c 85       	ldd	r25, Y+12	; 0x0c
    5cc2:	0e 96       	adiw	r24, 0x0e	; 14
    5cc4:	9e 83       	std	Y+6, r25	; 0x06
    5cc6:	8d 83       	std	Y+5, r24	; 0x05
  
    //Eintrag schon vorhanden?
    for (unsigned char index = 0;index<(MAX_TCP_ENTRY);index++)
    5cc8:	19 82       	std	Y+1, r1	; 0x01
    5cca:	01 c1       	rjmp	.+514    	; 0x5ece <tcp_entry_add+0x236>
    {
        if( (tcp_entry[index].ip       == ip->IP_Srcaddr  ) &&
    5ccc:	89 81       	ldd	r24, Y+1	; 0x01
    5cce:	28 2f       	mov	r18, r24
    5cd0:	30 e0       	ldi	r19, 0x00	; 0
    5cd2:	46 e1       	ldi	r20, 0x16	; 22
    5cd4:	42 9f       	mul	r20, r18
    5cd6:	c0 01       	movw	r24, r0
    5cd8:	43 9f       	mul	r20, r19
    5cda:	90 0d       	add	r25, r0
    5cdc:	11 24       	eor	r1, r1
    5cde:	83 55       	subi	r24, 0x53	; 83
    5ce0:	9d 4f       	sbci	r25, 0xFD	; 253
    5ce2:	fc 01       	movw	r30, r24
    5ce4:	20 81       	ld	r18, Z
    5ce6:	31 81       	ldd	r19, Z+1	; 0x01
    5ce8:	42 81       	ldd	r20, Z+2	; 0x02
    5cea:	53 81       	ldd	r21, Z+3	; 0x03
    5cec:	8d 81       	ldd	r24, Y+5	; 0x05
    5cee:	9e 81       	ldd	r25, Y+6	; 0x06
    5cf0:	fc 01       	movw	r30, r24
    5cf2:	84 85       	ldd	r24, Z+12	; 0x0c
    5cf4:	95 85       	ldd	r25, Z+13	; 0x0d
    5cf6:	a6 85       	ldd	r26, Z+14	; 0x0e
    5cf8:	b7 85       	ldd	r27, Z+15	; 0x0f
    5cfa:	28 17       	cp	r18, r24
    5cfc:	39 07       	cpc	r19, r25
    5cfe:	4a 07       	cpc	r20, r26
    5d00:	5b 07       	cpc	r21, r27
    5d02:	09 f0       	breq	.+2      	; 0x5d06 <tcp_entry_add+0x6e>
    5d04:	e1 c0       	rjmp	.+450    	; 0x5ec8 <tcp_entry_add+0x230>
            (tcp_entry[index].src_port == tcp->TCP_SrcPort)    )
    5d06:	89 81       	ldd	r24, Y+1	; 0x01
    5d08:	28 2f       	mov	r18, r24
    5d0a:	30 e0       	ldi	r19, 0x00	; 0
    5d0c:	46 e1       	ldi	r20, 0x16	; 22
    5d0e:	42 9f       	mul	r20, r18
    5d10:	c0 01       	movw	r24, r0
    5d12:	43 9f       	mul	r20, r19
    5d14:	90 0d       	add	r25, r0
    5d16:	11 24       	eor	r1, r1
    5d18:	8f 54       	subi	r24, 0x4F	; 79
    5d1a:	9d 4f       	sbci	r25, 0xFD	; 253
    5d1c:	fc 01       	movw	r30, r24
    5d1e:	20 81       	ld	r18, Z
    5d20:	31 81       	ldd	r19, Z+1	; 0x01
    5d22:	8b 81       	ldd	r24, Y+3	; 0x03
    5d24:	9c 81       	ldd	r25, Y+4	; 0x04
    5d26:	fc 01       	movw	r30, r24
    5d28:	80 81       	ld	r24, Z
    5d2a:	91 81       	ldd	r25, Z+1	; 0x01
    ip  = (struct IP_Header  *)&buffer[IP_OFFSET];
  
    //Eintrag schon vorhanden?
    for (unsigned char index = 0;index<(MAX_TCP_ENTRY);index++)
    {
        if( (tcp_entry[index].ip       == ip->IP_Srcaddr  ) &&
    5d2c:	28 17       	cp	r18, r24
    5d2e:	39 07       	cpc	r19, r25
    5d30:	09 f0       	breq	.+2      	; 0x5d34 <tcp_entry_add+0x9c>
    5d32:	ca c0       	rjmp	.+404    	; 0x5ec8 <tcp_entry_add+0x230>
            (tcp_entry[index].src_port == tcp->TCP_SrcPort)    )
        {
            //Eintrag gefunden Time refresh
            tcp_entry[index].ack_counter = tcp->TCP_Acknum;
    5d34:	89 81       	ldd	r24, Y+1	; 0x01
    5d36:	48 2f       	mov	r20, r24
    5d38:	50 e0       	ldi	r21, 0x00	; 0
    5d3a:	8b 81       	ldd	r24, Y+3	; 0x03
    5d3c:	9c 81       	ldd	r25, Y+4	; 0x04
    5d3e:	fc 01       	movw	r30, r24
    5d40:	80 85       	ldd	r24, Z+8	; 0x08
    5d42:	91 85       	ldd	r25, Z+9	; 0x09
    5d44:	a2 85       	ldd	r26, Z+10	; 0x0a
    5d46:	b3 85       	ldd	r27, Z+11	; 0x0b
    5d48:	66 e1       	ldi	r22, 0x16	; 22
    5d4a:	64 9f       	mul	r22, r20
    5d4c:	90 01       	movw	r18, r0
    5d4e:	65 9f       	mul	r22, r21
    5d50:	30 0d       	add	r19, r0
    5d52:	11 24       	eor	r1, r1
    5d54:	2b 54       	subi	r18, 0x4B	; 75
    5d56:	3d 4f       	sbci	r19, 0xFD	; 253
    5d58:	f9 01       	movw	r30, r18
    5d5a:	80 83       	st	Z, r24
    5d5c:	91 83       	std	Z+1, r25	; 0x01
    5d5e:	a2 83       	std	Z+2, r26	; 0x02
    5d60:	b3 83       	std	Z+3, r27	; 0x03
            tcp_entry[index].seq_counter = tcp->TCP_Seqnum;
    5d62:	89 81       	ldd	r24, Y+1	; 0x01
    5d64:	48 2f       	mov	r20, r24
    5d66:	50 e0       	ldi	r21, 0x00	; 0
    5d68:	8b 81       	ldd	r24, Y+3	; 0x03
    5d6a:	9c 81       	ldd	r25, Y+4	; 0x04
    5d6c:	fc 01       	movw	r30, r24
    5d6e:	84 81       	ldd	r24, Z+4	; 0x04
    5d70:	95 81       	ldd	r25, Z+5	; 0x05
    5d72:	a6 81       	ldd	r26, Z+6	; 0x06
    5d74:	b7 81       	ldd	r27, Z+7	; 0x07
    5d76:	66 e1       	ldi	r22, 0x16	; 22
    5d78:	64 9f       	mul	r22, r20
    5d7a:	90 01       	movw	r18, r0
    5d7c:	65 9f       	mul	r22, r21
    5d7e:	30 0d       	add	r19, r0
    5d80:	11 24       	eor	r1, r1
    5d82:	27 54       	subi	r18, 0x47	; 71
    5d84:	3d 4f       	sbci	r19, 0xFD	; 253
    5d86:	f9 01       	movw	r30, r18
    5d88:	80 83       	st	Z, r24
    5d8a:	91 83       	std	Z+1, r25	; 0x01
    5d8c:	a2 83       	std	Z+2, r26	; 0x02
    5d8e:	b3 83       	std	Z+3, r27	; 0x03
            tcp_entry[index].status      = tcp->TCP_HdrFlags;
    5d90:	89 81       	ldd	r24, Y+1	; 0x01
    5d92:	28 2f       	mov	r18, r24
    5d94:	30 e0       	ldi	r19, 0x00	; 0
    5d96:	8b 81       	ldd	r24, Y+3	; 0x03
    5d98:	9c 81       	ldd	r25, Y+4	; 0x04
    5d9a:	fc 01       	movw	r30, r24
    5d9c:	45 85       	ldd	r20, Z+13	; 0x0d
    5d9e:	56 e1       	ldi	r21, 0x16	; 22
    5da0:	52 9f       	mul	r21, r18
    5da2:	c0 01       	movw	r24, r0
    5da4:	53 9f       	mul	r21, r19
    5da6:	90 0d       	add	r25, r0
    5da8:	11 24       	eor	r1, r1
    5daa:	83 54       	subi	r24, 0x43	; 67
    5dac:	9d 4f       	sbci	r25, 0xFD	; 253
    5dae:	fc 01       	movw	r30, r24
    5db0:	40 83       	st	Z, r20
            if ( tcp_entry[index].time != TCP_TIME_OFF )
    5db2:	89 81       	ldd	r24, Y+1	; 0x01
    5db4:	28 2f       	mov	r18, r24
    5db6:	30 e0       	ldi	r19, 0x00	; 0
    5db8:	46 e1       	ldi	r20, 0x16	; 22
    5dba:	42 9f       	mul	r20, r18
    5dbc:	c0 01       	movw	r24, r0
    5dbe:	43 9f       	mul	r20, r19
    5dc0:	90 0d       	add	r25, r0
    5dc2:	11 24       	eor	r1, r1
    5dc4:	80 54       	subi	r24, 0x40	; 64
    5dc6:	9d 4f       	sbci	r25, 0xFD	; 253
    5dc8:	fc 01       	movw	r30, r24
    5dca:	80 81       	ld	r24, Z
    5dcc:	8f 3f       	cpi	r24, 0xFF	; 255
    5dce:	71 f0       	breq	.+28     	; 0x5dec <tcp_entry_add+0x154>
            {
                tcp_entry[index].time = TCP_MAX_ENTRY_TIME;
    5dd0:	89 81       	ldd	r24, Y+1	; 0x01
    5dd2:	28 2f       	mov	r18, r24
    5dd4:	30 e0       	ldi	r19, 0x00	; 0
    5dd6:	46 e1       	ldi	r20, 0x16	; 22
    5dd8:	42 9f       	mul	r20, r18
    5dda:	c0 01       	movw	r24, r0
    5ddc:	43 9f       	mul	r20, r19
    5dde:	90 0d       	add	r25, r0
    5de0:	11 24       	eor	r1, r1
    5de2:	80 54       	subi	r24, 0x40	; 64
    5de4:	9d 4f       	sbci	r25, 0xFD	; 253
    5de6:	23 e0       	ldi	r18, 0x03	; 3
    5de8:	fc 01       	movw	r30, r24
    5dea:	20 83       	st	Z, r18
            }
            result32 = htons(ip->IP_Pktlen) - IP_VERS_LEN - ((tcp->TCP_Hdrlen& 0xF0) >>2);
    5dec:	8d 81       	ldd	r24, Y+5	; 0x05
    5dee:	9e 81       	ldd	r25, Y+6	; 0x06
    5df0:	fc 01       	movw	r30, r24
    5df2:	82 81       	ldd	r24, Z+2	; 0x02
    5df4:	93 81       	ldd	r25, Z+3	; 0x03
    5df6:	0e 94 5b 21 	call	0x42b6	; 0x42b6 <htons>
    5dfa:	9c 01       	movw	r18, r24
    5dfc:	8b 81       	ldd	r24, Y+3	; 0x03
    5dfe:	9c 81       	ldd	r25, Y+4	; 0x04
    5e00:	fc 01       	movw	r30, r24
    5e02:	84 85       	ldd	r24, Z+12	; 0x0c
    5e04:	88 2f       	mov	r24, r24
    5e06:	90 e0       	ldi	r25, 0x00	; 0
    5e08:	80 7f       	andi	r24, 0xF0	; 240
    5e0a:	99 27       	eor	r25, r25
    5e0c:	95 95       	asr	r25
    5e0e:	87 95       	ror	r24
    5e10:	95 95       	asr	r25
    5e12:	87 95       	ror	r24
    5e14:	a9 01       	movw	r20, r18
    5e16:	48 1b       	sub	r20, r24
    5e18:	59 0b       	sbc	r21, r25
    5e1a:	ca 01       	movw	r24, r20
    5e1c:	44 97       	sbiw	r24, 0x14	; 20
    5e1e:	cc 01       	movw	r24, r24
    5e20:	a0 e0       	ldi	r26, 0x00	; 0
    5e22:	b0 e0       	ldi	r27, 0x00	; 0
    5e24:	8f 83       	std	Y+7, r24	; 0x07
    5e26:	98 87       	std	Y+8, r25	; 0x08
    5e28:	a9 87       	std	Y+9, r26	; 0x09
    5e2a:	ba 87       	std	Y+10, r27	; 0x0a
            result32 = result32 + htons32(tcp_entry[index].seq_counter);
    5e2c:	89 81       	ldd	r24, Y+1	; 0x01
    5e2e:	28 2f       	mov	r18, r24
    5e30:	30 e0       	ldi	r19, 0x00	; 0
    5e32:	46 e1       	ldi	r20, 0x16	; 22
    5e34:	42 9f       	mul	r20, r18
    5e36:	c0 01       	movw	r24, r0
    5e38:	43 9f       	mul	r20, r19
    5e3a:	90 0d       	add	r25, r0
    5e3c:	11 24       	eor	r1, r1
    5e3e:	87 54       	subi	r24, 0x47	; 71
    5e40:	9d 4f       	sbci	r25, 0xFD	; 253
    5e42:	fc 01       	movw	r30, r24
    5e44:	80 81       	ld	r24, Z
    5e46:	91 81       	ldd	r25, Z+1	; 0x01
    5e48:	a2 81       	ldd	r26, Z+2	; 0x02
    5e4a:	b3 81       	ldd	r27, Z+3	; 0x03
    5e4c:	bc 01       	movw	r22, r24
    5e4e:	cd 01       	movw	r24, r26
    5e50:	0e 94 6c 21 	call	0x42d8	; 0x42d8 <htons32>
    5e54:	9b 01       	movw	r18, r22
    5e56:	ac 01       	movw	r20, r24
    5e58:	8f 81       	ldd	r24, Y+7	; 0x07
    5e5a:	98 85       	ldd	r25, Y+8	; 0x08
    5e5c:	a9 85       	ldd	r26, Y+9	; 0x09
    5e5e:	ba 85       	ldd	r27, Y+10	; 0x0a
    5e60:	82 0f       	add	r24, r18
    5e62:	93 1f       	adc	r25, r19
    5e64:	a4 1f       	adc	r26, r20
    5e66:	b5 1f       	adc	r27, r21
    5e68:	8f 83       	std	Y+7, r24	; 0x07
    5e6a:	98 87       	std	Y+8, r25	; 0x08
    5e6c:	a9 87       	std	Y+9, r26	; 0x09
    5e6e:	ba 87       	std	Y+10, r27	; 0x0a
            tcp_entry[index].seq_counter = htons32(result32);
    5e70:	89 81       	ldd	r24, Y+1	; 0x01
    5e72:	08 2f       	mov	r16, r24
    5e74:	10 e0       	ldi	r17, 0x00	; 0
    5e76:	8f 81       	ldd	r24, Y+7	; 0x07
    5e78:	98 85       	ldd	r25, Y+8	; 0x08
    5e7a:	a9 85       	ldd	r26, Y+9	; 0x09
    5e7c:	ba 85       	ldd	r27, Y+10	; 0x0a
    5e7e:	bc 01       	movw	r22, r24
    5e80:	cd 01       	movw	r24, r26
    5e82:	0e 94 6c 21 	call	0x42d8	; 0x42d8 <htons32>
    5e86:	dc 01       	movw	r26, r24
    5e88:	cb 01       	movw	r24, r22
    5e8a:	46 e1       	ldi	r20, 0x16	; 22
    5e8c:	40 9f       	mul	r20, r16
    5e8e:	90 01       	movw	r18, r0
    5e90:	41 9f       	mul	r20, r17
    5e92:	30 0d       	add	r19, r0
    5e94:	11 24       	eor	r1, r1
    5e96:	27 54       	subi	r18, 0x47	; 71
    5e98:	3d 4f       	sbci	r19, 0xFD	; 253
    5e9a:	f9 01       	movw	r30, r18
    5e9c:	80 83       	st	Z, r24
    5e9e:	91 83       	std	Z+1, r25	; 0x01
    5ea0:	a2 83       	std	Z+2, r26	; 0x02
    5ea2:	b3 83       	std	Z+3, r27	; 0x03
      
            DEBUG("TCP Entry gefunden %i\r\n",index);
    5ea4:	89 81       	ldd	r24, Y+1	; 0x01
    5ea6:	28 2f       	mov	r18, r24
    5ea8:	30 e0       	ldi	r19, 0x00	; 0
    5eaa:	8d ed       	ldi	r24, 0xDD	; 221
    5eac:	90 e2       	ldi	r25, 0x20	; 32
    5eae:	43 2f       	mov	r20, r19
    5eb0:	4f 93       	push	r20
    5eb2:	2f 93       	push	r18
    5eb4:	29 2f       	mov	r18, r25
    5eb6:	2f 93       	push	r18
    5eb8:	8f 93       	push	r24
    5eba:	0e 94 31 3a 	call	0x7462	; 0x7462 <usart_write_P>
    5ebe:	0f 90       	pop	r0
    5ec0:	0f 90       	pop	r0
    5ec2:	0f 90       	pop	r0
    5ec4:	0f 90       	pop	r0
            return;
    5ec6:	f6 c0       	rjmp	.+492    	; 0x60b4 <tcp_entry_add+0x41c>

    tcp = (struct TCP_Header *)&buffer[TCP_OFFSET];
    ip  = (struct IP_Header  *)&buffer[IP_OFFSET];
  
    //Eintrag schon vorhanden?
    for (unsigned char index = 0;index<(MAX_TCP_ENTRY);index++)
    5ec8:	89 81       	ldd	r24, Y+1	; 0x01
    5eca:	8f 5f       	subi	r24, 0xFF	; 255
    5ecc:	89 83       	std	Y+1, r24	; 0x01
    5ece:	89 81       	ldd	r24, Y+1	; 0x01
    5ed0:	85 30       	cpi	r24, 0x05	; 5
    5ed2:	08 f4       	brcc	.+2      	; 0x5ed6 <tcp_entry_add+0x23e>
    5ed4:	fb ce       	rjmp	.-522    	; 0x5ccc <tcp_entry_add+0x34>
            return;
        }
    }
  
    //Freien Eintrag finden
    for (unsigned char index = 0;index<(MAX_TCP_ENTRY);index++)
    5ed6:	1a 82       	std	Y+2, r1	; 0x02
    5ed8:	df c0       	rjmp	.+446    	; 0x6098 <tcp_entry_add+0x400>
    {
        if(tcp_entry[index].ip == 0)
    5eda:	8a 81       	ldd	r24, Y+2	; 0x02
    5edc:	28 2f       	mov	r18, r24
    5ede:	30 e0       	ldi	r19, 0x00	; 0
    5ee0:	46 e1       	ldi	r20, 0x16	; 22
    5ee2:	42 9f       	mul	r20, r18
    5ee4:	c0 01       	movw	r24, r0
    5ee6:	43 9f       	mul	r20, r19
    5ee8:	90 0d       	add	r25, r0
    5eea:	11 24       	eor	r1, r1
    5eec:	83 55       	subi	r24, 0x53	; 83
    5eee:	9d 4f       	sbci	r25, 0xFD	; 253
    5ef0:	fc 01       	movw	r30, r24
    5ef2:	80 81       	ld	r24, Z
    5ef4:	91 81       	ldd	r25, Z+1	; 0x01
    5ef6:	a2 81       	ldd	r26, Z+2	; 0x02
    5ef8:	b3 81       	ldd	r27, Z+3	; 0x03
    5efa:	89 2b       	or	r24, r25
    5efc:	8a 2b       	or	r24, r26
    5efe:	8b 2b       	or	r24, r27
    5f00:	09 f0       	breq	.+2      	; 0x5f04 <tcp_entry_add+0x26c>
    5f02:	c7 c0       	rjmp	.+398    	; 0x6092 <tcp_entry_add+0x3fa>
        {
            tcp_entry[index].ip          = ip->IP_Srcaddr;
    5f04:	8a 81       	ldd	r24, Y+2	; 0x02
    5f06:	48 2f       	mov	r20, r24
    5f08:	50 e0       	ldi	r21, 0x00	; 0
    5f0a:	8d 81       	ldd	r24, Y+5	; 0x05
    5f0c:	9e 81       	ldd	r25, Y+6	; 0x06
    5f0e:	fc 01       	movw	r30, r24
    5f10:	84 85       	ldd	r24, Z+12	; 0x0c
    5f12:	95 85       	ldd	r25, Z+13	; 0x0d
    5f14:	a6 85       	ldd	r26, Z+14	; 0x0e
    5f16:	b7 85       	ldd	r27, Z+15	; 0x0f
    5f18:	66 e1       	ldi	r22, 0x16	; 22
    5f1a:	64 9f       	mul	r22, r20
    5f1c:	90 01       	movw	r18, r0
    5f1e:	65 9f       	mul	r22, r21
    5f20:	30 0d       	add	r19, r0
    5f22:	11 24       	eor	r1, r1
    5f24:	23 55       	subi	r18, 0x53	; 83
    5f26:	3d 4f       	sbci	r19, 0xFD	; 253
    5f28:	f9 01       	movw	r30, r18
    5f2a:	80 83       	st	Z, r24
    5f2c:	91 83       	std	Z+1, r25	; 0x01
    5f2e:	a2 83       	std	Z+2, r26	; 0x02
    5f30:	b3 83       	std	Z+3, r27	; 0x03
            tcp_entry[index].src_port    = tcp->TCP_SrcPort;
    5f32:	8a 81       	ldd	r24, Y+2	; 0x02
    5f34:	48 2f       	mov	r20, r24
    5f36:	50 e0       	ldi	r21, 0x00	; 0
    5f38:	8b 81       	ldd	r24, Y+3	; 0x03
    5f3a:	9c 81       	ldd	r25, Y+4	; 0x04
    5f3c:	fc 01       	movw	r30, r24
    5f3e:	20 81       	ld	r18, Z
    5f40:	31 81       	ldd	r19, Z+1	; 0x01
    5f42:	66 e1       	ldi	r22, 0x16	; 22
    5f44:	64 9f       	mul	r22, r20
    5f46:	c0 01       	movw	r24, r0
    5f48:	65 9f       	mul	r22, r21
    5f4a:	90 0d       	add	r25, r0
    5f4c:	11 24       	eor	r1, r1
    5f4e:	8f 54       	subi	r24, 0x4F	; 79
    5f50:	9d 4f       	sbci	r25, 0xFD	; 253
    5f52:	fc 01       	movw	r30, r24
    5f54:	31 83       	std	Z+1, r19	; 0x01
    5f56:	20 83       	st	Z, r18
            tcp_entry[index].dest_port   = tcp->TCP_DestPort;
    5f58:	8a 81       	ldd	r24, Y+2	; 0x02
    5f5a:	48 2f       	mov	r20, r24
    5f5c:	50 e0       	ldi	r21, 0x00	; 0
    5f5e:	8b 81       	ldd	r24, Y+3	; 0x03
    5f60:	9c 81       	ldd	r25, Y+4	; 0x04
    5f62:	fc 01       	movw	r30, r24
    5f64:	22 81       	ldd	r18, Z+2	; 0x02
    5f66:	33 81       	ldd	r19, Z+3	; 0x03
    5f68:	66 e1       	ldi	r22, 0x16	; 22
    5f6a:	64 9f       	mul	r22, r20
    5f6c:	c0 01       	movw	r24, r0
    5f6e:	65 9f       	mul	r22, r21
    5f70:	90 0d       	add	r25, r0
    5f72:	11 24       	eor	r1, r1
    5f74:	8d 54       	subi	r24, 0x4D	; 77
    5f76:	9d 4f       	sbci	r25, 0xFD	; 253
    5f78:	fc 01       	movw	r30, r24
    5f7a:	31 83       	std	Z+1, r19	; 0x01
    5f7c:	20 83       	st	Z, r18
            tcp_entry[index].ack_counter = tcp->TCP_Acknum;
    5f7e:	8a 81       	ldd	r24, Y+2	; 0x02
    5f80:	48 2f       	mov	r20, r24
    5f82:	50 e0       	ldi	r21, 0x00	; 0
    5f84:	8b 81       	ldd	r24, Y+3	; 0x03
    5f86:	9c 81       	ldd	r25, Y+4	; 0x04
    5f88:	fc 01       	movw	r30, r24
    5f8a:	80 85       	ldd	r24, Z+8	; 0x08
    5f8c:	91 85       	ldd	r25, Z+9	; 0x09
    5f8e:	a2 85       	ldd	r26, Z+10	; 0x0a
    5f90:	b3 85       	ldd	r27, Z+11	; 0x0b
    5f92:	66 e1       	ldi	r22, 0x16	; 22
    5f94:	64 9f       	mul	r22, r20
    5f96:	90 01       	movw	r18, r0
    5f98:	65 9f       	mul	r22, r21
    5f9a:	30 0d       	add	r19, r0
    5f9c:	11 24       	eor	r1, r1
    5f9e:	2b 54       	subi	r18, 0x4B	; 75
    5fa0:	3d 4f       	sbci	r19, 0xFD	; 253
    5fa2:	f9 01       	movw	r30, r18
    5fa4:	80 83       	st	Z, r24
    5fa6:	91 83       	std	Z+1, r25	; 0x01
    5fa8:	a2 83       	std	Z+2, r26	; 0x02
    5faa:	b3 83       	std	Z+3, r27	; 0x03
            tcp_entry[index].seq_counter = tcp->TCP_Seqnum;
    5fac:	8a 81       	ldd	r24, Y+2	; 0x02
    5fae:	48 2f       	mov	r20, r24
    5fb0:	50 e0       	ldi	r21, 0x00	; 0
    5fb2:	8b 81       	ldd	r24, Y+3	; 0x03
    5fb4:	9c 81       	ldd	r25, Y+4	; 0x04
    5fb6:	fc 01       	movw	r30, r24
    5fb8:	84 81       	ldd	r24, Z+4	; 0x04
    5fba:	95 81       	ldd	r25, Z+5	; 0x05
    5fbc:	a6 81       	ldd	r26, Z+6	; 0x06
    5fbe:	b7 81       	ldd	r27, Z+7	; 0x07
    5fc0:	66 e1       	ldi	r22, 0x16	; 22
    5fc2:	64 9f       	mul	r22, r20
    5fc4:	90 01       	movw	r18, r0
    5fc6:	65 9f       	mul	r22, r21
    5fc8:	30 0d       	add	r19, r0
    5fca:	11 24       	eor	r1, r1
    5fcc:	27 54       	subi	r18, 0x47	; 71
    5fce:	3d 4f       	sbci	r19, 0xFD	; 253
    5fd0:	f9 01       	movw	r30, r18
    5fd2:	80 83       	st	Z, r24
    5fd4:	91 83       	std	Z+1, r25	; 0x01
    5fd6:	a2 83       	std	Z+2, r26	; 0x02
    5fd8:	b3 83       	std	Z+3, r27	; 0x03
            tcp_entry[index].status      = tcp->TCP_HdrFlags;
    5fda:	8a 81       	ldd	r24, Y+2	; 0x02
    5fdc:	28 2f       	mov	r18, r24
    5fde:	30 e0       	ldi	r19, 0x00	; 0
    5fe0:	8b 81       	ldd	r24, Y+3	; 0x03
    5fe2:	9c 81       	ldd	r25, Y+4	; 0x04
    5fe4:	fc 01       	movw	r30, r24
    5fe6:	45 85       	ldd	r20, Z+13	; 0x0d
    5fe8:	56 e1       	ldi	r21, 0x16	; 22
    5fea:	52 9f       	mul	r21, r18
    5fec:	c0 01       	movw	r24, r0
    5fee:	53 9f       	mul	r21, r19
    5ff0:	90 0d       	add	r25, r0
    5ff2:	11 24       	eor	r1, r1
    5ff4:	83 54       	subi	r24, 0x43	; 67
    5ff6:	9d 4f       	sbci	r25, 0xFD	; 253
    5ff8:	fc 01       	movw	r30, r24
    5ffa:	40 83       	st	Z, r20
            tcp_entry[index].app_status  = 0;
    5ffc:	8a 81       	ldd	r24, Y+2	; 0x02
    5ffe:	28 2f       	mov	r18, r24
    6000:	30 e0       	ldi	r19, 0x00	; 0
    6002:	46 e1       	ldi	r20, 0x16	; 22
    6004:	42 9f       	mul	r20, r18
    6006:	c0 01       	movw	r24, r0
    6008:	43 9f       	mul	r20, r19
    600a:	90 0d       	add	r25, r0
    600c:	11 24       	eor	r1, r1
    600e:	82 54       	subi	r24, 0x42	; 66
    6010:	9d 4f       	sbci	r25, 0xFD	; 253
    6012:	fc 01       	movw	r30, r24
    6014:	11 82       	std	Z+1, r1	; 0x01
    6016:	10 82       	st	Z, r1
            tcp_entry[index].time        = TCP_MAX_ENTRY_TIME;
    6018:	8a 81       	ldd	r24, Y+2	; 0x02
    601a:	28 2f       	mov	r18, r24
    601c:	30 e0       	ldi	r19, 0x00	; 0
    601e:	46 e1       	ldi	r20, 0x16	; 22
    6020:	42 9f       	mul	r20, r18
    6022:	c0 01       	movw	r24, r0
    6024:	43 9f       	mul	r20, r19
    6026:	90 0d       	add	r25, r0
    6028:	11 24       	eor	r1, r1
    602a:	80 54       	subi	r24, 0x40	; 64
    602c:	9d 4f       	sbci	r25, 0xFD	; 253
    602e:	23 e0       	ldi	r18, 0x03	; 3
    6030:	fc 01       	movw	r30, r24
    6032:	20 83       	st	Z, r18
            tcp_entry[index].error_count = 0;
    6034:	8a 81       	ldd	r24, Y+2	; 0x02
    6036:	28 2f       	mov	r18, r24
    6038:	30 e0       	ldi	r19, 0x00	; 0
    603a:	46 e1       	ldi	r20, 0x16	; 22
    603c:	42 9f       	mul	r20, r18
    603e:	c0 01       	movw	r24, r0
    6040:	43 9f       	mul	r20, r19
    6042:	90 0d       	add	r25, r0
    6044:	11 24       	eor	r1, r1
    6046:	8f 53       	subi	r24, 0x3F	; 63
    6048:	9d 4f       	sbci	r25, 0xFD	; 253
    604a:	fc 01       	movw	r30, r24
    604c:	10 82       	st	Z, r1
            tcp_entry[index].first_ack   = 0;
    604e:	8a 81       	ldd	r24, Y+2	; 0x02
    6050:	28 2f       	mov	r18, r24
    6052:	30 e0       	ldi	r19, 0x00	; 0
    6054:	46 e1       	ldi	r20, 0x16	; 22
    6056:	42 9f       	mul	r20, r18
    6058:	c0 01       	movw	r24, r0
    605a:	43 9f       	mul	r20, r19
    605c:	90 0d       	add	r25, r0
    605e:	11 24       	eor	r1, r1
    6060:	8e 53       	subi	r24, 0x3E	; 62
    6062:	9d 4f       	sbci	r25, 0xFD	; 253
    6064:	fc 01       	movw	r30, r24
    6066:	20 81       	ld	r18, Z
    6068:	2e 7f       	andi	r18, 0xFE	; 254
    606a:	fc 01       	movw	r30, r24
    606c:	20 83       	st	Z, r18
            DEBUG("TCP Entry neuer Eintrag %i\r\n",index);
    606e:	8a 81       	ldd	r24, Y+2	; 0x02
    6070:	28 2f       	mov	r18, r24
    6072:	30 e0       	ldi	r19, 0x00	; 0
    6074:	85 ef       	ldi	r24, 0xF5	; 245
    6076:	90 e2       	ldi	r25, 0x20	; 32
    6078:	43 2f       	mov	r20, r19
    607a:	4f 93       	push	r20
    607c:	2f 93       	push	r18
    607e:	29 2f       	mov	r18, r25
    6080:	2f 93       	push	r18
    6082:	8f 93       	push	r24
    6084:	0e 94 31 3a 	call	0x7462	; 0x7462 <usart_write_P>
    6088:	0f 90       	pop	r0
    608a:	0f 90       	pop	r0
    608c:	0f 90       	pop	r0
    608e:	0f 90       	pop	r0
            return;  
    6090:	11 c0       	rjmp	.+34     	; 0x60b4 <tcp_entry_add+0x41c>
            return;
        }
    }
  
    //Freien Eintrag finden
    for (unsigned char index = 0;index<(MAX_TCP_ENTRY);index++)
    6092:	8a 81       	ldd	r24, Y+2	; 0x02
    6094:	8f 5f       	subi	r24, 0xFF	; 255
    6096:	8a 83       	std	Y+2, r24	; 0x02
    6098:	8a 81       	ldd	r24, Y+2	; 0x02
    609a:	85 30       	cpi	r24, 0x05	; 5
    609c:	08 f4       	brcc	.+2      	; 0x60a0 <tcp_entry_add+0x408>
    609e:	1d cf       	rjmp	.-454    	; 0x5eda <tcp_entry_add+0x242>
            DEBUG("TCP Entry neuer Eintrag %i\r\n",index);
            return;  
        }
    }
    //Eintrag konnte nicht mehr aufgenommen werden
    DEBUG("Server Busy (NO MORE CONNECTIONS)!\r\n");
    60a0:	82 e1       	ldi	r24, 0x12	; 18
    60a2:	91 e2       	ldi	r25, 0x21	; 33
    60a4:	29 2f       	mov	r18, r25
    60a6:	2f 93       	push	r18
    60a8:	8f 93       	push	r24
    60aa:	0e 94 31 3a 	call	0x7462	; 0x7462 <usart_write_P>
    60ae:	0f 90       	pop	r0
    60b0:	0f 90       	pop	r0
    return;
    60b2:	00 00       	nop
}
    60b4:	2c 96       	adiw	r28, 0x0c	; 12
    60b6:	0f b6       	in	r0, 0x3f	; 63
    60b8:	f8 94       	cli
    60ba:	de bf       	out	0x3e, r29	; 62
    60bc:	0f be       	out	0x3f, r0	; 63
    60be:	cd bf       	out	0x3d, r28	; 61
    60c0:	df 91       	pop	r29
    60c2:	cf 91       	pop	r28
    60c4:	1f 91       	pop	r17
    60c6:	0f 91       	pop	r16
    60c8:	08 95       	ret

000060ca <tcp_entry_search>:

//----------------------------------------------------------------------------
//Diese Routine sucht den etntry eintrag
char tcp_entry_search (unsigned long dest_ip,unsigned int SrcPort)
{
    60ca:	cf 93       	push	r28
    60cc:	df 93       	push	r29
    60ce:	cd b7       	in	r28, 0x3d	; 61
    60d0:	de b7       	in	r29, 0x3e	; 62
    60d2:	27 97       	sbiw	r28, 0x07	; 7
    60d4:	0f b6       	in	r0, 0x3f	; 63
    60d6:	f8 94       	cli
    60d8:	de bf       	out	0x3e, r29	; 62
    60da:	0f be       	out	0x3f, r0	; 63
    60dc:	cd bf       	out	0x3d, r28	; 61
    60de:	6a 83       	std	Y+2, r22	; 0x02
    60e0:	7b 83       	std	Y+3, r23	; 0x03
    60e2:	8c 83       	std	Y+4, r24	; 0x04
    60e4:	9d 83       	std	Y+5, r25	; 0x05
    60e6:	5f 83       	std	Y+7, r21	; 0x07
    60e8:	4e 83       	std	Y+6, r20	; 0x06
	for (unsigned char index = 0;index<MAX_TCP_ENTRY;index++)
    60ea:	19 82       	std	Y+1, r1	; 0x01
    60ec:	31 c0       	rjmp	.+98     	; 0x6150 <tcp_entry_search+0x86>
	{
		if(	tcp_entry[index].ip == dest_ip &&
    60ee:	89 81       	ldd	r24, Y+1	; 0x01
    60f0:	28 2f       	mov	r18, r24
    60f2:	30 e0       	ldi	r19, 0x00	; 0
    60f4:	46 e1       	ldi	r20, 0x16	; 22
    60f6:	42 9f       	mul	r20, r18
    60f8:	c0 01       	movw	r24, r0
    60fa:	43 9f       	mul	r20, r19
    60fc:	90 0d       	add	r25, r0
    60fe:	11 24       	eor	r1, r1
    6100:	83 55       	subi	r24, 0x53	; 83
    6102:	9d 4f       	sbci	r25, 0xFD	; 253
    6104:	fc 01       	movw	r30, r24
    6106:	20 81       	ld	r18, Z
    6108:	31 81       	ldd	r19, Z+1	; 0x01
    610a:	42 81       	ldd	r20, Z+2	; 0x02
    610c:	53 81       	ldd	r21, Z+3	; 0x03
    610e:	8a 81       	ldd	r24, Y+2	; 0x02
    6110:	9b 81       	ldd	r25, Y+3	; 0x03
    6112:	ac 81       	ldd	r26, Y+4	; 0x04
    6114:	bd 81       	ldd	r27, Y+5	; 0x05
    6116:	28 17       	cp	r18, r24
    6118:	39 07       	cpc	r19, r25
    611a:	4a 07       	cpc	r20, r26
    611c:	5b 07       	cpc	r21, r27
    611e:	a9 f4       	brne	.+42     	; 0x614a <tcp_entry_search+0x80>
			tcp_entry[index].src_port == SrcPort)
    6120:	89 81       	ldd	r24, Y+1	; 0x01
    6122:	28 2f       	mov	r18, r24
    6124:	30 e0       	ldi	r19, 0x00	; 0
    6126:	46 e1       	ldi	r20, 0x16	; 22
    6128:	42 9f       	mul	r20, r18
    612a:	c0 01       	movw	r24, r0
    612c:	43 9f       	mul	r20, r19
    612e:	90 0d       	add	r25, r0
    6130:	11 24       	eor	r1, r1
    6132:	8f 54       	subi	r24, 0x4F	; 79
    6134:	9d 4f       	sbci	r25, 0xFD	; 253
    6136:	fc 01       	movw	r30, r24
    6138:	20 81       	ld	r18, Z
    613a:	31 81       	ldd	r19, Z+1	; 0x01
//Diese Routine sucht den etntry eintrag
char tcp_entry_search (unsigned long dest_ip,unsigned int SrcPort)
{
	for (unsigned char index = 0;index<MAX_TCP_ENTRY;index++)
	{
		if(	tcp_entry[index].ip == dest_ip &&
    613c:	8e 81       	ldd	r24, Y+6	; 0x06
    613e:	9f 81       	ldd	r25, Y+7	; 0x07
    6140:	28 17       	cp	r18, r24
    6142:	39 07       	cpc	r19, r25
    6144:	11 f4       	brne	.+4      	; 0x614a <tcp_entry_search+0x80>
			tcp_entry[index].src_port == SrcPort)
		{
			return(index);
    6146:	89 81       	ldd	r24, Y+1	; 0x01
    6148:	07 c0       	rjmp	.+14     	; 0x6158 <tcp_entry_search+0x8e>

//----------------------------------------------------------------------------
//Diese Routine sucht den etntry eintrag
char tcp_entry_search (unsigned long dest_ip,unsigned int SrcPort)
{
	for (unsigned char index = 0;index<MAX_TCP_ENTRY;index++)
    614a:	89 81       	ldd	r24, Y+1	; 0x01
    614c:	8f 5f       	subi	r24, 0xFF	; 255
    614e:	89 83       	std	Y+1, r24	; 0x01
    6150:	89 81       	ldd	r24, Y+1	; 0x01
    6152:	85 30       	cpi	r24, 0x05	; 5
    6154:	60 f2       	brcs	.-104    	; 0x60ee <tcp_entry_search+0x24>
			tcp_entry[index].src_port == SrcPort)
		{
			return(index);
		}
	}
	return (MAX_TCP_ENTRY);
    6156:	85 e0       	ldi	r24, 0x05	; 5
}
    6158:	27 96       	adiw	r28, 0x07	; 7
    615a:	0f b6       	in	r0, 0x3f	; 63
    615c:	f8 94       	cli
    615e:	de bf       	out	0x3e, r29	; 62
    6160:	0f be       	out	0x3f, r0	; 63
    6162:	cd bf       	out	0x3d, r28	; 61
    6164:	df 91       	pop	r29
    6166:	cf 91       	pop	r28
    6168:	08 95       	ret

0000616a <udp_socket_process>:

//----------------------------------------------------------------------------
//Diese Routine verwaltet die UDP Ports
void udp_socket_process(void)
{
    616a:	0f 93       	push	r16
    616c:	1f 93       	push	r17
    616e:	cf 93       	push	r28
    6170:	df 93       	push	r29
    6172:	00 d0       	rcall	.+0      	; 0x6174 <udp_socket_process+0xa>
    6174:	1f 92       	push	r1
    6176:	cd b7       	in	r28, 0x3d	; 61
    6178:	de b7       	in	r29, 0x3e	; 62
	unsigned char port_index = 0;	
    617a:	19 82       	std	Y+1, r1	; 0x01
	struct UDP_Header *udp;
    
	udp = (struct UDP_Header *)&eth_buffer[UDP_OFFSET];
    617c:	8f e5       	ldi	r24, 0x5F	; 95
    617e:	93 e0       	ldi	r25, 0x03	; 3
    6180:	9b 83       	std	Y+3, r25	; 0x03
    6182:	8a 83       	std	Y+2, r24	; 0x02

	//UDP DestPort mit Portanwendungsliste durchfhren
	while (UDP_PORT_TABLE[port_index].port && UDP_PORT_TABLE[port_index].port!=(htons(udp->udp_DestPort)))
    6184:	03 c0       	rjmp	.+6      	; 0x618c <udp_socket_process+0x22>
	{ 
		port_index++;
    6186:	89 81       	ldd	r24, Y+1	; 0x01
    6188:	8f 5f       	subi	r24, 0xFF	; 255
    618a:	89 83       	std	Y+1, r24	; 0x01
	struct UDP_Header *udp;
    
	udp = (struct UDP_Header *)&eth_buffer[UDP_OFFSET];

	//UDP DestPort mit Portanwendungsliste durchfhren
	while (UDP_PORT_TABLE[port_index].port && UDP_PORT_TABLE[port_index].port!=(htons(udp->udp_DestPort)))
    618c:	89 81       	ldd	r24, Y+1	; 0x01
    618e:	88 2f       	mov	r24, r24
    6190:	90 e0       	ldi	r25, 0x00	; 0
    6192:	88 0f       	add	r24, r24
    6194:	99 1f       	adc	r25, r25
    6196:	88 0f       	add	r24, r24
    6198:	99 1f       	adc	r25, r25
    619a:	82 52       	subi	r24, 0x22	; 34
    619c:	9e 4f       	sbci	r25, 0xFE	; 254
    619e:	fc 01       	movw	r30, r24
    61a0:	80 81       	ld	r24, Z
    61a2:	91 81       	ldd	r25, Z+1	; 0x01
    61a4:	89 2b       	or	r24, r25
    61a6:	b1 f0       	breq	.+44     	; 0x61d4 <udp_socket_process+0x6a>
    61a8:	89 81       	ldd	r24, Y+1	; 0x01
    61aa:	88 2f       	mov	r24, r24
    61ac:	90 e0       	ldi	r25, 0x00	; 0
    61ae:	88 0f       	add	r24, r24
    61b0:	99 1f       	adc	r25, r25
    61b2:	88 0f       	add	r24, r24
    61b4:	99 1f       	adc	r25, r25
    61b6:	82 52       	subi	r24, 0x22	; 34
    61b8:	9e 4f       	sbci	r25, 0xFE	; 254
    61ba:	fc 01       	movw	r30, r24
    61bc:	00 81       	ld	r16, Z
    61be:	11 81       	ldd	r17, Z+1	; 0x01
    61c0:	8a 81       	ldd	r24, Y+2	; 0x02
    61c2:	9b 81       	ldd	r25, Y+3	; 0x03
    61c4:	fc 01       	movw	r30, r24
    61c6:	82 81       	ldd	r24, Z+2	; 0x02
    61c8:	93 81       	ldd	r25, Z+3	; 0x03
    61ca:	0e 94 5b 21 	call	0x42b6	; 0x42b6 <htons>
    61ce:	08 17       	cp	r16, r24
    61d0:	19 07       	cpc	r17, r25
    61d2:	c9 f6       	brne	.-78     	; 0x6186 <udp_socket_process+0x1c>
	{ 
		port_index++;
	}
	
	// Wenn index zu gross, dann beenden keine vorhandene Anwendung fr den Port
	if (!UDP_PORT_TABLE[port_index].port)
    61d4:	89 81       	ldd	r24, Y+1	; 0x01
    61d6:	88 2f       	mov	r24, r24
    61d8:	90 e0       	ldi	r25, 0x00	; 0
    61da:	88 0f       	add	r24, r24
    61dc:	99 1f       	adc	r25, r25
    61de:	88 0f       	add	r24, r24
    61e0:	99 1f       	adc	r25, r25
    61e2:	82 52       	subi	r24, 0x22	; 34
    61e4:	9e 4f       	sbci	r25, 0xFE	; 254
    61e6:	fc 01       	movw	r30, r24
    61e8:	80 81       	ld	r24, Z
    61ea:	91 81       	ldd	r25, Z+1	; 0x01
    61ec:	89 2b       	or	r24, r25
    61ee:	51 f4       	brne	.+20     	; 0x6204 <udp_socket_process+0x9a>
	{ 
		//Keine vorhandene Anwendung eingetragen! (ENDE)
		DEBUG("UDP Keine Anwendung gefunden!\r\n");
    61f0:	87 e3       	ldi	r24, 0x37	; 55
    61f2:	91 e2       	ldi	r25, 0x21	; 33
    61f4:	29 2f       	mov	r18, r25
    61f6:	2f 93       	push	r18
    61f8:	8f 93       	push	r24
    61fa:	0e 94 31 3a 	call	0x7462	; 0x7462 <usart_write_P>
    61fe:	0f 90       	pop	r0
    6200:	0f 90       	pop	r0
		return;
    6202:	10 c0       	rjmp	.+32     	; 0x6224 <udp_socket_process+0xba>
	}

	//zugehrige Anwendung ausfhren
	UDP_PORT_TABLE[port_index].fp(0); 
    6204:	89 81       	ldd	r24, Y+1	; 0x01
    6206:	88 2f       	mov	r24, r24
    6208:	90 e0       	ldi	r25, 0x00	; 0
    620a:	88 0f       	add	r24, r24
    620c:	99 1f       	adc	r25, r25
    620e:	88 0f       	add	r24, r24
    6210:	99 1f       	adc	r25, r25
    6212:	80 52       	subi	r24, 0x20	; 32
    6214:	9e 4f       	sbci	r25, 0xFE	; 254
    6216:	fc 01       	movw	r30, r24
    6218:	20 81       	ld	r18, Z
    621a:	31 81       	ldd	r19, Z+1	; 0x01
    621c:	80 e0       	ldi	r24, 0x00	; 0
    621e:	f9 01       	movw	r30, r18
    6220:	09 95       	icall
	return;
    6222:	00 00       	nop
}
    6224:	0f 90       	pop	r0
    6226:	0f 90       	pop	r0
    6228:	0f 90       	pop	r0
    622a:	df 91       	pop	r29
    622c:	cf 91       	pop	r28
    622e:	1f 91       	pop	r17
    6230:	0f 91       	pop	r16
    6232:	08 95       	ret

00006234 <create_new_udp_packet>:
//Diese Routine Erzeugt ein neues UDP Packet
void create_new_udp_packet( unsigned int  data_length,
                            unsigned int  src_port,
                            unsigned int  dest_port,
                            unsigned long dest_ip)
{
    6234:	0f 93       	push	r16
    6236:	1f 93       	push	r17
    6238:	cf 93       	push	r28
    623a:	df 93       	push	r29
    623c:	cd b7       	in	r28, 0x3d	; 61
    623e:	de b7       	in	r29, 0x3e	; 62
    6240:	64 97       	sbiw	r28, 0x14	; 20
    6242:	0f b6       	in	r0, 0x3f	; 63
    6244:	f8 94       	cli
    6246:	de bf       	out	0x3e, r29	; 62
    6248:	0f be       	out	0x3f, r0	; 63
    624a:	cd bf       	out	0x3d, r28	; 61
    624c:	9c 87       	std	Y+12, r25	; 0x0c
    624e:	8b 87       	std	Y+11, r24	; 0x0b
    6250:	7e 87       	std	Y+14, r23	; 0x0e
    6252:	6d 87       	std	Y+13, r22	; 0x0d
    6254:	58 8b       	std	Y+16, r21	; 0x10
    6256:	4f 87       	std	Y+15, r20	; 0x0f
    6258:	09 8b       	std	Y+17, r16	; 0x11
    625a:	1a 8b       	std	Y+18, r17	; 0x12
    625c:	2b 8b       	std	Y+19, r18	; 0x13
    625e:	3c 8b       	std	Y+20, r19	; 0x14
    unsigned long result32;

    struct UDP_Header *udp;
    struct IP_Header  *ip;

    udp = (struct UDP_Header *)&eth_buffer[UDP_OFFSET];
    6260:	8f e5       	ldi	r24, 0x5F	; 95
    6262:	93 e0       	ldi	r25, 0x03	; 3
    6264:	9a 83       	std	Y+2, r25	; 0x02
    6266:	89 83       	std	Y+1, r24	; 0x01
    ip  = (struct IP_Header  *)&eth_buffer[IP_OFFSET];
    6268:	8b e4       	ldi	r24, 0x4B	; 75
    626a:	93 e0       	ldi	r25, 0x03	; 3
    626c:	9c 83       	std	Y+4, r25	; 0x04
    626e:	8b 83       	std	Y+3, r24	; 0x03
  
    udp->udp_SrcPort  = htons(src_port);
    6270:	8d 85       	ldd	r24, Y+13	; 0x0d
    6272:	9e 85       	ldd	r25, Y+14	; 0x0e
    6274:	0e 94 5b 21 	call	0x42b6	; 0x42b6 <htons>
    6278:	9c 01       	movw	r18, r24
    627a:	89 81       	ldd	r24, Y+1	; 0x01
    627c:	9a 81       	ldd	r25, Y+2	; 0x02
    627e:	fc 01       	movw	r30, r24
    6280:	31 83       	std	Z+1, r19	; 0x01
    6282:	20 83       	st	Z, r18
    udp->udp_DestPort = htons(dest_port);
    6284:	8f 85       	ldd	r24, Y+15	; 0x0f
    6286:	98 89       	ldd	r25, Y+16	; 0x10
    6288:	0e 94 5b 21 	call	0x42b6	; 0x42b6 <htons>
    628c:	9c 01       	movw	r18, r24
    628e:	89 81       	ldd	r24, Y+1	; 0x01
    6290:	9a 81       	ldd	r25, Y+2	; 0x02
    6292:	fc 01       	movw	r30, r24
    6294:	33 83       	std	Z+3, r19	; 0x03
    6296:	22 83       	std	Z+2, r18	; 0x02

    data_length     += UDP_HDR_LEN;                //UDP Packetlength
    6298:	8b 85       	ldd	r24, Y+11	; 0x0b
    629a:	9c 85       	ldd	r25, Y+12	; 0x0c
    629c:	08 96       	adiw	r24, 0x08	; 8
    629e:	9c 87       	std	Y+12, r25	; 0x0c
    62a0:	8b 87       	std	Y+11, r24	; 0x0b
    udp->udp_Hdrlen = htons(data_length);
    62a2:	8b 85       	ldd	r24, Y+11	; 0x0b
    62a4:	9c 85       	ldd	r25, Y+12	; 0x0c
    62a6:	0e 94 5b 21 	call	0x42b6	; 0x42b6 <htons>
    62aa:	9c 01       	movw	r18, r24
    62ac:	89 81       	ldd	r24, Y+1	; 0x01
    62ae:	9a 81       	ldd	r25, Y+2	; 0x02
    62b0:	fc 01       	movw	r30, r24
    62b2:	35 83       	std	Z+5, r19	; 0x05
    62b4:	24 83       	std	Z+4, r18	; 0x04

    data_length     += IP_VERS_LEN;                //IP Headerlnge + UDP Headerlnge
    62b6:	8b 85       	ldd	r24, Y+11	; 0x0b
    62b8:	9c 85       	ldd	r25, Y+12	; 0x0c
    62ba:	44 96       	adiw	r24, 0x14	; 20
    62bc:	9c 87       	std	Y+12, r25	; 0x0c
    62be:	8b 87       	std	Y+11, r24	; 0x0b
    ip->IP_Pktlen = htons(data_length);
    62c0:	8b 85       	ldd	r24, Y+11	; 0x0b
    62c2:	9c 85       	ldd	r25, Y+12	; 0x0c
    62c4:	0e 94 5b 21 	call	0x42b6	; 0x42b6 <htons>
    62c8:	9c 01       	movw	r18, r24
    62ca:	8b 81       	ldd	r24, Y+3	; 0x03
    62cc:	9c 81       	ldd	r25, Y+4	; 0x04
    62ce:	fc 01       	movw	r30, r24
    62d0:	33 83       	std	Z+3, r19	; 0x03
    62d2:	22 83       	std	Z+2, r18	; 0x02
    data_length += ETH_HDR_LEN;
    62d4:	8b 85       	ldd	r24, Y+11	; 0x0b
    62d6:	9c 85       	ldd	r25, Y+12	; 0x0c
    62d8:	0e 96       	adiw	r24, 0x0e	; 14
    62da:	9c 87       	std	Y+12, r25	; 0x0c
    62dc:	8b 87       	std	Y+11, r24	; 0x0b
    ip->IP_Proto = PROT_UDP;
    62de:	8b 81       	ldd	r24, Y+3	; 0x03
    62e0:	9c 81       	ldd	r25, Y+4	; 0x04
    62e2:	21 e1       	ldi	r18, 0x11	; 17
    62e4:	fc 01       	movw	r30, r24
    62e6:	21 87       	std	Z+9, r18	; 0x09
    make_ip_header (eth_buffer,dest_ip);
    62e8:	89 89       	ldd	r24, Y+17	; 0x11
    62ea:	9a 89       	ldd	r25, Y+18	; 0x12
    62ec:	ab 89       	ldd	r26, Y+19	; 0x13
    62ee:	bc 89       	ldd	r27, Y+20	; 0x14
    62f0:	ac 01       	movw	r20, r24
    62f2:	bd 01       	movw	r22, r26
    62f4:	8d e3       	ldi	r24, 0x3D	; 61
    62f6:	93 e0       	ldi	r25, 0x03	; 3
    62f8:	0e 94 ac 2d 	call	0x5b58	; 0x5b58 <make_ip_header>

    udp->udp_Chksum = 0;
    62fc:	89 81       	ldd	r24, Y+1	; 0x01
    62fe:	9a 81       	ldd	r25, Y+2	; 0x02
    6300:	fc 01       	movw	r30, r24
    6302:	17 82       	std	Z+7, r1	; 0x07
    6304:	16 82       	std	Z+6, r1	; 0x06
  
    //Berechnet Headerlnge und Addiert Pseudoheaderlnge 2XIP = 8
    result16 = htons(ip->IP_Pktlen) + 8;
    6306:	8b 81       	ldd	r24, Y+3	; 0x03
    6308:	9c 81       	ldd	r25, Y+4	; 0x04
    630a:	fc 01       	movw	r30, r24
    630c:	82 81       	ldd	r24, Z+2	; 0x02
    630e:	93 81       	ldd	r25, Z+3	; 0x03
    6310:	0e 94 5b 21 	call	0x42b6	; 0x42b6 <htons>
    6314:	08 96       	adiw	r24, 0x08	; 8
    6316:	9e 83       	std	Y+6, r25	; 0x06
    6318:	8d 83       	std	Y+5, r24	; 0x05
    result16 = result16 - ((ip->IP_Vers_Len & 0x0F) << 2);
    631a:	8b 81       	ldd	r24, Y+3	; 0x03
    631c:	9c 81       	ldd	r25, Y+4	; 0x04
    631e:	fc 01       	movw	r30, r24
    6320:	80 81       	ld	r24, Z
    6322:	88 2f       	mov	r24, r24
    6324:	90 e0       	ldi	r25, 0x00	; 0
    6326:	8f 70       	andi	r24, 0x0F	; 15
    6328:	99 27       	eor	r25, r25
    632a:	88 0f       	add	r24, r24
    632c:	99 1f       	adc	r25, r25
    632e:	88 0f       	add	r24, r24
    6330:	99 1f       	adc	r25, r25
    6332:	9c 01       	movw	r18, r24
    6334:	8d 81       	ldd	r24, Y+5	; 0x05
    6336:	9e 81       	ldd	r25, Y+6	; 0x06
    6338:	82 1b       	sub	r24, r18
    633a:	93 0b       	sbc	r25, r19
    633c:	9e 83       	std	Y+6, r25	; 0x06
    633e:	8d 83       	std	Y+5, r24	; 0x05
    result32 = result16 + 0x09;
    6340:	8d 81       	ldd	r24, Y+5	; 0x05
    6342:	9e 81       	ldd	r25, Y+6	; 0x06
    6344:	09 96       	adiw	r24, 0x09	; 9
    6346:	cc 01       	movw	r24, r24
    6348:	a0 e0       	ldi	r26, 0x00	; 0
    634a:	b0 e0       	ldi	r27, 0x00	; 0
    634c:	8f 83       	std	Y+7, r24	; 0x07
    634e:	98 87       	std	Y+8, r25	; 0x08
    6350:	a9 87       	std	Y+9, r26	; 0x09
    6352:	ba 87       	std	Y+10, r27	; 0x0a
  
    //Routine berechnet die Checksumme
    result16 = checksum ((&ip->IP_Vers_Len+12), result16, result32);
    6354:	8b 81       	ldd	r24, Y+3	; 0x03
    6356:	9c 81       	ldd	r25, Y+4	; 0x04
    6358:	fc 01       	movw	r30, r24
    635a:	3c 96       	adiw	r30, 0x0c	; 12
    635c:	8f 81       	ldd	r24, Y+7	; 0x07
    635e:	98 85       	ldd	r25, Y+8	; 0x08
    6360:	a9 85       	ldd	r26, Y+9	; 0x09
    6362:	ba 85       	ldd	r27, Y+10	; 0x0a
    6364:	6d 81       	ldd	r22, Y+5	; 0x05
    6366:	7e 81       	ldd	r23, Y+6	; 0x06
    6368:	9c 01       	movw	r18, r24
    636a:	ad 01       	movw	r20, r26
    636c:	cf 01       	movw	r24, r30
    636e:	0e 94 fd 2c 	call	0x59fa	; 0x59fa <checksum>
    6372:	9e 83       	std	Y+6, r25	; 0x06
    6374:	8d 83       	std	Y+5, r24	; 0x05
    udp->udp_Chksum = htons(result16);
    6376:	8d 81       	ldd	r24, Y+5	; 0x05
    6378:	9e 81       	ldd	r25, Y+6	; 0x06
    637a:	0e 94 5b 21 	call	0x42b6	; 0x42b6 <htons>
    637e:	9c 01       	movw	r18, r24
    6380:	89 81       	ldd	r24, Y+1	; 0x01
    6382:	9a 81       	ldd	r25, Y+2	; 0x02
    6384:	fc 01       	movw	r30, r24
    6386:	37 83       	std	Z+7, r19	; 0x07
    6388:	26 83       	std	Z+6, r18	; 0x06

    ETH_PACKET_SEND(data_length,eth_buffer); //send...
    638a:	8b 85       	ldd	r24, Y+11	; 0x0b
    638c:	9c 85       	ldd	r25, Y+12	; 0x0c
    638e:	6d e3       	ldi	r22, 0x3D	; 61
    6390:	73 e0       	ldi	r23, 0x03	; 3
    6392:	0e 94 c5 1c 	call	0x398a	; 0x398a <enc_send_packet>
	eth.no_reset	 = 1;	
    6396:	80 91 97 02 	lds	r24, 0x0297	; 0x800297 <eth>
    639a:	84 60       	ori	r24, 0x04	; 4
    639c:	80 93 97 02 	sts	0x0297, r24	; 0x800297 <eth>
    return;
    63a0:	00 00       	nop
}
    63a2:	64 96       	adiw	r28, 0x14	; 20
    63a4:	0f b6       	in	r0, 0x3f	; 63
    63a6:	f8 94       	cli
    63a8:	de bf       	out	0x3e, r29	; 62
    63aa:	0f be       	out	0x3f, r0	; 63
    63ac:	cd bf       	out	0x3d, r28	; 61
    63ae:	df 91       	pop	r29
    63b0:	cf 91       	pop	r28
    63b2:	1f 91       	pop	r17
    63b4:	0f 91       	pop	r16
    63b6:	08 95       	ret

000063b8 <tcp_socket_process>:

//----------------------------------------------------------------------------
//Diese Routine verwaltet die TCP Ports
void tcp_socket_process(void)
{
    63b8:	0f 93       	push	r16
    63ba:	1f 93       	push	r17
    63bc:	cf 93       	push	r28
    63be:	df 93       	push	r29
    63c0:	cd b7       	in	r28, 0x3d	; 61
    63c2:	de b7       	in	r29, 0x3e	; 62
    63c4:	2a 97       	sbiw	r28, 0x0a	; 10
    63c6:	0f b6       	in	r0, 0x3f	; 63
    63c8:	f8 94       	cli
    63ca:	de bf       	out	0x3e, r29	; 62
    63cc:	0f be       	out	0x3f, r0	; 63
    63ce:	cd bf       	out	0x3d, r28	; 61
	unsigned char index = 0;
    63d0:	1a 82       	std	Y+2, r1	; 0x02
	unsigned char port_index = 0;
    63d2:	19 82       	std	Y+1, r1	; 0x01
	unsigned long result32 = 0;
    63d4:	1b 82       	std	Y+3, r1	; 0x03
    63d6:	1c 82       	std	Y+4, r1	; 0x04
    63d8:	1d 82       	std	Y+5, r1	; 0x05
    63da:	1e 82       	std	Y+6, r1	; 0x06

	struct TCP_Header *tcp;
	tcp = (struct TCP_Header *)&eth_buffer[TCP_OFFSET];
    63dc:	8f e5       	ldi	r24, 0x5F	; 95
    63de:	93 e0       	ldi	r25, 0x03	; 3
    63e0:	98 87       	std	Y+8, r25	; 0x08
    63e2:	8f 83       	std	Y+7, r24	; 0x07

	struct IP_Header *ip;
	ip = (struct IP_Header *)&eth_buffer[IP_OFFSET];
    63e4:	8b e4       	ldi	r24, 0x4B	; 75
    63e6:	93 e0       	ldi	r25, 0x03	; 3
    63e8:	9a 87       	std	Y+10, r25	; 0x0a
    63ea:	89 87       	std	Y+9, r24	; 0x09

	//TCP DestPort mit Portanwendungsliste durchfhren
	while (TCP_PORT_TABLE[port_index].port && TCP_PORT_TABLE[port_index].port!=(htons(tcp->TCP_DestPort)))
    63ec:	03 c0       	rjmp	.+6      	; 0x63f4 <tcp_socket_process+0x3c>
	{ 
		port_index++;
    63ee:	89 81       	ldd	r24, Y+1	; 0x01
    63f0:	8f 5f       	subi	r24, 0xFF	; 255
    63f2:	89 83       	std	Y+1, r24	; 0x01

	struct IP_Header *ip;
	ip = (struct IP_Header *)&eth_buffer[IP_OFFSET];

	//TCP DestPort mit Portanwendungsliste durchfhren
	while (TCP_PORT_TABLE[port_index].port && TCP_PORT_TABLE[port_index].port!=(htons(tcp->TCP_DestPort)))
    63f4:	89 81       	ldd	r24, Y+1	; 0x01
    63f6:	88 2f       	mov	r24, r24
    63f8:	90 e0       	ldi	r25, 0x00	; 0
    63fa:	88 0f       	add	r24, r24
    63fc:	99 1f       	adc	r25, r25
    63fe:	88 0f       	add	r24, r24
    6400:	99 1f       	adc	r25, r25
    6402:	86 53       	subi	r24, 0x36	; 54
    6404:	9e 4f       	sbci	r25, 0xFE	; 254
    6406:	fc 01       	movw	r30, r24
    6408:	80 81       	ld	r24, Z
    640a:	91 81       	ldd	r25, Z+1	; 0x01
    640c:	89 2b       	or	r24, r25
    640e:	b1 f0       	breq	.+44     	; 0x643c <tcp_socket_process+0x84>
    6410:	89 81       	ldd	r24, Y+1	; 0x01
    6412:	88 2f       	mov	r24, r24
    6414:	90 e0       	ldi	r25, 0x00	; 0
    6416:	88 0f       	add	r24, r24
    6418:	99 1f       	adc	r25, r25
    641a:	88 0f       	add	r24, r24
    641c:	99 1f       	adc	r25, r25
    641e:	86 53       	subi	r24, 0x36	; 54
    6420:	9e 4f       	sbci	r25, 0xFE	; 254
    6422:	fc 01       	movw	r30, r24
    6424:	00 81       	ld	r16, Z
    6426:	11 81       	ldd	r17, Z+1	; 0x01
    6428:	8f 81       	ldd	r24, Y+7	; 0x07
    642a:	98 85       	ldd	r25, Y+8	; 0x08
    642c:	fc 01       	movw	r30, r24
    642e:	82 81       	ldd	r24, Z+2	; 0x02
    6430:	93 81       	ldd	r25, Z+3	; 0x03
    6432:	0e 94 5b 21 	call	0x42b6	; 0x42b6 <htons>
    6436:	08 17       	cp	r16, r24
    6438:	19 07       	cpc	r17, r25
    643a:	c9 f6       	brne	.-78     	; 0x63ee <tcp_socket_process+0x36>
		port_index++;
	}
	
	// Wenn index zu gross, dann beenden keine vorhandene Anwendung fr Port
	//Geht von einem Client was aus? Will eine Clientanwendung einen Port ffnen?
	if (!TCP_PORT_TABLE[port_index].port)
    643c:	89 81       	ldd	r24, Y+1	; 0x01
    643e:	88 2f       	mov	r24, r24
    6440:	90 e0       	ldi	r25, 0x00	; 0
    6442:	88 0f       	add	r24, r24
    6444:	99 1f       	adc	r25, r25
    6446:	88 0f       	add	r24, r24
    6448:	99 1f       	adc	r25, r25
    644a:	86 53       	subi	r24, 0x36	; 54
    644c:	9e 4f       	sbci	r25, 0xFE	; 254
    644e:	fc 01       	movw	r30, r24
    6450:	80 81       	ld	r24, Z
    6452:	91 81       	ldd	r25, Z+1	; 0x01
    6454:	89 2b       	or	r24, r25
    6456:	51 f4       	brne	.+20     	; 0x646c <tcp_socket_process+0xb4>
	{ 
		//Keine vorhandene Anwendung eingetragen! (ENDE)
		DEBUG("TCP Keine Anwendung gefunden!\r\n");
    6458:	87 e5       	ldi	r24, 0x57	; 87
    645a:	91 e2       	ldi	r25, 0x21	; 33
    645c:	29 2f       	mov	r18, r25
    645e:	2f 93       	push	r18
    6460:	8f 93       	push	r24
    6462:	0e 94 31 3a 	call	0x7462	; 0x7462 <usart_write_P>
    6466:	0f 90       	pop	r0
    6468:	0f 90       	pop	r0
		return;
    646a:	82 c3       	rjmp	.+1796   	; 0x6b70 <tcp_socket_process+0x7b8>
	}	
	
	//Server ffnet Port
	if((tcp->TCP_HdrFlags & SYN_FLAG) && (tcp->TCP_HdrFlags & ACK_FLAG))
    646c:	8f 81       	ldd	r24, Y+7	; 0x07
    646e:	98 85       	ldd	r25, Y+8	; 0x08
    6470:	fc 01       	movw	r30, r24
    6472:	85 85       	ldd	r24, Z+13	; 0x0d
    6474:	88 2f       	mov	r24, r24
    6476:	90 e0       	ldi	r25, 0x00	; 0
    6478:	82 70       	andi	r24, 0x02	; 2
    647a:	99 27       	eor	r25, r25
    647c:	89 2b       	or	r24, r25
    647e:	09 f4       	brne	.+2      	; 0x6482 <tcp_socket_process+0xca>
    6480:	a8 c0       	rjmp	.+336    	; 0x65d2 <tcp_socket_process+0x21a>
    6482:	8f 81       	ldd	r24, Y+7	; 0x07
    6484:	98 85       	ldd	r25, Y+8	; 0x08
    6486:	fc 01       	movw	r30, r24
    6488:	85 85       	ldd	r24, Z+13	; 0x0d
    648a:	88 2f       	mov	r24, r24
    648c:	90 e0       	ldi	r25, 0x00	; 0
    648e:	80 71       	andi	r24, 0x10	; 16
    6490:	99 27       	eor	r25, r25
    6492:	89 2b       	or	r24, r25
    6494:	09 f4       	brne	.+2      	; 0x6498 <tcp_socket_process+0xe0>
    6496:	9d c0       	rjmp	.+314    	; 0x65d2 <tcp_socket_process+0x21a>
	{	
		//Nimmt Eintrag auf da es eine Client - Anwendung fr den Port gibt
		tcp_entry_add (eth_buffer);
    6498:	8d e3       	ldi	r24, 0x3D	; 61
    649a:	93 e0       	ldi	r25, 0x03	; 3
    649c:	0e 94 4c 2e 	call	0x5c98	; 0x5c98 <tcp_entry_add>
		//War der Eintrag erfolgreich?
		index = tcp_entry_search (ip->IP_Srcaddr,tcp->TCP_SrcPort);
    64a0:	8f 81       	ldd	r24, Y+7	; 0x07
    64a2:	98 85       	ldd	r25, Y+8	; 0x08
    64a4:	fc 01       	movw	r30, r24
    64a6:	20 81       	ld	r18, Z
    64a8:	31 81       	ldd	r19, Z+1	; 0x01
    64aa:	89 85       	ldd	r24, Y+9	; 0x09
    64ac:	9a 85       	ldd	r25, Y+10	; 0x0a
    64ae:	fc 01       	movw	r30, r24
    64b0:	84 85       	ldd	r24, Z+12	; 0x0c
    64b2:	95 85       	ldd	r25, Z+13	; 0x0d
    64b4:	a6 85       	ldd	r26, Z+14	; 0x0e
    64b6:	b7 85       	ldd	r27, Z+15	; 0x0f
    64b8:	a9 01       	movw	r20, r18
    64ba:	bc 01       	movw	r22, r24
    64bc:	cd 01       	movw	r24, r26
    64be:	0e 94 65 30 	call	0x60ca	; 0x60ca <tcp_entry_search>
    64c2:	8a 83       	std	Y+2, r24	; 0x02
		if (index >= MAX_TCP_ENTRY) //Eintrag gefunden wenn ungleich
    64c4:	8a 81       	ldd	r24, Y+2	; 0x02
    64c6:	85 30       	cpi	r24, 0x05	; 5
    64c8:	50 f0       	brcs	.+20     	; 0x64de <tcp_socket_process+0x126>
		{
			DEBUG("TCP Eintrag nicht erfolgreich!\r\n");
    64ca:	87 e7       	ldi	r24, 0x77	; 119
    64cc:	91 e2       	ldi	r25, 0x21	; 33
    64ce:	29 2f       	mov	r18, r25
    64d0:	2f 93       	push	r18
    64d2:	8f 93       	push	r24
    64d4:	0e 94 31 3a 	call	0x7462	; 0x7462 <usart_write_P>
    64d8:	0f 90       	pop	r0
    64da:	0f 90       	pop	r0
			return;
    64dc:	49 c3       	rjmp	.+1682   	; 0x6b70 <tcp_socket_process+0x7b8>
		}
	
		tcp_entry[index].time = MAX_TCP_PORT_OPEN_TIME;
    64de:	8a 81       	ldd	r24, Y+2	; 0x02
    64e0:	28 2f       	mov	r18, r24
    64e2:	30 e0       	ldi	r19, 0x00	; 0
    64e4:	46 e1       	ldi	r20, 0x16	; 22
    64e6:	42 9f       	mul	r20, r18
    64e8:	c0 01       	movw	r24, r0
    64ea:	43 9f       	mul	r20, r19
    64ec:	90 0d       	add	r25, r0
    64ee:	11 24       	eor	r1, r1
    64f0:	80 54       	subi	r24, 0x40	; 64
    64f2:	9d 4f       	sbci	r25, 0xFD	; 253
    64f4:	2e e1       	ldi	r18, 0x1E	; 30
    64f6:	fc 01       	movw	r30, r24
    64f8:	20 83       	st	Z, r18
		DEBUG("TCP Port wurde vom Server geffnet STACK:%i\r\n",index);
    64fa:	8a 81       	ldd	r24, Y+2	; 0x02
    64fc:	28 2f       	mov	r18, r24
    64fe:	30 e0       	ldi	r19, 0x00	; 0
    6500:	88 e9       	ldi	r24, 0x98	; 152
    6502:	91 e2       	ldi	r25, 0x21	; 33
    6504:	43 2f       	mov	r20, r19
    6506:	4f 93       	push	r20
    6508:	2f 93       	push	r18
    650a:	29 2f       	mov	r18, r25
    650c:	2f 93       	push	r18
    650e:	8f 93       	push	r24
    6510:	0e 94 31 3a 	call	0x7462	; 0x7462 <usart_write_P>
    6514:	0f 90       	pop	r0
    6516:	0f 90       	pop	r0
    6518:	0f 90       	pop	r0
    651a:	0f 90       	pop	r0
		result32 = htons32(tcp_entry[index].seq_counter) + 1;
    651c:	8a 81       	ldd	r24, Y+2	; 0x02
    651e:	28 2f       	mov	r18, r24
    6520:	30 e0       	ldi	r19, 0x00	; 0
    6522:	46 e1       	ldi	r20, 0x16	; 22
    6524:	42 9f       	mul	r20, r18
    6526:	c0 01       	movw	r24, r0
    6528:	43 9f       	mul	r20, r19
    652a:	90 0d       	add	r25, r0
    652c:	11 24       	eor	r1, r1
    652e:	87 54       	subi	r24, 0x47	; 71
    6530:	9d 4f       	sbci	r25, 0xFD	; 253
    6532:	fc 01       	movw	r30, r24
    6534:	80 81       	ld	r24, Z
    6536:	91 81       	ldd	r25, Z+1	; 0x01
    6538:	a2 81       	ldd	r26, Z+2	; 0x02
    653a:	b3 81       	ldd	r27, Z+3	; 0x03
    653c:	bc 01       	movw	r22, r24
    653e:	cd 01       	movw	r24, r26
    6540:	0e 94 6c 21 	call	0x42d8	; 0x42d8 <htons32>
    6544:	dc 01       	movw	r26, r24
    6546:	cb 01       	movw	r24, r22
    6548:	01 96       	adiw	r24, 0x01	; 1
    654a:	a1 1d       	adc	r26, r1
    654c:	b1 1d       	adc	r27, r1
    654e:	8b 83       	std	Y+3, r24	; 0x03
    6550:	9c 83       	std	Y+4, r25	; 0x04
    6552:	ad 83       	std	Y+5, r26	; 0x05
    6554:	be 83       	std	Y+6, r27	; 0x06
		tcp_entry[index].seq_counter = htons32(result32);
    6556:	8a 81       	ldd	r24, Y+2	; 0x02
    6558:	08 2f       	mov	r16, r24
    655a:	10 e0       	ldi	r17, 0x00	; 0
    655c:	8b 81       	ldd	r24, Y+3	; 0x03
    655e:	9c 81       	ldd	r25, Y+4	; 0x04
    6560:	ad 81       	ldd	r26, Y+5	; 0x05
    6562:	be 81       	ldd	r27, Y+6	; 0x06
    6564:	bc 01       	movw	r22, r24
    6566:	cd 01       	movw	r24, r26
    6568:	0e 94 6c 21 	call	0x42d8	; 0x42d8 <htons32>
    656c:	dc 01       	movw	r26, r24
    656e:	cb 01       	movw	r24, r22
    6570:	46 e1       	ldi	r20, 0x16	; 22
    6572:	40 9f       	mul	r20, r16
    6574:	90 01       	movw	r18, r0
    6576:	41 9f       	mul	r20, r17
    6578:	30 0d       	add	r19, r0
    657a:	11 24       	eor	r1, r1
    657c:	27 54       	subi	r18, 0x47	; 71
    657e:	3d 4f       	sbci	r19, 0xFD	; 253
    6580:	f9 01       	movw	r30, r18
    6582:	80 83       	st	Z, r24
    6584:	91 83       	std	Z+1, r25	; 0x01
    6586:	a2 83       	std	Z+2, r26	; 0x02
    6588:	b3 83       	std	Z+3, r27	; 0x03
		tcp_entry[index].status =  ACK_FLAG;
    658a:	8a 81       	ldd	r24, Y+2	; 0x02
    658c:	28 2f       	mov	r18, r24
    658e:	30 e0       	ldi	r19, 0x00	; 0
    6590:	46 e1       	ldi	r20, 0x16	; 22
    6592:	42 9f       	mul	r20, r18
    6594:	c0 01       	movw	r24, r0
    6596:	43 9f       	mul	r20, r19
    6598:	90 0d       	add	r25, r0
    659a:	11 24       	eor	r1, r1
    659c:	83 54       	subi	r24, 0x43	; 67
    659e:	9d 4f       	sbci	r25, 0xFD	; 253
    65a0:	20 e1       	ldi	r18, 0x10	; 16
    65a2:	fc 01       	movw	r30, r24
    65a4:	20 83       	st	Z, r18
		create_new_tcp_packet(0,index);
    65a6:	6a 81       	ldd	r22, Y+2	; 0x02
    65a8:	80 e0       	ldi	r24, 0x00	; 0
    65aa:	90 e0       	ldi	r25, 0x00	; 0
    65ac:	0e 94 c3 35 	call	0x6b86	; 0x6b86 <create_new_tcp_packet>
		//Server Port wurde geffnet App. kann nun daten senden!
		tcp_entry[index].app_status = 1;
    65b0:	8a 81       	ldd	r24, Y+2	; 0x02
    65b2:	28 2f       	mov	r18, r24
    65b4:	30 e0       	ldi	r19, 0x00	; 0
    65b6:	46 e1       	ldi	r20, 0x16	; 22
    65b8:	42 9f       	mul	r20, r18
    65ba:	c0 01       	movw	r24, r0
    65bc:	43 9f       	mul	r20, r19
    65be:	90 0d       	add	r25, r0
    65c0:	11 24       	eor	r1, r1
    65c2:	82 54       	subi	r24, 0x42	; 66
    65c4:	9d 4f       	sbci	r25, 0xFD	; 253
    65c6:	21 e0       	ldi	r18, 0x01	; 1
    65c8:	30 e0       	ldi	r19, 0x00	; 0
    65ca:	fc 01       	movw	r30, r24
    65cc:	31 83       	std	Z+1, r19	; 0x01
    65ce:	20 83       	st	Z, r18
		return;
    65d0:	cf c2       	rjmp	.+1438   	; 0x6b70 <tcp_socket_process+0x7b8>
	}
	
	//Verbindungsaufbau nicht fr Anwendung bestimmt
	if(tcp->TCP_HdrFlags == SYN_FLAG)
    65d2:	8f 81       	ldd	r24, Y+7	; 0x07
    65d4:	98 85       	ldd	r25, Y+8	; 0x08
    65d6:	fc 01       	movw	r30, r24
    65d8:	85 85       	ldd	r24, Z+13	; 0x0d
    65da:	82 30       	cpi	r24, 0x02	; 2
    65dc:	09 f0       	breq	.+2      	; 0x65e0 <tcp_socket_process+0x228>
    65de:	48 c0       	rjmp	.+144    	; 0x6670 <tcp_socket_process+0x2b8>
	{
		//Nimmt Eintrag auf da es eine Server - Anwendung fr den Port gibt
		tcp_entry_add (eth_buffer);
    65e0:	8d e3       	ldi	r24, 0x3D	; 61
    65e2:	93 e0       	ldi	r25, 0x03	; 3
    65e4:	0e 94 4c 2e 	call	0x5c98	; 0x5c98 <tcp_entry_add>
		//War der Eintrag erfolgreich?
		index = tcp_entry_search (ip->IP_Srcaddr,tcp->TCP_SrcPort);
    65e8:	8f 81       	ldd	r24, Y+7	; 0x07
    65ea:	98 85       	ldd	r25, Y+8	; 0x08
    65ec:	fc 01       	movw	r30, r24
    65ee:	20 81       	ld	r18, Z
    65f0:	31 81       	ldd	r19, Z+1	; 0x01
    65f2:	89 85       	ldd	r24, Y+9	; 0x09
    65f4:	9a 85       	ldd	r25, Y+10	; 0x0a
    65f6:	fc 01       	movw	r30, r24
    65f8:	84 85       	ldd	r24, Z+12	; 0x0c
    65fa:	95 85       	ldd	r25, Z+13	; 0x0d
    65fc:	a6 85       	ldd	r26, Z+14	; 0x0e
    65fe:	b7 85       	ldd	r27, Z+15	; 0x0f
    6600:	a9 01       	movw	r20, r18
    6602:	bc 01       	movw	r22, r24
    6604:	cd 01       	movw	r24, r26
    6606:	0e 94 65 30 	call	0x60ca	; 0x60ca <tcp_entry_search>
    660a:	8a 83       	std	Y+2, r24	; 0x02
		if (index >= MAX_TCP_ENTRY) //Eintrag gefunden wenn ungleich
    660c:	8a 81       	ldd	r24, Y+2	; 0x02
    660e:	85 30       	cpi	r24, 0x05	; 5
    6610:	50 f0       	brcs	.+20     	; 0x6626 <tcp_socket_process+0x26e>
		{
			DEBUG("TCP Eintrag nicht erfolgreich!\r\n");
    6612:	86 ec       	ldi	r24, 0xC6	; 198
    6614:	91 e2       	ldi	r25, 0x21	; 33
    6616:	29 2f       	mov	r18, r25
    6618:	2f 93       	push	r18
    661a:	8f 93       	push	r24
    661c:	0e 94 31 3a 	call	0x7462	; 0x7462 <usart_write_P>
    6620:	0f 90       	pop	r0
    6622:	0f 90       	pop	r0
			return;
    6624:	a5 c2       	rjmp	.+1354   	; 0x6b70 <tcp_socket_process+0x7b8>
		}
	
		DEBUG("TCP New SERVER Connection! STACK:%i\r\n",index);
    6626:	8a 81       	ldd	r24, Y+2	; 0x02
    6628:	28 2f       	mov	r18, r24
    662a:	30 e0       	ldi	r19, 0x00	; 0
    662c:	87 ee       	ldi	r24, 0xE7	; 231
    662e:	91 e2       	ldi	r25, 0x21	; 33
    6630:	43 2f       	mov	r20, r19
    6632:	4f 93       	push	r20
    6634:	2f 93       	push	r18
    6636:	29 2f       	mov	r18, r25
    6638:	2f 93       	push	r18
    663a:	8f 93       	push	r24
    663c:	0e 94 31 3a 	call	0x7462	; 0x7462 <usart_write_P>
    6640:	0f 90       	pop	r0
    6642:	0f 90       	pop	r0
    6644:	0f 90       	pop	r0
    6646:	0f 90       	pop	r0
		
		tcp_entry[index].status =  ACK_FLAG | SYN_FLAG;
    6648:	8a 81       	ldd	r24, Y+2	; 0x02
    664a:	28 2f       	mov	r18, r24
    664c:	30 e0       	ldi	r19, 0x00	; 0
    664e:	46 e1       	ldi	r20, 0x16	; 22
    6650:	42 9f       	mul	r20, r18
    6652:	c0 01       	movw	r24, r0
    6654:	43 9f       	mul	r20, r19
    6656:	90 0d       	add	r25, r0
    6658:	11 24       	eor	r1, r1
    665a:	83 54       	subi	r24, 0x43	; 67
    665c:	9d 4f       	sbci	r25, 0xFD	; 253
    665e:	22 e1       	ldi	r18, 0x12	; 18
    6660:	fc 01       	movw	r30, r24
    6662:	20 83       	st	Z, r18
		create_new_tcp_packet(0,index);
    6664:	6a 81       	ldd	r22, Y+2	; 0x02
    6666:	80 e0       	ldi	r24, 0x00	; 0
    6668:	90 e0       	ldi	r25, 0x00	; 0
    666a:	0e 94 c3 35 	call	0x6b86	; 0x6b86 <create_new_tcp_packet>
		return;
    666e:	80 c2       	rjmp	.+1280   	; 0x6b70 <tcp_socket_process+0x7b8>
	}

	//Packeteintrag im TCP Stack finden!
	index = tcp_entry_search (ip->IP_Srcaddr,tcp->TCP_SrcPort);
    6670:	8f 81       	ldd	r24, Y+7	; 0x07
    6672:	98 85       	ldd	r25, Y+8	; 0x08
    6674:	fc 01       	movw	r30, r24
    6676:	20 81       	ld	r18, Z
    6678:	31 81       	ldd	r19, Z+1	; 0x01
    667a:	89 85       	ldd	r24, Y+9	; 0x09
    667c:	9a 85       	ldd	r25, Y+10	; 0x0a
    667e:	fc 01       	movw	r30, r24
    6680:	84 85       	ldd	r24, Z+12	; 0x0c
    6682:	95 85       	ldd	r25, Z+13	; 0x0d
    6684:	a6 85       	ldd	r26, Z+14	; 0x0e
    6686:	b7 85       	ldd	r27, Z+15	; 0x0f
    6688:	a9 01       	movw	r20, r18
    668a:	bc 01       	movw	r22, r24
    668c:	cd 01       	movw	r24, r26
    668e:	0e 94 65 30 	call	0x60ca	; 0x60ca <tcp_entry_search>
    6692:	8a 83       	std	Y+2, r24	; 0x02
	
	if (index >= MAX_TCP_ENTRY) //Eintrag nicht gefunden
    6694:	8a 81       	ldd	r24, Y+2	; 0x02
    6696:	85 30       	cpi	r24, 0x05	; 5
    6698:	08 f4       	brcc	.+2      	; 0x669c <tcp_socket_process+0x2e4>
    669a:	95 c0       	rjmp	.+298    	; 0x67c6 <tcp_socket_process+0x40e>
	{
		DEBUG("TCP Eintrag nicht gefunden\r\n");
    669c:	8d e0       	ldi	r24, 0x0D	; 13
    669e:	92 e2       	ldi	r25, 0x22	; 34
    66a0:	29 2f       	mov	r18, r25
    66a2:	2f 93       	push	r18
    66a4:	8f 93       	push	r24
    66a6:	0e 94 31 3a 	call	0x7462	; 0x7462 <usart_write_P>
    66aa:	0f 90       	pop	r0
    66ac:	0f 90       	pop	r0
		
		if(tcp->TCP_HdrFlags & FIN_FLAG || tcp->TCP_HdrFlags & RST_FLAG)
    66ae:	8f 81       	ldd	r24, Y+7	; 0x07
    66b0:	98 85       	ldd	r25, Y+8	; 0x08
    66b2:	fc 01       	movw	r30, r24
    66b4:	85 85       	ldd	r24, Z+13	; 0x0d
    66b6:	88 2f       	mov	r24, r24
    66b8:	90 e0       	ldi	r25, 0x00	; 0
    66ba:	81 70       	andi	r24, 0x01	; 1
    66bc:	99 27       	eor	r25, r25
    66be:	89 2b       	or	r24, r25
    66c0:	59 f4       	brne	.+22     	; 0x66d8 <tcp_socket_process+0x320>
    66c2:	8f 81       	ldd	r24, Y+7	; 0x07
    66c4:	98 85       	ldd	r25, Y+8	; 0x08
    66c6:	fc 01       	movw	r30, r24
    66c8:	85 85       	ldd	r24, Z+13	; 0x0d
    66ca:	88 2f       	mov	r24, r24
    66cc:	90 e0       	ldi	r25, 0x00	; 0
    66ce:	84 70       	andi	r24, 0x04	; 4
    66d0:	99 27       	eor	r25, r25
    66d2:	89 2b       	or	r24, r25
    66d4:	09 f4       	brne	.+2      	; 0x66d8 <tcp_socket_process+0x320>
    66d6:	76 c0       	rjmp	.+236    	; 0x67c4 <tcp_socket_process+0x40c>
		{
			tcp_entry_add (eth_buffer);//Temporrer Indexplatz	
    66d8:	8d e3       	ldi	r24, 0x3D	; 61
    66da:	93 e0       	ldi	r25, 0x03	; 3
    66dc:	0e 94 4c 2e 	call	0x5c98	; 0x5c98 <tcp_entry_add>
			result32 = htons32(tcp_entry[index].seq_counter) + 1;
    66e0:	8a 81       	ldd	r24, Y+2	; 0x02
    66e2:	28 2f       	mov	r18, r24
    66e4:	30 e0       	ldi	r19, 0x00	; 0
    66e6:	46 e1       	ldi	r20, 0x16	; 22
    66e8:	42 9f       	mul	r20, r18
    66ea:	c0 01       	movw	r24, r0
    66ec:	43 9f       	mul	r20, r19
    66ee:	90 0d       	add	r25, r0
    66f0:	11 24       	eor	r1, r1
    66f2:	87 54       	subi	r24, 0x47	; 71
    66f4:	9d 4f       	sbci	r25, 0xFD	; 253
    66f6:	fc 01       	movw	r30, r24
    66f8:	80 81       	ld	r24, Z
    66fa:	91 81       	ldd	r25, Z+1	; 0x01
    66fc:	a2 81       	ldd	r26, Z+2	; 0x02
    66fe:	b3 81       	ldd	r27, Z+3	; 0x03
    6700:	bc 01       	movw	r22, r24
    6702:	cd 01       	movw	r24, r26
    6704:	0e 94 6c 21 	call	0x42d8	; 0x42d8 <htons32>
    6708:	dc 01       	movw	r26, r24
    670a:	cb 01       	movw	r24, r22
    670c:	01 96       	adiw	r24, 0x01	; 1
    670e:	a1 1d       	adc	r26, r1
    6710:	b1 1d       	adc	r27, r1
    6712:	8b 83       	std	Y+3, r24	; 0x03
    6714:	9c 83       	std	Y+4, r25	; 0x04
    6716:	ad 83       	std	Y+5, r26	; 0x05
    6718:	be 83       	std	Y+6, r27	; 0x06
			tcp_entry[index].seq_counter = htons32(result32);
    671a:	8a 81       	ldd	r24, Y+2	; 0x02
    671c:	08 2f       	mov	r16, r24
    671e:	10 e0       	ldi	r17, 0x00	; 0
    6720:	8b 81       	ldd	r24, Y+3	; 0x03
    6722:	9c 81       	ldd	r25, Y+4	; 0x04
    6724:	ad 81       	ldd	r26, Y+5	; 0x05
    6726:	be 81       	ldd	r27, Y+6	; 0x06
    6728:	bc 01       	movw	r22, r24
    672a:	cd 01       	movw	r24, r26
    672c:	0e 94 6c 21 	call	0x42d8	; 0x42d8 <htons32>
    6730:	dc 01       	movw	r26, r24
    6732:	cb 01       	movw	r24, r22
    6734:	46 e1       	ldi	r20, 0x16	; 22
    6736:	40 9f       	mul	r20, r16
    6738:	90 01       	movw	r18, r0
    673a:	41 9f       	mul	r20, r17
    673c:	30 0d       	add	r19, r0
    673e:	11 24       	eor	r1, r1
    6740:	27 54       	subi	r18, 0x47	; 71
    6742:	3d 4f       	sbci	r19, 0xFD	; 253
    6744:	f9 01       	movw	r30, r18
    6746:	80 83       	st	Z, r24
    6748:	91 83       	std	Z+1, r25	; 0x01
    674a:	a2 83       	std	Z+2, r26	; 0x02
    674c:	b3 83       	std	Z+3, r27	; 0x03
			
			if (tcp_entry[index].status & FIN_FLAG)
    674e:	8a 81       	ldd	r24, Y+2	; 0x02
    6750:	28 2f       	mov	r18, r24
    6752:	30 e0       	ldi	r19, 0x00	; 0
    6754:	46 e1       	ldi	r20, 0x16	; 22
    6756:	42 9f       	mul	r20, r18
    6758:	c0 01       	movw	r24, r0
    675a:	43 9f       	mul	r20, r19
    675c:	90 0d       	add	r25, r0
    675e:	11 24       	eor	r1, r1
    6760:	83 54       	subi	r24, 0x43	; 67
    6762:	9d 4f       	sbci	r25, 0xFD	; 253
    6764:	fc 01       	movw	r30, r24
    6766:	80 81       	ld	r24, Z
    6768:	88 2f       	mov	r24, r24
    676a:	90 e0       	ldi	r25, 0x00	; 0
    676c:	81 70       	andi	r24, 0x01	; 1
    676e:	99 27       	eor	r25, r25
    6770:	89 2b       	or	r24, r25
    6772:	99 f0       	breq	.+38     	; 0x679a <tcp_socket_process+0x3e2>
			{
				tcp_entry[index].status = ACK_FLAG;
    6774:	8a 81       	ldd	r24, Y+2	; 0x02
    6776:	28 2f       	mov	r18, r24
    6778:	30 e0       	ldi	r19, 0x00	; 0
    677a:	46 e1       	ldi	r20, 0x16	; 22
    677c:	42 9f       	mul	r20, r18
    677e:	c0 01       	movw	r24, r0
    6780:	43 9f       	mul	r20, r19
    6782:	90 0d       	add	r25, r0
    6784:	11 24       	eor	r1, r1
    6786:	83 54       	subi	r24, 0x43	; 67
    6788:	9d 4f       	sbci	r25, 0xFD	; 253
    678a:	20 e1       	ldi	r18, 0x10	; 16
    678c:	fc 01       	movw	r30, r24
    678e:	20 83       	st	Z, r18
				create_new_tcp_packet(0,index);
    6790:	6a 81       	ldd	r22, Y+2	; 0x02
    6792:	80 e0       	ldi	r24, 0x00	; 0
    6794:	90 e0       	ldi	r25, 0x00	; 0
    6796:	0e 94 c3 35 	call	0x6b86	; 0x6b86 <create_new_tcp_packet>
			}
			tcp_index_del(index);
    679a:	8a 81       	ldd	r24, Y+2	; 0x02
    679c:	0e 94 c5 38 	call	0x718a	; 0x718a <tcp_index_del>
			DEBUG("TCP-Stack Eintrag gelscht! STACK:%i\r\n",index);
    67a0:	8a 81       	ldd	r24, Y+2	; 0x02
    67a2:	28 2f       	mov	r18, r24
    67a4:	30 e0       	ldi	r19, 0x00	; 0
    67a6:	8a e2       	ldi	r24, 0x2A	; 42
    67a8:	92 e2       	ldi	r25, 0x22	; 34
    67aa:	43 2f       	mov	r20, r19
    67ac:	4f 93       	push	r20
    67ae:	2f 93       	push	r18
    67b0:	29 2f       	mov	r18, r25
    67b2:	2f 93       	push	r18
    67b4:	8f 93       	push	r24
    67b6:	0e 94 31 3a 	call	0x7462	; 0x7462 <usart_write_P>
    67ba:	0f 90       	pop	r0
    67bc:	0f 90       	pop	r0
    67be:	0f 90       	pop	r0
    67c0:	0f 90       	pop	r0
			return;
    67c2:	d6 c1       	rjmp	.+940    	; 0x6b70 <tcp_socket_process+0x7b8>
		}
		return;
    67c4:	d5 c1       	rjmp	.+938    	; 0x6b70 <tcp_socket_process+0x7b8>
	}


	//Refresh des Eintrages
	tcp_entry_add (eth_buffer);
    67c6:	8d e3       	ldi	r24, 0x3D	; 61
    67c8:	93 e0       	ldi	r25, 0x03	; 3
    67ca:	0e 94 4c 2e 	call	0x5c98	; 0x5c98 <tcp_entry_add>
	
	//Host will verbindung beenden!
	if(tcp_entry[index].status & FIN_FLAG || tcp_entry[index].status & RST_FLAG)
    67ce:	8a 81       	ldd	r24, Y+2	; 0x02
    67d0:	28 2f       	mov	r18, r24
    67d2:	30 e0       	ldi	r19, 0x00	; 0
    67d4:	46 e1       	ldi	r20, 0x16	; 22
    67d6:	42 9f       	mul	r20, r18
    67d8:	c0 01       	movw	r24, r0
    67da:	43 9f       	mul	r20, r19
    67dc:	90 0d       	add	r25, r0
    67de:	11 24       	eor	r1, r1
    67e0:	83 54       	subi	r24, 0x43	; 67
    67e2:	9d 4f       	sbci	r25, 0xFD	; 253
    67e4:	fc 01       	movw	r30, r24
    67e6:	80 81       	ld	r24, Z
    67e8:	88 2f       	mov	r24, r24
    67ea:	90 e0       	ldi	r25, 0x00	; 0
    67ec:	81 70       	andi	r24, 0x01	; 1
    67ee:	99 27       	eor	r25, r25
    67f0:	89 2b       	or	r24, r25
    67f2:	a1 f4       	brne	.+40     	; 0x681c <tcp_socket_process+0x464>
    67f4:	8a 81       	ldd	r24, Y+2	; 0x02
    67f6:	28 2f       	mov	r18, r24
    67f8:	30 e0       	ldi	r19, 0x00	; 0
    67fa:	46 e1       	ldi	r20, 0x16	; 22
    67fc:	42 9f       	mul	r20, r18
    67fe:	c0 01       	movw	r24, r0
    6800:	43 9f       	mul	r20, r19
    6802:	90 0d       	add	r25, r0
    6804:	11 24       	eor	r1, r1
    6806:	83 54       	subi	r24, 0x43	; 67
    6808:	9d 4f       	sbci	r25, 0xFD	; 253
    680a:	fc 01       	movw	r30, r24
    680c:	80 81       	ld	r24, Z
    680e:	88 2f       	mov	r24, r24
    6810:	90 e0       	ldi	r25, 0x00	; 0
    6812:	84 70       	andi	r24, 0x04	; 4
    6814:	99 27       	eor	r25, r25
    6816:	89 2b       	or	r24, r25
    6818:	09 f4       	brne	.+2      	; 0x681c <tcp_socket_process+0x464>
    681a:	81 c0       	rjmp	.+258    	; 0x691e <tcp_socket_process+0x566>
	{	
		result32 = htons32(tcp_entry[index].seq_counter) + 1;
    681c:	8a 81       	ldd	r24, Y+2	; 0x02
    681e:	28 2f       	mov	r18, r24
    6820:	30 e0       	ldi	r19, 0x00	; 0
    6822:	46 e1       	ldi	r20, 0x16	; 22
    6824:	42 9f       	mul	r20, r18
    6826:	c0 01       	movw	r24, r0
    6828:	43 9f       	mul	r20, r19
    682a:	90 0d       	add	r25, r0
    682c:	11 24       	eor	r1, r1
    682e:	87 54       	subi	r24, 0x47	; 71
    6830:	9d 4f       	sbci	r25, 0xFD	; 253
    6832:	fc 01       	movw	r30, r24
    6834:	80 81       	ld	r24, Z
    6836:	91 81       	ldd	r25, Z+1	; 0x01
    6838:	a2 81       	ldd	r26, Z+2	; 0x02
    683a:	b3 81       	ldd	r27, Z+3	; 0x03
    683c:	bc 01       	movw	r22, r24
    683e:	cd 01       	movw	r24, r26
    6840:	0e 94 6c 21 	call	0x42d8	; 0x42d8 <htons32>
    6844:	dc 01       	movw	r26, r24
    6846:	cb 01       	movw	r24, r22
    6848:	01 96       	adiw	r24, 0x01	; 1
    684a:	a1 1d       	adc	r26, r1
    684c:	b1 1d       	adc	r27, r1
    684e:	8b 83       	std	Y+3, r24	; 0x03
    6850:	9c 83       	std	Y+4, r25	; 0x04
    6852:	ad 83       	std	Y+5, r26	; 0x05
    6854:	be 83       	std	Y+6, r27	; 0x06
		tcp_entry[index].seq_counter = htons32(result32);
    6856:	8a 81       	ldd	r24, Y+2	; 0x02
    6858:	08 2f       	mov	r16, r24
    685a:	10 e0       	ldi	r17, 0x00	; 0
    685c:	8b 81       	ldd	r24, Y+3	; 0x03
    685e:	9c 81       	ldd	r25, Y+4	; 0x04
    6860:	ad 81       	ldd	r26, Y+5	; 0x05
    6862:	be 81       	ldd	r27, Y+6	; 0x06
    6864:	bc 01       	movw	r22, r24
    6866:	cd 01       	movw	r24, r26
    6868:	0e 94 6c 21 	call	0x42d8	; 0x42d8 <htons32>
    686c:	dc 01       	movw	r26, r24
    686e:	cb 01       	movw	r24, r22
    6870:	46 e1       	ldi	r20, 0x16	; 22
    6872:	40 9f       	mul	r20, r16
    6874:	90 01       	movw	r18, r0
    6876:	41 9f       	mul	r20, r17
    6878:	30 0d       	add	r19, r0
    687a:	11 24       	eor	r1, r1
    687c:	27 54       	subi	r18, 0x47	; 71
    687e:	3d 4f       	sbci	r19, 0xFD	; 253
    6880:	f9 01       	movw	r30, r18
    6882:	80 83       	st	Z, r24
    6884:	91 83       	std	Z+1, r25	; 0x01
    6886:	a2 83       	std	Z+2, r26	; 0x02
    6888:	b3 83       	std	Z+3, r27	; 0x03
		
		if (tcp_entry[index].status & FIN_FLAG)
    688a:	8a 81       	ldd	r24, Y+2	; 0x02
    688c:	28 2f       	mov	r18, r24
    688e:	30 e0       	ldi	r19, 0x00	; 0
    6890:	46 e1       	ldi	r20, 0x16	; 22
    6892:	42 9f       	mul	r20, r18
    6894:	c0 01       	movw	r24, r0
    6896:	43 9f       	mul	r20, r19
    6898:	90 0d       	add	r25, r0
    689a:	11 24       	eor	r1, r1
    689c:	83 54       	subi	r24, 0x43	; 67
    689e:	9d 4f       	sbci	r25, 0xFD	; 253
    68a0:	fc 01       	movw	r30, r24
    68a2:	80 81       	ld	r24, Z
    68a4:	88 2f       	mov	r24, r24
    68a6:	90 e0       	ldi	r25, 0x00	; 0
    68a8:	81 70       	andi	r24, 0x01	; 1
    68aa:	99 27       	eor	r25, r25
    68ac:	89 2b       	or	r24, r25
    68ae:	11 f1       	breq	.+68     	; 0x68f4 <tcp_socket_process+0x53c>
		{
			// Ende der Anwendung mitteilen !
			TCP_PORT_TABLE[port_index].fp(index);
    68b0:	89 81       	ldd	r24, Y+1	; 0x01
    68b2:	88 2f       	mov	r24, r24
    68b4:	90 e0       	ldi	r25, 0x00	; 0
    68b6:	88 0f       	add	r24, r24
    68b8:	99 1f       	adc	r25, r25
    68ba:	88 0f       	add	r24, r24
    68bc:	99 1f       	adc	r25, r25
    68be:	84 53       	subi	r24, 0x34	; 52
    68c0:	9e 4f       	sbci	r25, 0xFE	; 254
    68c2:	fc 01       	movw	r30, r24
    68c4:	20 81       	ld	r18, Z
    68c6:	31 81       	ldd	r19, Z+1	; 0x01
    68c8:	8a 81       	ldd	r24, Y+2	; 0x02
    68ca:	f9 01       	movw	r30, r18
    68cc:	09 95       	icall

			tcp_entry[index].status = ACK_FLAG | FIN_FLAG;
    68ce:	8a 81       	ldd	r24, Y+2	; 0x02
    68d0:	28 2f       	mov	r18, r24
    68d2:	30 e0       	ldi	r19, 0x00	; 0
    68d4:	46 e1       	ldi	r20, 0x16	; 22
    68d6:	42 9f       	mul	r20, r18
    68d8:	c0 01       	movw	r24, r0
    68da:	43 9f       	mul	r20, r19
    68dc:	90 0d       	add	r25, r0
    68de:	11 24       	eor	r1, r1
    68e0:	83 54       	subi	r24, 0x43	; 67
    68e2:	9d 4f       	sbci	r25, 0xFD	; 253
    68e4:	21 e1       	ldi	r18, 0x11	; 17
    68e6:	fc 01       	movw	r30, r24
    68e8:	20 83       	st	Z, r18
			create_new_tcp_packet(0,index);
    68ea:	6a 81       	ldd	r22, Y+2	; 0x02
    68ec:	80 e0       	ldi	r24, 0x00	; 0
    68ee:	90 e0       	ldi	r25, 0x00	; 0
    68f0:	0e 94 c3 35 	call	0x6b86	; 0x6b86 <create_new_tcp_packet>
		}
		tcp_index_del(index);
    68f4:	8a 81       	ldd	r24, Y+2	; 0x02
    68f6:	0e 94 c5 38 	call	0x718a	; 0x718a <tcp_index_del>
		DEBUG("TCP-Stack Eintrag gelscht! STACK:%i\r\n",index);
    68fa:	8a 81       	ldd	r24, Y+2	; 0x02
    68fc:	28 2f       	mov	r18, r24
    68fe:	30 e0       	ldi	r19, 0x00	; 0
    6900:	81 e5       	ldi	r24, 0x51	; 81
    6902:	92 e2       	ldi	r25, 0x22	; 34
    6904:	43 2f       	mov	r20, r19
    6906:	4f 93       	push	r20
    6908:	2f 93       	push	r18
    690a:	29 2f       	mov	r18, r25
    690c:	2f 93       	push	r18
    690e:	8f 93       	push	r24
    6910:	0e 94 31 3a 	call	0x7462	; 0x7462 <usart_write_P>
    6914:	0f 90       	pop	r0
    6916:	0f 90       	pop	r0
    6918:	0f 90       	pop	r0
    691a:	0f 90       	pop	r0
		return;
    691c:	29 c1       	rjmp	.+594    	; 0x6b70 <tcp_socket_process+0x7b8>
	}
	
	//Daten fr Anwendung PSH-Flag gesetzt?
	if((tcp_entry[index].status & PSH_FLAG) && 
    691e:	8a 81       	ldd	r24, Y+2	; 0x02
    6920:	28 2f       	mov	r18, r24
    6922:	30 e0       	ldi	r19, 0x00	; 0
    6924:	46 e1       	ldi	r20, 0x16	; 22
    6926:	42 9f       	mul	r20, r18
    6928:	c0 01       	movw	r24, r0
    692a:	43 9f       	mul	r20, r19
    692c:	90 0d       	add	r25, r0
    692e:	11 24       	eor	r1, r1
    6930:	83 54       	subi	r24, 0x43	; 67
    6932:	9d 4f       	sbci	r25, 0xFD	; 253
    6934:	fc 01       	movw	r30, r24
    6936:	80 81       	ld	r24, Z
    6938:	88 2f       	mov	r24, r24
    693a:	90 e0       	ldi	r25, 0x00	; 0
    693c:	88 70       	andi	r24, 0x08	; 8
    693e:	99 27       	eor	r25, r25
    6940:	89 2b       	or	r24, r25
    6942:	09 f4       	brne	.+2      	; 0x6946 <tcp_socket_process+0x58e>
    6944:	5f c0       	rjmp	.+190    	; 0x6a04 <tcp_socket_process+0x64c>
		(tcp_entry[index].status & ACK_FLAG))
    6946:	8a 81       	ldd	r24, Y+2	; 0x02
    6948:	28 2f       	mov	r18, r24
    694a:	30 e0       	ldi	r19, 0x00	; 0
    694c:	46 e1       	ldi	r20, 0x16	; 22
    694e:	42 9f       	mul	r20, r18
    6950:	c0 01       	movw	r24, r0
    6952:	43 9f       	mul	r20, r19
    6954:	90 0d       	add	r25, r0
    6956:	11 24       	eor	r1, r1
    6958:	83 54       	subi	r24, 0x43	; 67
    695a:	9d 4f       	sbci	r25, 0xFD	; 253
    695c:	fc 01       	movw	r30, r24
    695e:	80 81       	ld	r24, Z
    6960:	88 2f       	mov	r24, r24
    6962:	90 e0       	ldi	r25, 0x00	; 0
    6964:	80 71       	andi	r24, 0x10	; 16
    6966:	99 27       	eor	r25, r25
		DEBUG("TCP-Stack Eintrag gelscht! STACK:%i\r\n",index);
		return;
	}
	
	//Daten fr Anwendung PSH-Flag gesetzt?
	if((tcp_entry[index].status & PSH_FLAG) && 
    6968:	89 2b       	or	r24, r25
    696a:	09 f4       	brne	.+2      	; 0x696e <tcp_socket_process+0x5b6>
    696c:	4b c0       	rjmp	.+150    	; 0x6a04 <tcp_socket_process+0x64c>
		(tcp_entry[index].status & ACK_FLAG))
	{
		//zugehrige Anwendung ausfhren
		if(tcp_entry[index].app_status < 0xFFFE) tcp_entry[index].app_status++;	
    696e:	8a 81       	ldd	r24, Y+2	; 0x02
    6970:	28 2f       	mov	r18, r24
    6972:	30 e0       	ldi	r19, 0x00	; 0
    6974:	46 e1       	ldi	r20, 0x16	; 22
    6976:	42 9f       	mul	r20, r18
    6978:	c0 01       	movw	r24, r0
    697a:	43 9f       	mul	r20, r19
    697c:	90 0d       	add	r25, r0
    697e:	11 24       	eor	r1, r1
    6980:	82 54       	subi	r24, 0x42	; 66
    6982:	9d 4f       	sbci	r25, 0xFD	; 253
    6984:	fc 01       	movw	r30, r24
    6986:	80 81       	ld	r24, Z
    6988:	91 81       	ldd	r25, Z+1	; 0x01
    698a:	8e 3f       	cpi	r24, 0xFE	; 254
    698c:	9f 4f       	sbci	r25, 0xFF	; 255
    698e:	e0 f4       	brcc	.+56     	; 0x69c8 <tcp_socket_process+0x610>
    6990:	8a 81       	ldd	r24, Y+2	; 0x02
    6992:	88 2f       	mov	r24, r24
    6994:	90 e0       	ldi	r25, 0x00	; 0
    6996:	46 e1       	ldi	r20, 0x16	; 22
    6998:	48 9f       	mul	r20, r24
    699a:	90 01       	movw	r18, r0
    699c:	49 9f       	mul	r20, r25
    699e:	30 0d       	add	r19, r0
    69a0:	11 24       	eor	r1, r1
    69a2:	22 54       	subi	r18, 0x42	; 66
    69a4:	3d 4f       	sbci	r19, 0xFD	; 253
    69a6:	f9 01       	movw	r30, r18
    69a8:	20 81       	ld	r18, Z
    69aa:	31 81       	ldd	r19, Z+1	; 0x01
    69ac:	2f 5f       	subi	r18, 0xFF	; 255
    69ae:	3f 4f       	sbci	r19, 0xFF	; 255
    69b0:	66 e1       	ldi	r22, 0x16	; 22
    69b2:	68 9f       	mul	r22, r24
    69b4:	a0 01       	movw	r20, r0
    69b6:	69 9f       	mul	r22, r25
    69b8:	50 0d       	add	r21, r0
    69ba:	11 24       	eor	r1, r1
    69bc:	ca 01       	movw	r24, r20
    69be:	82 54       	subi	r24, 0x42	; 66
    69c0:	9d 4f       	sbci	r25, 0xFD	; 253
    69c2:	fc 01       	movw	r30, r24
    69c4:	31 83       	std	Z+1, r19	; 0x01
    69c6:	20 83       	st	Z, r18
		tcp_entry[index].status =  ACK_FLAG | PSH_FLAG;
    69c8:	8a 81       	ldd	r24, Y+2	; 0x02
    69ca:	28 2f       	mov	r18, r24
    69cc:	30 e0       	ldi	r19, 0x00	; 0
    69ce:	46 e1       	ldi	r20, 0x16	; 22
    69d0:	42 9f       	mul	r20, r18
    69d2:	c0 01       	movw	r24, r0
    69d4:	43 9f       	mul	r20, r19
    69d6:	90 0d       	add	r25, r0
    69d8:	11 24       	eor	r1, r1
    69da:	83 54       	subi	r24, 0x43	; 67
    69dc:	9d 4f       	sbci	r25, 0xFD	; 253
    69de:	28 e1       	ldi	r18, 0x18	; 24
    69e0:	fc 01       	movw	r30, r24
    69e2:	20 83       	st	Z, r18
		TCP_PORT_TABLE[port_index].fp(index); 
    69e4:	89 81       	ldd	r24, Y+1	; 0x01
    69e6:	88 2f       	mov	r24, r24
    69e8:	90 e0       	ldi	r25, 0x00	; 0
    69ea:	88 0f       	add	r24, r24
    69ec:	99 1f       	adc	r25, r25
    69ee:	88 0f       	add	r24, r24
    69f0:	99 1f       	adc	r25, r25
    69f2:	84 53       	subi	r24, 0x34	; 52
    69f4:	9e 4f       	sbci	r25, 0xFE	; 254
    69f6:	fc 01       	movw	r30, r24
    69f8:	20 81       	ld	r18, Z
    69fa:	31 81       	ldd	r19, Z+1	; 0x01
    69fc:	8a 81       	ldd	r24, Y+2	; 0x02
    69fe:	f9 01       	movw	r30, r18
    6a00:	09 95       	icall
		return;
    6a02:	b6 c0       	rjmp	.+364    	; 0x6b70 <tcp_socket_process+0x7b8>
	}
	
	//Empfangene Packet wurde besttigt keine Daten fr Anwendung
	//z.B. nach Verbindungsaufbau (SYN-PACKET)
	if((tcp_entry[index].status & ACK_FLAG) && (tcp_entry[index].first_ack == 0))
    6a04:	8a 81       	ldd	r24, Y+2	; 0x02
    6a06:	28 2f       	mov	r18, r24
    6a08:	30 e0       	ldi	r19, 0x00	; 0
    6a0a:	46 e1       	ldi	r20, 0x16	; 22
    6a0c:	42 9f       	mul	r20, r18
    6a0e:	c0 01       	movw	r24, r0
    6a10:	43 9f       	mul	r20, r19
    6a12:	90 0d       	add	r25, r0
    6a14:	11 24       	eor	r1, r1
    6a16:	83 54       	subi	r24, 0x43	; 67
    6a18:	9d 4f       	sbci	r25, 0xFD	; 253
    6a1a:	fc 01       	movw	r30, r24
    6a1c:	80 81       	ld	r24, Z
    6a1e:	88 2f       	mov	r24, r24
    6a20:	90 e0       	ldi	r25, 0x00	; 0
    6a22:	80 71       	andi	r24, 0x10	; 16
    6a24:	99 27       	eor	r25, r25
    6a26:	89 2b       	or	r24, r25
    6a28:	09 f1       	breq	.+66     	; 0x6a6c <tcp_socket_process+0x6b4>
    6a2a:	8a 81       	ldd	r24, Y+2	; 0x02
    6a2c:	28 2f       	mov	r18, r24
    6a2e:	30 e0       	ldi	r19, 0x00	; 0
    6a30:	46 e1       	ldi	r20, 0x16	; 22
    6a32:	42 9f       	mul	r20, r18
    6a34:	c0 01       	movw	r24, r0
    6a36:	43 9f       	mul	r20, r19
    6a38:	90 0d       	add	r25, r0
    6a3a:	11 24       	eor	r1, r1
    6a3c:	8e 53       	subi	r24, 0x3E	; 62
    6a3e:	9d 4f       	sbci	r25, 0xFD	; 253
    6a40:	fc 01       	movw	r30, r24
    6a42:	80 81       	ld	r24, Z
    6a44:	81 70       	andi	r24, 0x01	; 1
    6a46:	88 23       	and	r24, r24
    6a48:	89 f4       	brne	.+34     	; 0x6a6c <tcp_socket_process+0x6b4>
	{
		//keine weitere Aktion
		tcp_entry[index].first_ack = 1;
    6a4a:	8a 81       	ldd	r24, Y+2	; 0x02
    6a4c:	28 2f       	mov	r18, r24
    6a4e:	30 e0       	ldi	r19, 0x00	; 0
    6a50:	46 e1       	ldi	r20, 0x16	; 22
    6a52:	42 9f       	mul	r20, r18
    6a54:	c0 01       	movw	r24, r0
    6a56:	43 9f       	mul	r20, r19
    6a58:	90 0d       	add	r25, r0
    6a5a:	11 24       	eor	r1, r1
    6a5c:	8e 53       	subi	r24, 0x3E	; 62
    6a5e:	9d 4f       	sbci	r25, 0xFD	; 253
    6a60:	fc 01       	movw	r30, r24
    6a62:	20 81       	ld	r18, Z
    6a64:	21 60       	ori	r18, 0x01	; 1
    6a66:	fc 01       	movw	r30, r24
    6a68:	20 83       	st	Z, r18
		return;
    6a6a:	82 c0       	rjmp	.+260    	; 0x6b70 <tcp_socket_process+0x7b8>
	}
	
	//Empfangsbesttigung fr ein von der Anwendung gesendetes Packet (ENDE)
	if((tcp_entry[index].status & ACK_FLAG) && (tcp_entry[index].first_ack == 1))
    6a6c:	8a 81       	ldd	r24, Y+2	; 0x02
    6a6e:	28 2f       	mov	r18, r24
    6a70:	30 e0       	ldi	r19, 0x00	; 0
    6a72:	46 e1       	ldi	r20, 0x16	; 22
    6a74:	42 9f       	mul	r20, r18
    6a76:	c0 01       	movw	r24, r0
    6a78:	43 9f       	mul	r20, r19
    6a7a:	90 0d       	add	r25, r0
    6a7c:	11 24       	eor	r1, r1
    6a7e:	83 54       	subi	r24, 0x43	; 67
    6a80:	9d 4f       	sbci	r25, 0xFD	; 253
    6a82:	fc 01       	movw	r30, r24
    6a84:	80 81       	ld	r24, Z
    6a86:	88 2f       	mov	r24, r24
    6a88:	90 e0       	ldi	r25, 0x00	; 0
    6a8a:	80 71       	andi	r24, 0x10	; 16
    6a8c:	99 27       	eor	r25, r25
    6a8e:	89 2b       	or	r24, r25
    6a90:	09 f4       	brne	.+2      	; 0x6a94 <tcp_socket_process+0x6dc>
    6a92:	6d c0       	rjmp	.+218    	; 0x6b6e <tcp_socket_process+0x7b6>
    6a94:	8a 81       	ldd	r24, Y+2	; 0x02
    6a96:	28 2f       	mov	r18, r24
    6a98:	30 e0       	ldi	r19, 0x00	; 0
    6a9a:	46 e1       	ldi	r20, 0x16	; 22
    6a9c:	42 9f       	mul	r20, r18
    6a9e:	c0 01       	movw	r24, r0
    6aa0:	43 9f       	mul	r20, r19
    6aa2:	90 0d       	add	r25, r0
    6aa4:	11 24       	eor	r1, r1
    6aa6:	8e 53       	subi	r24, 0x3E	; 62
    6aa8:	9d 4f       	sbci	r25, 0xFD	; 253
    6aaa:	fc 01       	movw	r30, r24
    6aac:	80 81       	ld	r24, Z
    6aae:	81 70       	andi	r24, 0x01	; 1
    6ab0:	81 30       	cpi	r24, 0x01	; 1
    6ab2:	09 f0       	breq	.+2      	; 0x6ab6 <tcp_socket_process+0x6fe>
    6ab4:	5c c0       	rjmp	.+184    	; 0x6b6e <tcp_socket_process+0x7b6>
	{
		//ACK fr Verbindungs abbau
		if(tcp_entry[index].app_status == 0xFFFF)
    6ab6:	8a 81       	ldd	r24, Y+2	; 0x02
    6ab8:	28 2f       	mov	r18, r24
    6aba:	30 e0       	ldi	r19, 0x00	; 0
    6abc:	46 e1       	ldi	r20, 0x16	; 22
    6abe:	42 9f       	mul	r20, r18
    6ac0:	c0 01       	movw	r24, r0
    6ac2:	43 9f       	mul	r20, r19
    6ac4:	90 0d       	add	r25, r0
    6ac6:	11 24       	eor	r1, r1
    6ac8:	82 54       	subi	r24, 0x42	; 66
    6aca:	9d 4f       	sbci	r25, 0xFD	; 253
    6acc:	fc 01       	movw	r30, r24
    6ace:	80 81       	ld	r24, Z
    6ad0:	91 81       	ldd	r25, Z+1	; 0x01
    6ad2:	01 96       	adiw	r24, 0x01	; 1
    6ad4:	09 f4       	brne	.+2      	; 0x6ad8 <tcp_socket_process+0x720>
		{
			return;
    6ad6:	4c c0       	rjmp	.+152    	; 0x6b70 <tcp_socket_process+0x7b8>
		}

		//zugehrige Anwendung ausfhren
		tcp_entry[index].status =  ACK_FLAG;
    6ad8:	8a 81       	ldd	r24, Y+2	; 0x02
    6ada:	28 2f       	mov	r18, r24
    6adc:	30 e0       	ldi	r19, 0x00	; 0
    6ade:	46 e1       	ldi	r20, 0x16	; 22
    6ae0:	42 9f       	mul	r20, r18
    6ae2:	c0 01       	movw	r24, r0
    6ae4:	43 9f       	mul	r20, r19
    6ae6:	90 0d       	add	r25, r0
    6ae8:	11 24       	eor	r1, r1
    6aea:	83 54       	subi	r24, 0x43	; 67
    6aec:	9d 4f       	sbci	r25, 0xFD	; 253
    6aee:	20 e1       	ldi	r18, 0x10	; 16
    6af0:	fc 01       	movw	r30, r24
    6af2:	20 83       	st	Z, r18
		if(tcp_entry[index].app_status < 0xFFFE) tcp_entry[index].app_status++;
    6af4:	8a 81       	ldd	r24, Y+2	; 0x02
    6af6:	28 2f       	mov	r18, r24
    6af8:	30 e0       	ldi	r19, 0x00	; 0
    6afa:	46 e1       	ldi	r20, 0x16	; 22
    6afc:	42 9f       	mul	r20, r18
    6afe:	c0 01       	movw	r24, r0
    6b00:	43 9f       	mul	r20, r19
    6b02:	90 0d       	add	r25, r0
    6b04:	11 24       	eor	r1, r1
    6b06:	82 54       	subi	r24, 0x42	; 66
    6b08:	9d 4f       	sbci	r25, 0xFD	; 253
    6b0a:	fc 01       	movw	r30, r24
    6b0c:	80 81       	ld	r24, Z
    6b0e:	91 81       	ldd	r25, Z+1	; 0x01
    6b10:	8e 3f       	cpi	r24, 0xFE	; 254
    6b12:	9f 4f       	sbci	r25, 0xFF	; 255
    6b14:	e0 f4       	brcc	.+56     	; 0x6b4e <tcp_socket_process+0x796>
    6b16:	8a 81       	ldd	r24, Y+2	; 0x02
    6b18:	88 2f       	mov	r24, r24
    6b1a:	90 e0       	ldi	r25, 0x00	; 0
    6b1c:	46 e1       	ldi	r20, 0x16	; 22
    6b1e:	48 9f       	mul	r20, r24
    6b20:	90 01       	movw	r18, r0
    6b22:	49 9f       	mul	r20, r25
    6b24:	30 0d       	add	r19, r0
    6b26:	11 24       	eor	r1, r1
    6b28:	22 54       	subi	r18, 0x42	; 66
    6b2a:	3d 4f       	sbci	r19, 0xFD	; 253
    6b2c:	f9 01       	movw	r30, r18
    6b2e:	20 81       	ld	r18, Z
    6b30:	31 81       	ldd	r19, Z+1	; 0x01
    6b32:	2f 5f       	subi	r18, 0xFF	; 255
    6b34:	3f 4f       	sbci	r19, 0xFF	; 255
    6b36:	66 e1       	ldi	r22, 0x16	; 22
    6b38:	68 9f       	mul	r22, r24
    6b3a:	a0 01       	movw	r20, r0
    6b3c:	69 9f       	mul	r22, r25
    6b3e:	50 0d       	add	r21, r0
    6b40:	11 24       	eor	r1, r1
    6b42:	ca 01       	movw	r24, r20
    6b44:	82 54       	subi	r24, 0x42	; 66
    6b46:	9d 4f       	sbci	r25, 0xFD	; 253
    6b48:	fc 01       	movw	r30, r24
    6b4a:	31 83       	std	Z+1, r19	; 0x01
    6b4c:	20 83       	st	Z, r18
		TCP_PORT_TABLE[port_index].fp(index);
    6b4e:	89 81       	ldd	r24, Y+1	; 0x01
    6b50:	88 2f       	mov	r24, r24
    6b52:	90 e0       	ldi	r25, 0x00	; 0
    6b54:	88 0f       	add	r24, r24
    6b56:	99 1f       	adc	r25, r25
    6b58:	88 0f       	add	r24, r24
    6b5a:	99 1f       	adc	r25, r25
    6b5c:	84 53       	subi	r24, 0x34	; 52
    6b5e:	9e 4f       	sbci	r25, 0xFE	; 254
    6b60:	fc 01       	movw	r30, r24
    6b62:	20 81       	ld	r18, Z
    6b64:	31 81       	ldd	r19, Z+1	; 0x01
    6b66:	8a 81       	ldd	r24, Y+2	; 0x02
    6b68:	f9 01       	movw	r30, r18
    6b6a:	09 95       	icall
		return;
    6b6c:	01 c0       	rjmp	.+2      	; 0x6b70 <tcp_socket_process+0x7b8>
	}
	return;
    6b6e:	00 00       	nop
}
    6b70:	2a 96       	adiw	r28, 0x0a	; 10
    6b72:	0f b6       	in	r0, 0x3f	; 63
    6b74:	f8 94       	cli
    6b76:	de bf       	out	0x3e, r29	; 62
    6b78:	0f be       	out	0x3f, r0	; 63
    6b7a:	cd bf       	out	0x3d, r28	; 61
    6b7c:	df 91       	pop	r29
    6b7e:	cf 91       	pop	r28
    6b80:	1f 91       	pop	r17
    6b82:	0f 91       	pop	r16
    6b84:	08 95       	ret

00006b86 <create_new_tcp_packet>:

//----------------------------------------------------------------------------
//Diese Routine Erzeugt ein neues TCP Packet
void create_new_tcp_packet(unsigned int data_length,unsigned char index)
{
    6b86:	cf 93       	push	r28
    6b88:	df 93       	push	r29
    6b8a:	cd b7       	in	r28, 0x3d	; 61
    6b8c:	de b7       	in	r29, 0x3e	; 62
    6b8e:	2f 97       	sbiw	r28, 0x0f	; 15
    6b90:	0f b6       	in	r0, 0x3f	; 63
    6b92:	f8 94       	cli
    6b94:	de bf       	out	0x3e, r29	; 62
    6b96:	0f be       	out	0x3f, r0	; 63
    6b98:	cd bf       	out	0x3d, r28	; 61
    6b9a:	9e 87       	std	Y+14, r25	; 0x0e
    6b9c:	8d 87       	std	Y+13, r24	; 0x0d
    6b9e:	6f 87       	std	Y+15, r22	; 0x0f
    unsigned int  bufferlen;

    struct TCP_Header *tcp;
    struct IP_Header  *ip;

    tcp = (struct TCP_Header *)&eth_buffer[TCP_OFFSET];
    6ba0:	8f e5       	ldi	r24, 0x5F	; 95
    6ba2:	93 e0       	ldi	r25, 0x03	; 3
    6ba4:	9e 83       	std	Y+6, r25	; 0x06
    6ba6:	8d 83       	std	Y+5, r24	; 0x05
    ip  = (struct IP_Header  *)&eth_buffer[IP_OFFSET];
    6ba8:	8b e4       	ldi	r24, 0x4B	; 75
    6baa:	93 e0       	ldi	r25, 0x03	; 3
    6bac:	98 87       	std	Y+8, r25	; 0x08
    6bae:	8f 83       	std	Y+7, r24	; 0x07

    tcp->TCP_SrcPort   = tcp_entry[index].dest_port;
    6bb0:	8f 85       	ldd	r24, Y+15	; 0x0f
    6bb2:	28 2f       	mov	r18, r24
    6bb4:	30 e0       	ldi	r19, 0x00	; 0
    6bb6:	46 e1       	ldi	r20, 0x16	; 22
    6bb8:	42 9f       	mul	r20, r18
    6bba:	c0 01       	movw	r24, r0
    6bbc:	43 9f       	mul	r20, r19
    6bbe:	90 0d       	add	r25, r0
    6bc0:	11 24       	eor	r1, r1
    6bc2:	8d 54       	subi	r24, 0x4D	; 77
    6bc4:	9d 4f       	sbci	r25, 0xFD	; 253
    6bc6:	fc 01       	movw	r30, r24
    6bc8:	20 81       	ld	r18, Z
    6bca:	31 81       	ldd	r19, Z+1	; 0x01
    6bcc:	8d 81       	ldd	r24, Y+5	; 0x05
    6bce:	9e 81       	ldd	r25, Y+6	; 0x06
    6bd0:	fc 01       	movw	r30, r24
    6bd2:	31 83       	std	Z+1, r19	; 0x01
    6bd4:	20 83       	st	Z, r18
    tcp->TCP_DestPort  = tcp_entry[index].src_port;
    6bd6:	8f 85       	ldd	r24, Y+15	; 0x0f
    6bd8:	28 2f       	mov	r18, r24
    6bda:	30 e0       	ldi	r19, 0x00	; 0
    6bdc:	46 e1       	ldi	r20, 0x16	; 22
    6bde:	42 9f       	mul	r20, r18
    6be0:	c0 01       	movw	r24, r0
    6be2:	43 9f       	mul	r20, r19
    6be4:	90 0d       	add	r25, r0
    6be6:	11 24       	eor	r1, r1
    6be8:	8f 54       	subi	r24, 0x4F	; 79
    6bea:	9d 4f       	sbci	r25, 0xFD	; 253
    6bec:	fc 01       	movw	r30, r24
    6bee:	20 81       	ld	r18, Z
    6bf0:	31 81       	ldd	r19, Z+1	; 0x01
    6bf2:	8d 81       	ldd	r24, Y+5	; 0x05
    6bf4:	9e 81       	ldd	r25, Y+6	; 0x06
    6bf6:	fc 01       	movw	r30, r24
    6bf8:	33 83       	std	Z+3, r19	; 0x03
    6bfa:	22 83       	std	Z+2, r18	; 0x02
    tcp->TCP_UrgentPtr = 0;
    6bfc:	8d 81       	ldd	r24, Y+5	; 0x05
    6bfe:	9e 81       	ldd	r25, Y+6	; 0x06
    6c00:	fc 01       	movw	r30, r24
    6c02:	13 8a       	std	Z+19, r1	; 0x13
    6c04:	12 8a       	std	Z+18, r1	; 0x12
    tcp->TCP_Window    = htons(MAX_WINDOWS_SIZE);
    6c06:	84 ef       	ldi	r24, 0xF4	; 244
    6c08:	91 e0       	ldi	r25, 0x01	; 1
    6c0a:	0e 94 5b 21 	call	0x42b6	; 0x42b6 <htons>
    6c0e:	9c 01       	movw	r18, r24
    6c10:	8d 81       	ldd	r24, Y+5	; 0x05
    6c12:	9e 81       	ldd	r25, Y+6	; 0x06
    6c14:	fc 01       	movw	r30, r24
    6c16:	37 87       	std	Z+15, r19	; 0x0f
    6c18:	26 87       	std	Z+14, r18	; 0x0e
    tcp->TCP_Hdrlen    = 0x50;
    6c1a:	8d 81       	ldd	r24, Y+5	; 0x05
    6c1c:	9e 81       	ldd	r25, Y+6	; 0x06
    6c1e:	20 e5       	ldi	r18, 0x50	; 80
    6c20:	fc 01       	movw	r30, r24
    6c22:	24 87       	std	Z+12, r18	; 0x0c

    DEBUG("TCP SrcPort %4i\r\n", htons(tcp->TCP_SrcPort));
    6c24:	8d 81       	ldd	r24, Y+5	; 0x05
    6c26:	9e 81       	ldd	r25, Y+6	; 0x06
    6c28:	fc 01       	movw	r30, r24
    6c2a:	80 81       	ld	r24, Z
    6c2c:	91 81       	ldd	r25, Z+1	; 0x01
    6c2e:	0e 94 5b 21 	call	0x42b6	; 0x42b6 <htons>
    6c32:	9c 01       	movw	r18, r24
    6c34:	88 e7       	ldi	r24, 0x78	; 120
    6c36:	92 e2       	ldi	r25, 0x22	; 34
    6c38:	43 2f       	mov	r20, r19
    6c3a:	4f 93       	push	r20
    6c3c:	2f 93       	push	r18
    6c3e:	29 2f       	mov	r18, r25
    6c40:	2f 93       	push	r18
    6c42:	8f 93       	push	r24
    6c44:	0e 94 31 3a 	call	0x7462	; 0x7462 <usart_write_P>
    6c48:	0f 90       	pop	r0
    6c4a:	0f 90       	pop	r0
    6c4c:	0f 90       	pop	r0
    6c4e:	0f 90       	pop	r0

    result32 = htons32(tcp_entry[index].seq_counter); 
    6c50:	8f 85       	ldd	r24, Y+15	; 0x0f
    6c52:	28 2f       	mov	r18, r24
    6c54:	30 e0       	ldi	r19, 0x00	; 0
    6c56:	46 e1       	ldi	r20, 0x16	; 22
    6c58:	42 9f       	mul	r20, r18
    6c5a:	c0 01       	movw	r24, r0
    6c5c:	43 9f       	mul	r20, r19
    6c5e:	90 0d       	add	r25, r0
    6c60:	11 24       	eor	r1, r1
    6c62:	87 54       	subi	r24, 0x47	; 71
    6c64:	9d 4f       	sbci	r25, 0xFD	; 253
    6c66:	fc 01       	movw	r30, r24
    6c68:	80 81       	ld	r24, Z
    6c6a:	91 81       	ldd	r25, Z+1	; 0x01
    6c6c:	a2 81       	ldd	r26, Z+2	; 0x02
    6c6e:	b3 81       	ldd	r27, Z+3	; 0x03
    6c70:	bc 01       	movw	r22, r24
    6c72:	cd 01       	movw	r24, r26
    6c74:	0e 94 6c 21 	call	0x42d8	; 0x42d8 <htons32>
    6c78:	dc 01       	movw	r26, r24
    6c7a:	cb 01       	movw	r24, r22
    6c7c:	89 83       	std	Y+1, r24	; 0x01
    6c7e:	9a 83       	std	Y+2, r25	; 0x02
    6c80:	ab 83       	std	Y+3, r26	; 0x03
    6c82:	bc 83       	std	Y+4, r27	; 0x04

    tcp->TCP_HdrFlags = tcp_entry[index].status;
    6c84:	8f 85       	ldd	r24, Y+15	; 0x0f
    6c86:	28 2f       	mov	r18, r24
    6c88:	30 e0       	ldi	r19, 0x00	; 0
    6c8a:	46 e1       	ldi	r20, 0x16	; 22
    6c8c:	42 9f       	mul	r20, r18
    6c8e:	c0 01       	movw	r24, r0
    6c90:	43 9f       	mul	r20, r19
    6c92:	90 0d       	add	r25, r0
    6c94:	11 24       	eor	r1, r1
    6c96:	83 54       	subi	r24, 0x43	; 67
    6c98:	9d 4f       	sbci	r25, 0xFD	; 253
    6c9a:	fc 01       	movw	r30, r24
    6c9c:	20 81       	ld	r18, Z
    6c9e:	8d 81       	ldd	r24, Y+5	; 0x05
    6ca0:	9e 81       	ldd	r25, Y+6	; 0x06
    6ca2:	fc 01       	movw	r30, r24
    6ca4:	25 87       	std	Z+13, r18	; 0x0d

    //Verbindung wird aufgebaut
    if(tcp_entry[index].status & SYN_FLAG)
    6ca6:	8f 85       	ldd	r24, Y+15	; 0x0f
    6ca8:	28 2f       	mov	r18, r24
    6caa:	30 e0       	ldi	r19, 0x00	; 0
    6cac:	46 e1       	ldi	r20, 0x16	; 22
    6cae:	42 9f       	mul	r20, r18
    6cb0:	c0 01       	movw	r24, r0
    6cb2:	43 9f       	mul	r20, r19
    6cb4:	90 0d       	add	r25, r0
    6cb6:	11 24       	eor	r1, r1
    6cb8:	83 54       	subi	r24, 0x43	; 67
    6cba:	9d 4f       	sbci	r25, 0xFD	; 253
    6cbc:	fc 01       	movw	r30, r24
    6cbe:	80 81       	ld	r24, Z
    6cc0:	88 2f       	mov	r24, r24
    6cc2:	90 e0       	ldi	r25, 0x00	; 0
    6cc4:	82 70       	andi	r24, 0x02	; 2
    6cc6:	99 27       	eor	r25, r25
    6cc8:	89 2b       	or	r24, r25
    6cca:	01 f1       	breq	.+64     	; 0x6d0c <create_new_tcp_packet+0x186>
    {
        result32++;
    6ccc:	89 81       	ldd	r24, Y+1	; 0x01
    6cce:	9a 81       	ldd	r25, Y+2	; 0x02
    6cd0:	ab 81       	ldd	r26, Y+3	; 0x03
    6cd2:	bc 81       	ldd	r27, Y+4	; 0x04
    6cd4:	01 96       	adiw	r24, 0x01	; 1
    6cd6:	a1 1d       	adc	r26, r1
    6cd8:	b1 1d       	adc	r27, r1
    6cda:	89 83       	std	Y+1, r24	; 0x01
    6cdc:	9a 83       	std	Y+2, r25	; 0x02
    6cde:	ab 83       	std	Y+3, r26	; 0x03
    6ce0:	bc 83       	std	Y+4, r27	; 0x04
        // MSS-Option (siehe RFC 879) wil.
        eth_buffer[TCP_DATA_START]   = 2;
    6ce2:	82 e0       	ldi	r24, 0x02	; 2
    6ce4:	80 93 73 03 	sts	0x0373, r24	; 0x800373 <eth_buffer+0x36>
        eth_buffer[TCP_DATA_START+1] = 4;
    6ce8:	84 e0       	ldi	r24, 0x04	; 4
    6cea:	80 93 74 03 	sts	0x0374, r24	; 0x800374 <eth_buffer+0x37>
        eth_buffer[TCP_DATA_START+2] = (MAX_WINDOWS_SIZE >> 8) & 0xff;
    6cee:	81 e0       	ldi	r24, 0x01	; 1
    6cf0:	80 93 75 03 	sts	0x0375, r24	; 0x800375 <eth_buffer+0x38>
        eth_buffer[TCP_DATA_START+3] = MAX_WINDOWS_SIZE & 0xff;
    6cf4:	84 ef       	ldi	r24, 0xF4	; 244
    6cf6:	80 93 76 03 	sts	0x0376, r24	; 0x800376 <eth_buffer+0x39>
        data_length                  = 0x04;
    6cfa:	84 e0       	ldi	r24, 0x04	; 4
    6cfc:	90 e0       	ldi	r25, 0x00	; 0
    6cfe:	9e 87       	std	Y+14, r25	; 0x0e
    6d00:	8d 87       	std	Y+13, r24	; 0x0d
        tcp->TCP_Hdrlen              = 0x60;
    6d02:	8d 81       	ldd	r24, Y+5	; 0x05
    6d04:	9e 81       	ldd	r25, Y+6	; 0x06
    6d06:	20 e6       	ldi	r18, 0x60	; 96
    6d08:	fc 01       	movw	r30, r24
    6d0a:	24 87       	std	Z+12, r18	; 0x0c
    }
  
    tcp->TCP_Acknum = htons32(result32);
    6d0c:	89 81       	ldd	r24, Y+1	; 0x01
    6d0e:	9a 81       	ldd	r25, Y+2	; 0x02
    6d10:	ab 81       	ldd	r26, Y+3	; 0x03
    6d12:	bc 81       	ldd	r27, Y+4	; 0x04
    6d14:	bc 01       	movw	r22, r24
    6d16:	cd 01       	movw	r24, r26
    6d18:	0e 94 6c 21 	call	0x42d8	; 0x42d8 <htons32>
    6d1c:	dc 01       	movw	r26, r24
    6d1e:	cb 01       	movw	r24, r22
    6d20:	2d 81       	ldd	r18, Y+5	; 0x05
    6d22:	3e 81       	ldd	r19, Y+6	; 0x06
    6d24:	f9 01       	movw	r30, r18
    6d26:	80 87       	std	Z+8, r24	; 0x08
    6d28:	91 87       	std	Z+9, r25	; 0x09
    6d2a:	a2 87       	std	Z+10, r26	; 0x0a
    6d2c:	b3 87       	std	Z+11, r27	; 0x0b
    tcp->TCP_Seqnum = tcp_entry[index].ack_counter;
    6d2e:	8f 85       	ldd	r24, Y+15	; 0x0f
    6d30:	28 2f       	mov	r18, r24
    6d32:	30 e0       	ldi	r19, 0x00	; 0
    6d34:	46 e1       	ldi	r20, 0x16	; 22
    6d36:	42 9f       	mul	r20, r18
    6d38:	c0 01       	movw	r24, r0
    6d3a:	43 9f       	mul	r20, r19
    6d3c:	90 0d       	add	r25, r0
    6d3e:	11 24       	eor	r1, r1
    6d40:	8b 54       	subi	r24, 0x4B	; 75
    6d42:	9d 4f       	sbci	r25, 0xFD	; 253
    6d44:	fc 01       	movw	r30, r24
    6d46:	80 81       	ld	r24, Z
    6d48:	91 81       	ldd	r25, Z+1	; 0x01
    6d4a:	a2 81       	ldd	r26, Z+2	; 0x02
    6d4c:	b3 81       	ldd	r27, Z+3	; 0x03
    6d4e:	2d 81       	ldd	r18, Y+5	; 0x05
    6d50:	3e 81       	ldd	r19, Y+6	; 0x06
    6d52:	f9 01       	movw	r30, r18
    6d54:	84 83       	std	Z+4, r24	; 0x04
    6d56:	95 83       	std	Z+5, r25	; 0x05
    6d58:	a6 83       	std	Z+6, r26	; 0x06
    6d5a:	b7 83       	std	Z+7, r27	; 0x07

    bufferlen = IP_VERS_LEN + TCP_HDR_LEN + data_length;    //IP Headerlnge + TCP Headerlnge
    6d5c:	8d 85       	ldd	r24, Y+13	; 0x0d
    6d5e:	9e 85       	ldd	r25, Y+14	; 0x0e
    6d60:	88 96       	adiw	r24, 0x28	; 40
    6d62:	9a 87       	std	Y+10, r25	; 0x0a
    6d64:	89 87       	std	Y+9, r24	; 0x09
    ip->IP_Pktlen = htons(bufferlen);                      //Hier wird erstmal der IP Header neu erstellt
    6d66:	89 85       	ldd	r24, Y+9	; 0x09
    6d68:	9a 85       	ldd	r25, Y+10	; 0x0a
    6d6a:	0e 94 5b 21 	call	0x42b6	; 0x42b6 <htons>
    6d6e:	9c 01       	movw	r18, r24
    6d70:	8f 81       	ldd	r24, Y+7	; 0x07
    6d72:	98 85       	ldd	r25, Y+8	; 0x08
    6d74:	fc 01       	movw	r30, r24
    6d76:	33 83       	std	Z+3, r19	; 0x03
    6d78:	22 83       	std	Z+2, r18	; 0x02
    bufferlen += ETH_HDR_LEN;
    6d7a:	89 85       	ldd	r24, Y+9	; 0x09
    6d7c:	9a 85       	ldd	r25, Y+10	; 0x0a
    6d7e:	0e 96       	adiw	r24, 0x0e	; 14
    6d80:	9a 87       	std	Y+10, r25	; 0x0a
    6d82:	89 87       	std	Y+9, r24	; 0x09
    ip->IP_Proto = PROT_TCP;
    6d84:	8f 81       	ldd	r24, Y+7	; 0x07
    6d86:	98 85       	ldd	r25, Y+8	; 0x08
    6d88:	26 e0       	ldi	r18, 0x06	; 6
    6d8a:	fc 01       	movw	r30, r24
    6d8c:	21 87       	std	Z+9, r18	; 0x09
    make_ip_header (eth_buffer,tcp_entry[index].ip);
    6d8e:	8f 85       	ldd	r24, Y+15	; 0x0f
    6d90:	28 2f       	mov	r18, r24
    6d92:	30 e0       	ldi	r19, 0x00	; 0
    6d94:	46 e1       	ldi	r20, 0x16	; 22
    6d96:	42 9f       	mul	r20, r18
    6d98:	c0 01       	movw	r24, r0
    6d9a:	43 9f       	mul	r20, r19
    6d9c:	90 0d       	add	r25, r0
    6d9e:	11 24       	eor	r1, r1
    6da0:	83 55       	subi	r24, 0x53	; 83
    6da2:	9d 4f       	sbci	r25, 0xFD	; 253
    6da4:	fc 01       	movw	r30, r24
    6da6:	80 81       	ld	r24, Z
    6da8:	91 81       	ldd	r25, Z+1	; 0x01
    6daa:	a2 81       	ldd	r26, Z+2	; 0x02
    6dac:	b3 81       	ldd	r27, Z+3	; 0x03
    6dae:	ac 01       	movw	r20, r24
    6db0:	bd 01       	movw	r22, r26
    6db2:	8d e3       	ldi	r24, 0x3D	; 61
    6db4:	93 e0       	ldi	r25, 0x03	; 3
    6db6:	0e 94 ac 2d 	call	0x5b58	; 0x5b58 <make_ip_header>

    tcp->TCP_Chksum = 0;
    6dba:	8d 81       	ldd	r24, Y+5	; 0x05
    6dbc:	9e 81       	ldd	r25, Y+6	; 0x06
    6dbe:	fc 01       	movw	r30, r24
    6dc0:	11 8a       	std	Z+17, r1	; 0x11
    6dc2:	10 8a       	std	Z+16, r1	; 0x10

    //Berechnet Headerlnge und Addiert Pseudoheaderlnge 2XIP = 8
    result16 = htons(ip->IP_Pktlen) + 8;
    6dc4:	8f 81       	ldd	r24, Y+7	; 0x07
    6dc6:	98 85       	ldd	r25, Y+8	; 0x08
    6dc8:	fc 01       	movw	r30, r24
    6dca:	82 81       	ldd	r24, Z+2	; 0x02
    6dcc:	93 81       	ldd	r25, Z+3	; 0x03
    6dce:	0e 94 5b 21 	call	0x42b6	; 0x42b6 <htons>
    6dd2:	08 96       	adiw	r24, 0x08	; 8
    6dd4:	9c 87       	std	Y+12, r25	; 0x0c
    6dd6:	8b 87       	std	Y+11, r24	; 0x0b
    result16 = result16 - ((ip->IP_Vers_Len & 0x0F) << 2);
    6dd8:	8f 81       	ldd	r24, Y+7	; 0x07
    6dda:	98 85       	ldd	r25, Y+8	; 0x08
    6ddc:	fc 01       	movw	r30, r24
    6dde:	80 81       	ld	r24, Z
    6de0:	88 2f       	mov	r24, r24
    6de2:	90 e0       	ldi	r25, 0x00	; 0
    6de4:	8f 70       	andi	r24, 0x0F	; 15
    6de6:	99 27       	eor	r25, r25
    6de8:	88 0f       	add	r24, r24
    6dea:	99 1f       	adc	r25, r25
    6dec:	88 0f       	add	r24, r24
    6dee:	99 1f       	adc	r25, r25
    6df0:	9c 01       	movw	r18, r24
    6df2:	8b 85       	ldd	r24, Y+11	; 0x0b
    6df4:	9c 85       	ldd	r25, Y+12	; 0x0c
    6df6:	82 1b       	sub	r24, r18
    6df8:	93 0b       	sbc	r25, r19
    6dfa:	9c 87       	std	Y+12, r25	; 0x0c
    6dfc:	8b 87       	std	Y+11, r24	; 0x0b
    result32 = result16 - 2;
    6dfe:	8b 85       	ldd	r24, Y+11	; 0x0b
    6e00:	9c 85       	ldd	r25, Y+12	; 0x0c
    6e02:	02 97       	sbiw	r24, 0x02	; 2
    6e04:	cc 01       	movw	r24, r24
    6e06:	a0 e0       	ldi	r26, 0x00	; 0
    6e08:	b0 e0       	ldi	r27, 0x00	; 0
    6e0a:	89 83       	std	Y+1, r24	; 0x01
    6e0c:	9a 83       	std	Y+2, r25	; 0x02
    6e0e:	ab 83       	std	Y+3, r26	; 0x03
    6e10:	bc 83       	std	Y+4, r27	; 0x04

    //Checksum
    result16 = checksum ((&ip->IP_Vers_Len+12), result16, result32);
    6e12:	8f 81       	ldd	r24, Y+7	; 0x07
    6e14:	98 85       	ldd	r25, Y+8	; 0x08
    6e16:	fc 01       	movw	r30, r24
    6e18:	3c 96       	adiw	r30, 0x0c	; 12
    6e1a:	89 81       	ldd	r24, Y+1	; 0x01
    6e1c:	9a 81       	ldd	r25, Y+2	; 0x02
    6e1e:	ab 81       	ldd	r26, Y+3	; 0x03
    6e20:	bc 81       	ldd	r27, Y+4	; 0x04
    6e22:	6b 85       	ldd	r22, Y+11	; 0x0b
    6e24:	7c 85       	ldd	r23, Y+12	; 0x0c
    6e26:	9c 01       	movw	r18, r24
    6e28:	ad 01       	movw	r20, r26
    6e2a:	cf 01       	movw	r24, r30
    6e2c:	0e 94 fd 2c 	call	0x59fa	; 0x59fa <checksum>
    6e30:	9c 87       	std	Y+12, r25	; 0x0c
    6e32:	8b 87       	std	Y+11, r24	; 0x0b
    tcp->TCP_Chksum = htons(result16);
    6e34:	8b 85       	ldd	r24, Y+11	; 0x0b
    6e36:	9c 85       	ldd	r25, Y+12	; 0x0c
    6e38:	0e 94 5b 21 	call	0x42b6	; 0x42b6 <htons>
    6e3c:	9c 01       	movw	r18, r24
    6e3e:	8d 81       	ldd	r24, Y+5	; 0x05
    6e40:	9e 81       	ldd	r25, Y+6	; 0x06
    6e42:	fc 01       	movw	r30, r24
    6e44:	31 8b       	std	Z+17, r19	; 0x11
    6e46:	20 8b       	std	Z+16, r18	; 0x10

    //Send the TCP packet
    ETH_PACKET_SEND(bufferlen,eth_buffer);
    6e48:	89 85       	ldd	r24, Y+9	; 0x09
    6e4a:	9a 85       	ldd	r25, Y+10	; 0x0a
    6e4c:	6d e3       	ldi	r22, 0x3D	; 61
    6e4e:	73 e0       	ldi	r23, 0x03	; 3
    6e50:	0e 94 c5 1c 	call	0x398a	; 0x398a <enc_send_packet>
	eth.no_reset	 = 1;	
    6e54:	80 91 97 02 	lds	r24, 0x0297	; 0x800297 <eth>
    6e58:	84 60       	ori	r24, 0x04	; 4
    6e5a:	80 93 97 02 	sts	0x0297, r24	; 0x800297 <eth>
    //Fr Retransmission
    tcp_entry[index].status = 0;
    6e5e:	8f 85       	ldd	r24, Y+15	; 0x0f
    6e60:	28 2f       	mov	r18, r24
    6e62:	30 e0       	ldi	r19, 0x00	; 0
    6e64:	46 e1       	ldi	r20, 0x16	; 22
    6e66:	42 9f       	mul	r20, r18
    6e68:	c0 01       	movw	r24, r0
    6e6a:	43 9f       	mul	r20, r19
    6e6c:	90 0d       	add	r25, r0
    6e6e:	11 24       	eor	r1, r1
    6e70:	83 54       	subi	r24, 0x43	; 67
    6e72:	9d 4f       	sbci	r25, 0xFD	; 253
    6e74:	fc 01       	movw	r30, r24
    6e76:	10 82       	st	Z, r1
    return;
    6e78:	00 00       	nop
}
    6e7a:	2f 96       	adiw	r28, 0x0f	; 15
    6e7c:	0f b6       	in	r0, 0x3f	; 63
    6e7e:	f8 94       	cli
    6e80:	de bf       	out	0x3e, r29	; 62
    6e82:	0f be       	out	0x3f, r0	; 63
    6e84:	cd bf       	out	0x3d, r28	; 61
    6e86:	df 91       	pop	r29
    6e88:	cf 91       	pop	r28
    6e8a:	08 95       	ret

00006e8c <tcp_Port_close>:

//----------------------------------------------------------------------------
//Diese Routine schliet einen offenen TCP-Port
void tcp_Port_close (unsigned char index)
{
    6e8c:	cf 93       	push	r28
    6e8e:	df 93       	push	r29
    6e90:	1f 92       	push	r1
    6e92:	cd b7       	in	r28, 0x3d	; 61
    6e94:	de b7       	in	r29, 0x3e	; 62
    6e96:	89 83       	std	Y+1, r24	; 0x01
	DEBUG("Port wird im TCP Stack geschlossen STACK:%i\r\n",index);
    6e98:	89 81       	ldd	r24, Y+1	; 0x01
    6e9a:	28 2f       	mov	r18, r24
    6e9c:	30 e0       	ldi	r19, 0x00	; 0
    6e9e:	8a e8       	ldi	r24, 0x8A	; 138
    6ea0:	92 e2       	ldi	r25, 0x22	; 34
    6ea2:	43 2f       	mov	r20, r19
    6ea4:	4f 93       	push	r20
    6ea6:	2f 93       	push	r18
    6ea8:	29 2f       	mov	r18, r25
    6eaa:	2f 93       	push	r18
    6eac:	8f 93       	push	r24
    6eae:	0e 94 31 3a 	call	0x7462	; 0x7462 <usart_write_P>
    6eb2:	0f 90       	pop	r0
    6eb4:	0f 90       	pop	r0
    6eb6:	0f 90       	pop	r0
    6eb8:	0f 90       	pop	r0
	tcp_entry[index].app_status = 0xFFFF;
    6eba:	89 81       	ldd	r24, Y+1	; 0x01
    6ebc:	28 2f       	mov	r18, r24
    6ebe:	30 e0       	ldi	r19, 0x00	; 0
    6ec0:	46 e1       	ldi	r20, 0x16	; 22
    6ec2:	42 9f       	mul	r20, r18
    6ec4:	c0 01       	movw	r24, r0
    6ec6:	43 9f       	mul	r20, r19
    6ec8:	90 0d       	add	r25, r0
    6eca:	11 24       	eor	r1, r1
    6ecc:	82 54       	subi	r24, 0x42	; 66
    6ece:	9d 4f       	sbci	r25, 0xFD	; 253
    6ed0:	2f ef       	ldi	r18, 0xFF	; 255
    6ed2:	3f ef       	ldi	r19, 0xFF	; 255
    6ed4:	fc 01       	movw	r30, r24
    6ed6:	31 83       	std	Z+1, r19	; 0x01
    6ed8:	20 83       	st	Z, r18
	tcp_entry[index].status =  ACK_FLAG | FIN_FLAG;
    6eda:	89 81       	ldd	r24, Y+1	; 0x01
    6edc:	28 2f       	mov	r18, r24
    6ede:	30 e0       	ldi	r19, 0x00	; 0
    6ee0:	46 e1       	ldi	r20, 0x16	; 22
    6ee2:	42 9f       	mul	r20, r18
    6ee4:	c0 01       	movw	r24, r0
    6ee6:	43 9f       	mul	r20, r19
    6ee8:	90 0d       	add	r25, r0
    6eea:	11 24       	eor	r1, r1
    6eec:	83 54       	subi	r24, 0x43	; 67
    6eee:	9d 4f       	sbci	r25, 0xFD	; 253
    6ef0:	21 e1       	ldi	r18, 0x11	; 17
    6ef2:	fc 01       	movw	r30, r24
    6ef4:	20 83       	st	Z, r18
	create_new_tcp_packet(0,index);
    6ef6:	69 81       	ldd	r22, Y+1	; 0x01
    6ef8:	80 e0       	ldi	r24, 0x00	; 0
    6efa:	90 e0       	ldi	r25, 0x00	; 0
    6efc:	0e 94 c3 35 	call	0x6b86	; 0x6b86 <create_new_tcp_packet>
	return;
    6f00:	00 00       	nop
}
    6f02:	0f 90       	pop	r0
    6f04:	df 91       	pop	r29
    6f06:	cf 91       	pop	r28
    6f08:	08 95       	ret

00006f0a <find_and_start>:

//----------------------------------------------------------------------------
//Diese Routine findet die Anwendung anhand des TCP Ports
void find_and_start (unsigned char index)
{
    6f0a:	0f 93       	push	r16
    6f0c:	1f 93       	push	r17
    6f0e:	cf 93       	push	r28
    6f10:	df 93       	push	r29
    6f12:	00 d0       	rcall	.+0      	; 0x6f14 <find_and_start+0xa>
    6f14:	cd b7       	in	r28, 0x3d	; 61
    6f16:	de b7       	in	r29, 0x3e	; 62
    6f18:	8a 83       	std	Y+2, r24	; 0x02
    unsigned char port_index = 0;
    6f1a:	19 82       	std	Y+1, r1	; 0x01

    //Port mit Anwendung in der Liste suchen
    while ( (TCP_PORT_TABLE[port_index].port!=(htons(tcp_entry[index].dest_port))) &&
    6f1c:	03 c0       	rjmp	.+6      	; 0x6f24 <find_and_start+0x1a>
          (port_index < MAX_APP_ENTRY)                                                 )
    { 
        port_index++;
    6f1e:	89 81       	ldd	r24, Y+1	; 0x01
    6f20:	8f 5f       	subi	r24, 0xFF	; 255
    6f22:	89 83       	std	Y+1, r24	; 0x01
void find_and_start (unsigned char index)
{
    unsigned char port_index = 0;

    //Port mit Anwendung in der Liste suchen
    while ( (TCP_PORT_TABLE[port_index].port!=(htons(tcp_entry[index].dest_port))) &&
    6f24:	89 81       	ldd	r24, Y+1	; 0x01
    6f26:	88 2f       	mov	r24, r24
    6f28:	90 e0       	ldi	r25, 0x00	; 0
    6f2a:	88 0f       	add	r24, r24
    6f2c:	99 1f       	adc	r25, r25
    6f2e:	88 0f       	add	r24, r24
    6f30:	99 1f       	adc	r25, r25
    6f32:	86 53       	subi	r24, 0x36	; 54
    6f34:	9e 4f       	sbci	r25, 0xFE	; 254
    6f36:	fc 01       	movw	r30, r24
    6f38:	00 81       	ld	r16, Z
    6f3a:	11 81       	ldd	r17, Z+1	; 0x01
    6f3c:	8a 81       	ldd	r24, Y+2	; 0x02
    6f3e:	28 2f       	mov	r18, r24
    6f40:	30 e0       	ldi	r19, 0x00	; 0
    6f42:	46 e1       	ldi	r20, 0x16	; 22
    6f44:	42 9f       	mul	r20, r18
    6f46:	c0 01       	movw	r24, r0
    6f48:	43 9f       	mul	r20, r19
    6f4a:	90 0d       	add	r25, r0
    6f4c:	11 24       	eor	r1, r1
    6f4e:	8d 54       	subi	r24, 0x4D	; 77
    6f50:	9d 4f       	sbci	r25, 0xFD	; 253
    6f52:	fc 01       	movw	r30, r24
    6f54:	80 81       	ld	r24, Z
    6f56:	91 81       	ldd	r25, Z+1	; 0x01
    6f58:	0e 94 5b 21 	call	0x42b6	; 0x42b6 <htons>
    6f5c:	08 17       	cp	r16, r24
    6f5e:	19 07       	cpc	r17, r25
    6f60:	19 f0       	breq	.+6      	; 0x6f68 <find_and_start+0x5e>
    6f62:	89 81       	ldd	r24, Y+1	; 0x01
    6f64:	85 30       	cpi	r24, 0x05	; 5
    6f66:	d8 f2       	brcs	.-74     	; 0x6f1e <find_and_start+0x14>
          (port_index < MAX_APP_ENTRY)                                                 )
    { 
        port_index++;
    }
    if (port_index >= MAX_APP_ENTRY) return;
    6f68:	89 81       	ldd	r24, Y+1	; 0x01
    6f6a:	85 30       	cpi	r24, 0x05	; 5
    6f6c:	08 f0       	brcs	.+2      	; 0x6f70 <find_and_start+0x66>
    6f6e:	10 c0       	rjmp	.+32     	; 0x6f90 <find_and_start+0x86>
  
    //zugehrige Anwendung ausfhren (Senden wiederholen)
    TCP_PORT_TABLE[port_index].fp(index);
    6f70:	89 81       	ldd	r24, Y+1	; 0x01
    6f72:	88 2f       	mov	r24, r24
    6f74:	90 e0       	ldi	r25, 0x00	; 0
    6f76:	88 0f       	add	r24, r24
    6f78:	99 1f       	adc	r25, r25
    6f7a:	88 0f       	add	r24, r24
    6f7c:	99 1f       	adc	r25, r25
    6f7e:	84 53       	subi	r24, 0x34	; 52
    6f80:	9e 4f       	sbci	r25, 0xFE	; 254
    6f82:	fc 01       	movw	r30, r24
    6f84:	20 81       	ld	r18, Z
    6f86:	31 81       	ldd	r19, Z+1	; 0x01
    6f88:	8a 81       	ldd	r24, Y+2	; 0x02
    6f8a:	f9 01       	movw	r30, r18
    6f8c:	09 95       	icall
    return;
    6f8e:	00 00       	nop
}
    6f90:	0f 90       	pop	r0
    6f92:	0f 90       	pop	r0
    6f94:	df 91       	pop	r29
    6f96:	cf 91       	pop	r28
    6f98:	1f 91       	pop	r17
    6f9a:	0f 91       	pop	r16
    6f9c:	08 95       	ret

00006f9e <tcp_port_open>:

//----------------------------------------------------------------------------
//Diese Routine ffnet einen TCP-Port
void tcp_port_open (unsigned long dest_ip,unsigned int port_dst,unsigned int port_src)
{
    6f9e:	cf 93       	push	r28
    6fa0:	df 93       	push	r29
    6fa2:	cd b7       	in	r28, 0x3d	; 61
    6fa4:	de b7       	in	r29, 0x3e	; 62
    6fa6:	29 97       	sbiw	r28, 0x09	; 9
    6fa8:	0f b6       	in	r0, 0x3f	; 63
    6faa:	f8 94       	cli
    6fac:	de bf       	out	0x3e, r29	; 62
    6fae:	0f be       	out	0x3f, r0	; 63
    6fb0:	cd bf       	out	0x3d, r28	; 61
    6fb2:	6a 83       	std	Y+2, r22	; 0x02
    6fb4:	7b 83       	std	Y+3, r23	; 0x03
    6fb6:	8c 83       	std	Y+4, r24	; 0x04
    6fb8:	9d 83       	std	Y+5, r25	; 0x05
    6fba:	5f 83       	std	Y+7, r21	; 0x07
    6fbc:	4e 83       	std	Y+6, r20	; 0x06
    6fbe:	39 87       	std	Y+9, r19	; 0x09
    6fc0:	28 87       	std	Y+8, r18	; 0x08
	unsigned char index;
    
	ETH_INT_DISABLE;
    6fc2:	8b e5       	ldi	r24, 0x5B	; 91
    6fc4:	90 e0       	ldi	r25, 0x00	; 0
    6fc6:	2b e5       	ldi	r18, 0x5B	; 91
    6fc8:	30 e0       	ldi	r19, 0x00	; 0
    6fca:	f9 01       	movw	r30, r18
    6fcc:	20 81       	ld	r18, Z
    6fce:	2f 7d       	andi	r18, 0xDF	; 223
    6fd0:	fc 01       	movw	r30, r24
    6fd2:	20 83       	st	Z, r18
	DEBUG("Oeffen eines Ports mit Server\r\n");
    6fd4:	88 eb       	ldi	r24, 0xB8	; 184
    6fd6:	92 e2       	ldi	r25, 0x22	; 34
    6fd8:	29 2f       	mov	r18, r25
    6fda:	2f 93       	push	r18
    6fdc:	8f 93       	push	r24
    6fde:	0e 94 31 3a 	call	0x7462	; 0x7462 <usart_write_P>
    6fe2:	0f 90       	pop	r0
    6fe4:	0f 90       	pop	r0
	
	//Freien Eintrag finden
	for (index = 0;index<MAX_TCP_ENTRY;index++)
    6fe6:	19 82       	std	Y+1, r1	; 0x01
    6fe8:	9a c0       	rjmp	.+308    	; 0x711e <tcp_port_open+0x180>
	{
		if(tcp_entry[index].ip == 0)
    6fea:	89 81       	ldd	r24, Y+1	; 0x01
    6fec:	28 2f       	mov	r18, r24
    6fee:	30 e0       	ldi	r19, 0x00	; 0
    6ff0:	46 e1       	ldi	r20, 0x16	; 22
    6ff2:	42 9f       	mul	r20, r18
    6ff4:	c0 01       	movw	r24, r0
    6ff6:	43 9f       	mul	r20, r19
    6ff8:	90 0d       	add	r25, r0
    6ffa:	11 24       	eor	r1, r1
    6ffc:	83 55       	subi	r24, 0x53	; 83
    6ffe:	9d 4f       	sbci	r25, 0xFD	; 253
    7000:	fc 01       	movw	r30, r24
    7002:	80 81       	ld	r24, Z
    7004:	91 81       	ldd	r25, Z+1	; 0x01
    7006:	a2 81       	ldd	r26, Z+2	; 0x02
    7008:	b3 81       	ldd	r27, Z+3	; 0x03
    700a:	89 2b       	or	r24, r25
    700c:	8a 2b       	or	r24, r26
    700e:	8b 2b       	or	r24, r27
    7010:	09 f0       	breq	.+2      	; 0x7014 <tcp_port_open+0x76>
    7012:	82 c0       	rjmp	.+260    	; 0x7118 <tcp_port_open+0x17a>
		{
			tcp_index_del(index);
    7014:	89 81       	ldd	r24, Y+1	; 0x01
    7016:	0e 94 c5 38 	call	0x718a	; 0x718a <tcp_index_del>
			tcp_entry[index].ip = dest_ip;
    701a:	89 81       	ldd	r24, Y+1	; 0x01
    701c:	28 2f       	mov	r18, r24
    701e:	30 e0       	ldi	r19, 0x00	; 0
    7020:	46 e1       	ldi	r20, 0x16	; 22
    7022:	42 9f       	mul	r20, r18
    7024:	c0 01       	movw	r24, r0
    7026:	43 9f       	mul	r20, r19
    7028:	90 0d       	add	r25, r0
    702a:	11 24       	eor	r1, r1
    702c:	9c 01       	movw	r18, r24
    702e:	23 55       	subi	r18, 0x53	; 83
    7030:	3d 4f       	sbci	r19, 0xFD	; 253
    7032:	8a 81       	ldd	r24, Y+2	; 0x02
    7034:	9b 81       	ldd	r25, Y+3	; 0x03
    7036:	ac 81       	ldd	r26, Y+4	; 0x04
    7038:	bd 81       	ldd	r27, Y+5	; 0x05
    703a:	f9 01       	movw	r30, r18
    703c:	80 83       	st	Z, r24
    703e:	91 83       	std	Z+1, r25	; 0x01
    7040:	a2 83       	std	Z+2, r26	; 0x02
    7042:	b3 83       	std	Z+3, r27	; 0x03
			tcp_entry[index].src_port = port_dst;
    7044:	89 81       	ldd	r24, Y+1	; 0x01
    7046:	28 2f       	mov	r18, r24
    7048:	30 e0       	ldi	r19, 0x00	; 0
    704a:	46 e1       	ldi	r20, 0x16	; 22
    704c:	42 9f       	mul	r20, r18
    704e:	c0 01       	movw	r24, r0
    7050:	43 9f       	mul	r20, r19
    7052:	90 0d       	add	r25, r0
    7054:	11 24       	eor	r1, r1
    7056:	8f 54       	subi	r24, 0x4F	; 79
    7058:	9d 4f       	sbci	r25, 0xFD	; 253
    705a:	2e 81       	ldd	r18, Y+6	; 0x06
    705c:	3f 81       	ldd	r19, Y+7	; 0x07
    705e:	fc 01       	movw	r30, r24
    7060:	31 83       	std	Z+1, r19	; 0x01
    7062:	20 83       	st	Z, r18
			tcp_entry[index].dest_port = port_src;
    7064:	89 81       	ldd	r24, Y+1	; 0x01
    7066:	28 2f       	mov	r18, r24
    7068:	30 e0       	ldi	r19, 0x00	; 0
    706a:	46 e1       	ldi	r20, 0x16	; 22
    706c:	42 9f       	mul	r20, r18
    706e:	c0 01       	movw	r24, r0
    7070:	43 9f       	mul	r20, r19
    7072:	90 0d       	add	r25, r0
    7074:	11 24       	eor	r1, r1
    7076:	8d 54       	subi	r24, 0x4D	; 77
    7078:	9d 4f       	sbci	r25, 0xFD	; 253
    707a:	28 85       	ldd	r18, Y+8	; 0x08
    707c:	39 85       	ldd	r19, Y+9	; 0x09
    707e:	fc 01       	movw	r30, r24
    7080:	31 83       	std	Z+1, r19	; 0x01
    7082:	20 83       	st	Z, r18
			tcp_entry[index].ack_counter = 1234;
    7084:	89 81       	ldd	r24, Y+1	; 0x01
    7086:	28 2f       	mov	r18, r24
    7088:	30 e0       	ldi	r19, 0x00	; 0
    708a:	46 e1       	ldi	r20, 0x16	; 22
    708c:	42 9f       	mul	r20, r18
    708e:	c0 01       	movw	r24, r0
    7090:	43 9f       	mul	r20, r19
    7092:	90 0d       	add	r25, r0
    7094:	11 24       	eor	r1, r1
    7096:	9c 01       	movw	r18, r24
    7098:	2b 54       	subi	r18, 0x4B	; 75
    709a:	3d 4f       	sbci	r19, 0xFD	; 253
    709c:	82 ed       	ldi	r24, 0xD2	; 210
    709e:	94 e0       	ldi	r25, 0x04	; 4
    70a0:	a0 e0       	ldi	r26, 0x00	; 0
    70a2:	b0 e0       	ldi	r27, 0x00	; 0
    70a4:	f9 01       	movw	r30, r18
    70a6:	80 83       	st	Z, r24
    70a8:	91 83       	std	Z+1, r25	; 0x01
    70aa:	a2 83       	std	Z+2, r26	; 0x02
    70ac:	b3 83       	std	Z+3, r27	; 0x03
			tcp_entry[index].seq_counter = 2345;
    70ae:	89 81       	ldd	r24, Y+1	; 0x01
    70b0:	28 2f       	mov	r18, r24
    70b2:	30 e0       	ldi	r19, 0x00	; 0
    70b4:	46 e1       	ldi	r20, 0x16	; 22
    70b6:	42 9f       	mul	r20, r18
    70b8:	c0 01       	movw	r24, r0
    70ba:	43 9f       	mul	r20, r19
    70bc:	90 0d       	add	r25, r0
    70be:	11 24       	eor	r1, r1
    70c0:	9c 01       	movw	r18, r24
    70c2:	27 54       	subi	r18, 0x47	; 71
    70c4:	3d 4f       	sbci	r19, 0xFD	; 253
    70c6:	89 e2       	ldi	r24, 0x29	; 41
    70c8:	99 e0       	ldi	r25, 0x09	; 9
    70ca:	a0 e0       	ldi	r26, 0x00	; 0
    70cc:	b0 e0       	ldi	r27, 0x00	; 0
    70ce:	f9 01       	movw	r30, r18
    70d0:	80 83       	st	Z, r24
    70d2:	91 83       	std	Z+1, r25	; 0x01
    70d4:	a2 83       	std	Z+2, r26	; 0x02
    70d6:	b3 83       	std	Z+3, r27	; 0x03
			tcp_entry[index].time = MAX_TCP_PORT_OPEN_TIME;
    70d8:	89 81       	ldd	r24, Y+1	; 0x01
    70da:	28 2f       	mov	r18, r24
    70dc:	30 e0       	ldi	r19, 0x00	; 0
    70de:	46 e1       	ldi	r20, 0x16	; 22
    70e0:	42 9f       	mul	r20, r18
    70e2:	c0 01       	movw	r24, r0
    70e4:	43 9f       	mul	r20, r19
    70e6:	90 0d       	add	r25, r0
    70e8:	11 24       	eor	r1, r1
    70ea:	80 54       	subi	r24, 0x40	; 64
    70ec:	9d 4f       	sbci	r25, 0xFD	; 253
    70ee:	2e e1       	ldi	r18, 0x1E	; 30
    70f0:	fc 01       	movw	r30, r24
    70f2:	20 83       	st	Z, r18
			DEBUG("TCP Open neuer Eintrag %i\r\n",index);
    70f4:	89 81       	ldd	r24, Y+1	; 0x01
    70f6:	28 2f       	mov	r18, r24
    70f8:	30 e0       	ldi	r19, 0x00	; 0
    70fa:	88 ed       	ldi	r24, 0xD8	; 216
    70fc:	92 e2       	ldi	r25, 0x22	; 34
    70fe:	43 2f       	mov	r20, r19
    7100:	4f 93       	push	r20
    7102:	2f 93       	push	r18
    7104:	29 2f       	mov	r18, r25
    7106:	2f 93       	push	r18
    7108:	8f 93       	push	r24
    710a:	0e 94 31 3a 	call	0x7462	; 0x7462 <usart_write_P>
    710e:	0f 90       	pop	r0
    7110:	0f 90       	pop	r0
    7112:	0f 90       	pop	r0
    7114:	0f 90       	pop	r0
			break;
    7116:	07 c0       	rjmp	.+14     	; 0x7126 <tcp_port_open+0x188>
    
	ETH_INT_DISABLE;
	DEBUG("Oeffen eines Ports mit Server\r\n");
	
	//Freien Eintrag finden
	for (index = 0;index<MAX_TCP_ENTRY;index++)
    7118:	89 81       	ldd	r24, Y+1	; 0x01
    711a:	8f 5f       	subi	r24, 0xFF	; 255
    711c:	89 83       	std	Y+1, r24	; 0x01
    711e:	89 81       	ldd	r24, Y+1	; 0x01
    7120:	85 30       	cpi	r24, 0x05	; 5
    7122:	08 f4       	brcc	.+2      	; 0x7126 <tcp_port_open+0x188>
    7124:	62 cf       	rjmp	.-316    	; 0x6fea <tcp_port_open+0x4c>
			tcp_entry[index].time = MAX_TCP_PORT_OPEN_TIME;
			DEBUG("TCP Open neuer Eintrag %i\r\n",index);
			break;
		}
	}
	if (index >= MAX_TCP_ENTRY)
    7126:	89 81       	ldd	r24, Y+1	; 0x01
    7128:	85 30       	cpi	r24, 0x05	; 5
    712a:	48 f0       	brcs	.+18     	; 0x713e <tcp_port_open+0x1a0>
	{
		//Eintrag konnte nicht mehr aufgenommen werden
		DEBUG("Busy (NO MORE CONNECTIONS)!\r\n");
    712c:	84 ef       	ldi	r24, 0xF4	; 244
    712e:	92 e2       	ldi	r25, 0x22	; 34
    7130:	29 2f       	mov	r18, r25
    7132:	2f 93       	push	r18
    7134:	8f 93       	push	r24
    7136:	0e 94 31 3a 	call	0x7462	; 0x7462 <usart_write_P>
    713a:	0f 90       	pop	r0
    713c:	0f 90       	pop	r0
	}
	
	tcp_entry[index].status =  SYN_FLAG;
    713e:	89 81       	ldd	r24, Y+1	; 0x01
    7140:	28 2f       	mov	r18, r24
    7142:	30 e0       	ldi	r19, 0x00	; 0
    7144:	46 e1       	ldi	r20, 0x16	; 22
    7146:	42 9f       	mul	r20, r18
    7148:	c0 01       	movw	r24, r0
    714a:	43 9f       	mul	r20, r19
    714c:	90 0d       	add	r25, r0
    714e:	11 24       	eor	r1, r1
    7150:	83 54       	subi	r24, 0x43	; 67
    7152:	9d 4f       	sbci	r25, 0xFD	; 253
    7154:	22 e0       	ldi	r18, 0x02	; 2
    7156:	fc 01       	movw	r30, r24
    7158:	20 83       	st	Z, r18
	create_new_tcp_packet(0,index);
    715a:	69 81       	ldd	r22, Y+1	; 0x01
    715c:	80 e0       	ldi	r24, 0x00	; 0
    715e:	90 e0       	ldi	r25, 0x00	; 0
    7160:	0e 94 c3 35 	call	0x6b86	; 0x6b86 <create_new_tcp_packet>
	ETH_INT_ENABLE;
    7164:	8b e5       	ldi	r24, 0x5B	; 91
    7166:	90 e0       	ldi	r25, 0x00	; 0
    7168:	2b e5       	ldi	r18, 0x5B	; 91
    716a:	30 e0       	ldi	r19, 0x00	; 0
    716c:	f9 01       	movw	r30, r18
    716e:	20 81       	ld	r18, Z
    7170:	20 62       	ori	r18, 0x20	; 32
    7172:	fc 01       	movw	r30, r24
    7174:	20 83       	st	Z, r18
	return;
    7176:	00 00       	nop
}
    7178:	29 96       	adiw	r28, 0x09	; 9
    717a:	0f b6       	in	r0, 0x3f	; 63
    717c:	f8 94       	cli
    717e:	de bf       	out	0x3e, r29	; 62
    7180:	0f be       	out	0x3f, r0	; 63
    7182:	cd bf       	out	0x3d, r28	; 61
    7184:	df 91       	pop	r29
    7186:	cf 91       	pop	r28
    7188:	08 95       	ret

0000718a <tcp_index_del>:

//----------------------------------------------------------------------------
//Diese Routine lscht einen Eintrag
void tcp_index_del (unsigned char index)
{
    718a:	cf 93       	push	r28
    718c:	df 93       	push	r29
    718e:	1f 92       	push	r1
    7190:	cd b7       	in	r28, 0x3d	; 61
    7192:	de b7       	in	r29, 0x3e	; 62
    7194:	89 83       	std	Y+1, r24	; 0x01
	if (index<MAX_TCP_ENTRY + 1)
    7196:	89 81       	ldd	r24, Y+1	; 0x01
    7198:	86 30       	cpi	r24, 0x06	; 6
    719a:	08 f0       	brcs	.+2      	; 0x719e <tcp_index_del+0x14>
    719c:	84 c0       	rjmp	.+264    	; 0x72a6 <tcp_index_del+0x11c>
	{
		tcp_entry[index].ip = 0;
    719e:	89 81       	ldd	r24, Y+1	; 0x01
    71a0:	28 2f       	mov	r18, r24
    71a2:	30 e0       	ldi	r19, 0x00	; 0
    71a4:	46 e1       	ldi	r20, 0x16	; 22
    71a6:	42 9f       	mul	r20, r18
    71a8:	c0 01       	movw	r24, r0
    71aa:	43 9f       	mul	r20, r19
    71ac:	90 0d       	add	r25, r0
    71ae:	11 24       	eor	r1, r1
    71b0:	83 55       	subi	r24, 0x53	; 83
    71b2:	9d 4f       	sbci	r25, 0xFD	; 253
    71b4:	fc 01       	movw	r30, r24
    71b6:	10 82       	st	Z, r1
    71b8:	11 82       	std	Z+1, r1	; 0x01
    71ba:	12 82       	std	Z+2, r1	; 0x02
    71bc:	13 82       	std	Z+3, r1	; 0x03
		tcp_entry[index].src_port = 0;
    71be:	89 81       	ldd	r24, Y+1	; 0x01
    71c0:	28 2f       	mov	r18, r24
    71c2:	30 e0       	ldi	r19, 0x00	; 0
    71c4:	46 e1       	ldi	r20, 0x16	; 22
    71c6:	42 9f       	mul	r20, r18
    71c8:	c0 01       	movw	r24, r0
    71ca:	43 9f       	mul	r20, r19
    71cc:	90 0d       	add	r25, r0
    71ce:	11 24       	eor	r1, r1
    71d0:	8f 54       	subi	r24, 0x4F	; 79
    71d2:	9d 4f       	sbci	r25, 0xFD	; 253
    71d4:	fc 01       	movw	r30, r24
    71d6:	11 82       	std	Z+1, r1	; 0x01
    71d8:	10 82       	st	Z, r1
		tcp_entry[index].dest_port = 0;
    71da:	89 81       	ldd	r24, Y+1	; 0x01
    71dc:	28 2f       	mov	r18, r24
    71de:	30 e0       	ldi	r19, 0x00	; 0
    71e0:	46 e1       	ldi	r20, 0x16	; 22
    71e2:	42 9f       	mul	r20, r18
    71e4:	c0 01       	movw	r24, r0
    71e6:	43 9f       	mul	r20, r19
    71e8:	90 0d       	add	r25, r0
    71ea:	11 24       	eor	r1, r1
    71ec:	8d 54       	subi	r24, 0x4D	; 77
    71ee:	9d 4f       	sbci	r25, 0xFD	; 253
    71f0:	fc 01       	movw	r30, r24
    71f2:	11 82       	std	Z+1, r1	; 0x01
    71f4:	10 82       	st	Z, r1
		tcp_entry[index].ack_counter = 0;
    71f6:	89 81       	ldd	r24, Y+1	; 0x01
    71f8:	28 2f       	mov	r18, r24
    71fa:	30 e0       	ldi	r19, 0x00	; 0
    71fc:	46 e1       	ldi	r20, 0x16	; 22
    71fe:	42 9f       	mul	r20, r18
    7200:	c0 01       	movw	r24, r0
    7202:	43 9f       	mul	r20, r19
    7204:	90 0d       	add	r25, r0
    7206:	11 24       	eor	r1, r1
    7208:	8b 54       	subi	r24, 0x4B	; 75
    720a:	9d 4f       	sbci	r25, 0xFD	; 253
    720c:	fc 01       	movw	r30, r24
    720e:	10 82       	st	Z, r1
    7210:	11 82       	std	Z+1, r1	; 0x01
    7212:	12 82       	std	Z+2, r1	; 0x02
    7214:	13 82       	std	Z+3, r1	; 0x03
		tcp_entry[index].seq_counter = 0;
    7216:	89 81       	ldd	r24, Y+1	; 0x01
    7218:	28 2f       	mov	r18, r24
    721a:	30 e0       	ldi	r19, 0x00	; 0
    721c:	46 e1       	ldi	r20, 0x16	; 22
    721e:	42 9f       	mul	r20, r18
    7220:	c0 01       	movw	r24, r0
    7222:	43 9f       	mul	r20, r19
    7224:	90 0d       	add	r25, r0
    7226:	11 24       	eor	r1, r1
    7228:	87 54       	subi	r24, 0x47	; 71
    722a:	9d 4f       	sbci	r25, 0xFD	; 253
    722c:	fc 01       	movw	r30, r24
    722e:	10 82       	st	Z, r1
    7230:	11 82       	std	Z+1, r1	; 0x01
    7232:	12 82       	std	Z+2, r1	; 0x02
    7234:	13 82       	std	Z+3, r1	; 0x03
		tcp_entry[index].status = 0;
    7236:	89 81       	ldd	r24, Y+1	; 0x01
    7238:	28 2f       	mov	r18, r24
    723a:	30 e0       	ldi	r19, 0x00	; 0
    723c:	46 e1       	ldi	r20, 0x16	; 22
    723e:	42 9f       	mul	r20, r18
    7240:	c0 01       	movw	r24, r0
    7242:	43 9f       	mul	r20, r19
    7244:	90 0d       	add	r25, r0
    7246:	11 24       	eor	r1, r1
    7248:	83 54       	subi	r24, 0x43	; 67
    724a:	9d 4f       	sbci	r25, 0xFD	; 253
    724c:	fc 01       	movw	r30, r24
    724e:	10 82       	st	Z, r1
		tcp_entry[index].app_status = 0;
    7250:	89 81       	ldd	r24, Y+1	; 0x01
    7252:	28 2f       	mov	r18, r24
    7254:	30 e0       	ldi	r19, 0x00	; 0
    7256:	46 e1       	ldi	r20, 0x16	; 22
    7258:	42 9f       	mul	r20, r18
    725a:	c0 01       	movw	r24, r0
    725c:	43 9f       	mul	r20, r19
    725e:	90 0d       	add	r25, r0
    7260:	11 24       	eor	r1, r1
    7262:	82 54       	subi	r24, 0x42	; 66
    7264:	9d 4f       	sbci	r25, 0xFD	; 253
    7266:	fc 01       	movw	r30, r24
    7268:	11 82       	std	Z+1, r1	; 0x01
    726a:	10 82       	st	Z, r1
		tcp_entry[index].time = 0;
    726c:	89 81       	ldd	r24, Y+1	; 0x01
    726e:	28 2f       	mov	r18, r24
    7270:	30 e0       	ldi	r19, 0x00	; 0
    7272:	46 e1       	ldi	r20, 0x16	; 22
    7274:	42 9f       	mul	r20, r18
    7276:	c0 01       	movw	r24, r0
    7278:	43 9f       	mul	r20, r19
    727a:	90 0d       	add	r25, r0
    727c:	11 24       	eor	r1, r1
    727e:	80 54       	subi	r24, 0x40	; 64
    7280:	9d 4f       	sbci	r25, 0xFD	; 253
    7282:	fc 01       	movw	r30, r24
    7284:	10 82       	st	Z, r1
		tcp_entry[index].first_ack = 0;
    7286:	89 81       	ldd	r24, Y+1	; 0x01
    7288:	28 2f       	mov	r18, r24
    728a:	30 e0       	ldi	r19, 0x00	; 0
    728c:	46 e1       	ldi	r20, 0x16	; 22
    728e:	42 9f       	mul	r20, r18
    7290:	c0 01       	movw	r24, r0
    7292:	43 9f       	mul	r20, r19
    7294:	90 0d       	add	r25, r0
    7296:	11 24       	eor	r1, r1
    7298:	8e 53       	subi	r24, 0x3E	; 62
    729a:	9d 4f       	sbci	r25, 0xFD	; 253
    729c:	fc 01       	movw	r30, r24
    729e:	20 81       	ld	r18, Z
    72a0:	2e 7f       	andi	r18, 0xFE	; 254
    72a2:	fc 01       	movw	r30, r24
    72a4:	20 83       	st	Z, r18
	}
	return;
    72a6:	00 00       	nop
}
    72a8:	0f 90       	pop	r0
    72aa:	df 91       	pop	r29
    72ac:	cf 91       	pop	r28
    72ae:	08 95       	ret

000072b0 <timer_init>:
volatile unsigned long time_watchdog = 0;

//----------------------------------------------------------------------------
//Diese Routine startet und inizialisiert den Timer
void timer_init (void)
{
    72b0:	cf 93       	push	r28
    72b2:	df 93       	push	r29
    72b4:	cd b7       	in	r28, 0x3d	; 61
    72b6:	de b7       	in	r29, 0x3e	; 62
			while(ASSR & 0x07);
			//Capture/Compare-Interrupt aktiv
			TIMSK = (1<<OCIE2);			
		#endif
	#else
			TCCR1B |= (1<<WGM12) | (1<<CS10 | 0<<CS11 | 1<<CS12);
    72b8:	8e e4       	ldi	r24, 0x4E	; 78
    72ba:	90 e0       	ldi	r25, 0x00	; 0
    72bc:	2e e4       	ldi	r18, 0x4E	; 78
    72be:	30 e0       	ldi	r19, 0x00	; 0
    72c0:	f9 01       	movw	r30, r18
    72c2:	20 81       	ld	r18, Z
    72c4:	2d 60       	ori	r18, 0x0D	; 13
    72c6:	fc 01       	movw	r30, r24
    72c8:	20 83       	st	Z, r18
			TCNT1 = 0;
    72ca:	8c e4       	ldi	r24, 0x4C	; 76
    72cc:	90 e0       	ldi	r25, 0x00	; 0
    72ce:	fc 01       	movw	r30, r24
    72d0:	11 82       	std	Z+1, r1	; 0x01
    72d2:	10 82       	st	Z, r1
			OCR1A = (F_CPU / 1024) - 1;
    72d4:	8a e4       	ldi	r24, 0x4A	; 74
    72d6:	90 e0       	ldi	r25, 0x00	; 0
    72d8:	28 e0       	ldi	r18, 0x08	; 8
    72da:	3d e3       	ldi	r19, 0x3D	; 61
    72dc:	fc 01       	movw	r30, r24
    72de:	31 83       	std	Z+1, r19	; 0x01
    72e0:	20 83       	st	Z, r18
			TIMSK |= (1 << OCIE1A);
    72e2:	89 e5       	ldi	r24, 0x59	; 89
    72e4:	90 e0       	ldi	r25, 0x00	; 0
    72e6:	29 e5       	ldi	r18, 0x59	; 89
    72e8:	30 e0       	ldi	r19, 0x00	; 0
    72ea:	f9 01       	movw	r30, r18
    72ec:	20 81       	ld	r18, Z
    72ee:	20 61       	ori	r18, 0x10	; 16
    72f0:	fc 01       	movw	r30, r24
    72f2:	20 83       	st	Z, r18
	#endif
return;
    72f4:	00 00       	nop
};
    72f6:	df 91       	pop	r29
    72f8:	cf 91       	pop	r28
    72fa:	08 95       	ret

000072fc <__vector_7>:
    ISR (TIMER2_COMP_vect)
	#endif
#else
	ISR (TIMER1_COMPA_vect)
#endif
{
    72fc:	1f 92       	push	r1
    72fe:	0f 92       	push	r0
    7300:	00 90 5f 00 	lds	r0, 0x005F	; 0x80005f <__TEXT_REGION_LENGTH__+0x7e005f>
    7304:	0f 92       	push	r0
    7306:	11 24       	eor	r1, r1
    7308:	2f 93       	push	r18
    730a:	3f 93       	push	r19
    730c:	8f 93       	push	r24
    730e:	9f 93       	push	r25
    7310:	af 93       	push	r26
    7312:	bf 93       	push	r27
    7314:	cf 93       	push	r28
    7316:	df 93       	push	r29
    7318:	cd b7       	in	r28, 0x3d	; 61
    731a:	de b7       	in	r29, 0x3e	; 62
	//tick 1 second
	time++;
    731c:	80 91 33 03 	lds	r24, 0x0333	; 0x800333 <time>
    7320:	90 91 34 03 	lds	r25, 0x0334	; 0x800334 <time+0x1>
    7324:	a0 91 35 03 	lds	r26, 0x0335	; 0x800335 <time+0x2>
    7328:	b0 91 36 03 	lds	r27, 0x0336	; 0x800336 <time+0x3>
    732c:	01 96       	adiw	r24, 0x01	; 1
    732e:	a1 1d       	adc	r26, r1
    7330:	b1 1d       	adc	r27, r1
    7332:	80 93 33 03 	sts	0x0333, r24	; 0x800333 <time>
    7336:	90 93 34 03 	sts	0x0334, r25	; 0x800334 <time+0x1>
    733a:	a0 93 35 03 	sts	0x0335, r26	; 0x800335 <time+0x2>
    733e:	b0 93 36 03 	sts	0x0336, r27	; 0x800336 <time+0x3>
    if((stack_watchdog++) > WTT)  //emergency reset of the stack
    7342:	80 91 31 03 	lds	r24, 0x0331	; 0x800331 <stack_watchdog>
    7346:	90 91 32 03 	lds	r25, 0x0332	; 0x800332 <stack_watchdog+0x1>
    734a:	9c 01       	movw	r18, r24
    734c:	2f 5f       	subi	r18, 0xFF	; 255
    734e:	3f 4f       	sbci	r19, 0xFF	; 255
    7350:	30 93 32 03 	sts	0x0332, r19	; 0x800332 <stack_watchdog+0x1>
    7354:	20 93 31 03 	sts	0x0331, r18	; 0x800331 <stack_watchdog>
    7358:	81 3b       	cpi	r24, 0xB1	; 177
    735a:	94 40       	sbci	r25, 0x04	; 4
    735c:	18 f0       	brcs	.+6      	; 0x7364 <__vector_7+0x68>
    {
        RESET();
    735e:	e0 e0       	ldi	r30, 0x00	; 0
    7360:	f0 e0       	ldi	r31, 0x00	; 0
    7362:	09 94       	ijmp
	}
    eth.timer = 1;
    7364:	80 91 97 02 	lds	r24, 0x0297	; 0x800297 <eth>
    7368:	82 60       	ori	r24, 0x02	; 2
    736a:	80 93 97 02 	sts	0x0297, r24	; 0x800297 <eth>
    #endif //USE_DHCP
	
	#if USE_ARTNET
	artnet_tick();
	#endif //USE_ARTNET
}
    736e:	df 91       	pop	r29
    7370:	cf 91       	pop	r28
    7372:	bf 91       	pop	r27
    7374:	af 91       	pop	r26
    7376:	9f 91       	pop	r25
    7378:	8f 91       	pop	r24
    737a:	3f 91       	pop	r19
    737c:	2f 91       	pop	r18
    737e:	0f 90       	pop	r0
    7380:	00 92 5f 00 	sts	0x005F, r0	; 0x80005f <__TEXT_REGION_LENGTH__+0x7e005f>
    7384:	0f 90       	pop	r0
    7386:	1f 90       	pop	r1
    7388:	18 95       	reti

0000738a <usart_init>:
char *rx_buffer_pointer_out	= &usart_rx_buffer[0];
	
//----------------------------------------------------------------------------
//Init serielle Schnittstelle
void usart_init(unsigned long baudrate) 
{ 
    738a:	0f 93       	push	r16
    738c:	1f 93       	push	r17
    738e:	cf 93       	push	r28
    7390:	df 93       	push	r29
    7392:	cd b7       	in	r28, 0x3d	; 61
    7394:	de b7       	in	r29, 0x3e	; 62
    7396:	28 97       	sbiw	r28, 0x08	; 8
    7398:	0f b6       	in	r0, 0x3f	; 63
    739a:	f8 94       	cli
    739c:	de bf       	out	0x3e, r29	; 62
    739e:	0f be       	out	0x3f, r0	; 63
    73a0:	cd bf       	out	0x3d, r28	; 61
    73a2:	69 83       	std	Y+1, r22	; 0x01
    73a4:	7a 83       	std	Y+2, r23	; 0x02
    73a6:	8b 83       	std	Y+3, r24	; 0x03
    73a8:	9c 83       	std	Y+4, r25	; 0x04
#if !USE_CAM
	//Serielle Schnittstelle 1
  	//Enable TXEN im Register UCR TX-Data Enable
	UCR =(1 << TXEN | 1 << RXEN | 1<< RXCIE);
    73aa:	8a e2       	ldi	r24, 0x2A	; 42
    73ac:	90 e0       	ldi	r25, 0x00	; 0
    73ae:	28 e9       	ldi	r18, 0x98	; 152
    73b0:	fc 01       	movw	r30, r24
    73b2:	20 83       	st	Z, r18
	// 1 = Parity Mode Enabled, Even Parity
	// 2 = Parity Mode Enabled, Odd Parity
	//UCSRC = 0x06 + ((parity+1)<<4);
	//UCSRC |= (1<<USBS);
	//Teiler wird gesetzt 
	UBRR=(F_CPU / (baudrate * 16L) - 1);
    73b4:	09 e2       	ldi	r16, 0x29	; 41
    73b6:	10 e0       	ldi	r17, 0x00	; 0
    73b8:	89 81       	ldd	r24, Y+1	; 0x01
    73ba:	9a 81       	ldd	r25, Y+2	; 0x02
    73bc:	ab 81       	ldd	r26, Y+3	; 0x03
    73be:	bc 81       	ldd	r27, Y+4	; 0x04
    73c0:	88 0f       	add	r24, r24
    73c2:	99 1f       	adc	r25, r25
    73c4:	aa 1f       	adc	r26, r26
    73c6:	bb 1f       	adc	r27, r27
    73c8:	88 0f       	add	r24, r24
    73ca:	99 1f       	adc	r25, r25
    73cc:	aa 1f       	adc	r26, r26
    73ce:	bb 1f       	adc	r27, r27
    73d0:	88 0f       	add	r24, r24
    73d2:	99 1f       	adc	r25, r25
    73d4:	aa 1f       	adc	r26, r26
    73d6:	bb 1f       	adc	r27, r27
    73d8:	88 0f       	add	r24, r24
    73da:	99 1f       	adc	r25, r25
    73dc:	aa 1f       	adc	r26, r26
    73de:	bb 1f       	adc	r27, r27
    73e0:	9c 01       	movw	r18, r24
    73e2:	ad 01       	movw	r20, r26
    73e4:	80 e0       	ldi	r24, 0x00	; 0
    73e6:	94 e2       	ldi	r25, 0x24	; 36
    73e8:	a4 ef       	ldi	r26, 0xF4	; 244
    73ea:	b0 e0       	ldi	r27, 0x00	; 0
    73ec:	bc 01       	movw	r22, r24
    73ee:	cd 01       	movw	r24, r26
    73f0:	0e 94 45 3c 	call	0x788a	; 0x788a <__udivmodsi4>
    73f4:	da 01       	movw	r26, r20
    73f6:	c9 01       	movw	r24, r18
    73f8:	81 50       	subi	r24, 0x01	; 1
    73fa:	f8 01       	movw	r30, r16
    73fc:	80 83       	st	Z, r24
	usart_status.usart_disable = 0;
    73fe:	80 91 f6 01 	lds	r24, 0x01F6	; 0x8001f6 <usart_status>
    7402:	8b 7f       	andi	r24, 0xFB	; 251
    7404:	80 93 f6 01 	sts	0x01F6, r24	; 0x8001f6 <usart_status>
#endif //USE_CAM
}
    7408:	28 96       	adiw	r28, 0x08	; 8
    740a:	0f b6       	in	r0, 0x3f	; 63
    740c:	f8 94       	cli
    740e:	de bf       	out	0x3e, r29	; 62
    7410:	0f be       	out	0x3f, r0	; 63
    7412:	cd bf       	out	0x3d, r28	; 61
    7414:	df 91       	pop	r29
    7416:	cf 91       	pop	r28
    7418:	1f 91       	pop	r17
    741a:	0f 91       	pop	r16
    741c:	08 95       	ret

0000741e <usart_write_char>:

//----------------------------------------------------------------------------
//Routine fr die Serielle Ausgabe eines Zeichens (Schnittstelle0)
void usart_write_char(char c)
{
    741e:	cf 93       	push	r28
    7420:	df 93       	push	r29
    7422:	1f 92       	push	r1
    7424:	cd b7       	in	r28, 0x3d	; 61
    7426:	de b7       	in	r29, 0x3e	; 62
    7428:	89 83       	std	Y+1, r24	; 0x01
        }
    }
    return;
#else
    #if !USE_CAM
        if(!usart_status.usart_disable)
    742a:	80 91 f6 01 	lds	r24, 0x01F6	; 0x8001f6 <usart_status>
    742e:	82 fb       	bst	r24, 2
    7430:	88 27       	eor	r24, r24
    7432:	80 f9       	bld	r24, 0
    7434:	88 23       	and	r24, r24
    7436:	81 f4       	brne	.+32     	; 0x7458 <usart_write_char+0x3a>
        {
            //Warten solange bis Zeichen gesendet wurde
            while(!(USR & (1<<UDRE)));
    7438:	00 00       	nop
    743a:	8b e2       	ldi	r24, 0x2B	; 43
    743c:	90 e0       	ldi	r25, 0x00	; 0
    743e:	fc 01       	movw	r30, r24
    7440:	80 81       	ld	r24, Z
    7442:	88 2f       	mov	r24, r24
    7444:	90 e0       	ldi	r25, 0x00	; 0
    7446:	80 72       	andi	r24, 0x20	; 32
    7448:	99 27       	eor	r25, r25
    744a:	89 2b       	or	r24, r25
    744c:	b1 f3       	breq	.-20     	; 0x743a <usart_write_char+0x1c>
            //Ausgabe des Zeichens
            UDR = c;
    744e:	8c e2       	ldi	r24, 0x2C	; 44
    7450:	90 e0       	ldi	r25, 0x00	; 0
    7452:	29 81       	ldd	r18, Y+1	; 0x01
    7454:	fc 01       	movw	r30, r24
    7456:	20 83       	st	Z, r18
        }
        return;
    7458:	00 00       	nop
    #endif //USE_CAM
#endif
}
    745a:	0f 90       	pop	r0
    745c:	df 91       	pop	r29
    745e:	cf 91       	pop	r28
    7460:	08 95       	ret

00007462 <usart_write_P>:

//------------------------------------------------------------------------------
void usart_write_P (const char *Buffer,...)
{
    7462:	cf 93       	push	r28
    7464:	df 93       	push	r29
    7466:	cd b7       	in	r28, 0x3d	; 61
    7468:	de b7       	in	r29, 0x3e	; 62
    746a:	aa 97       	sbiw	r28, 0x2a	; 42
    746c:	0f b6       	in	r0, 0x3f	; 63
    746e:	f8 94       	cli
    7470:	de bf       	out	0x3e, r29	; 62
    7472:	0f be       	out	0x3f, r0	; 63
    7474:	cd bf       	out	0x3d, r28	; 61
	va_list ap;
	va_start (ap, Buffer);	
    7476:	ce 01       	movw	r24, r28
    7478:	c1 96       	adiw	r24, 0x31	; 49
    747a:	9e 8b       	std	Y+22, r25	; 0x16
    747c:	8d 8b       	std	Y+21, r24	; 0x15
	
	int format_flag;
	char str_buffer[10];
	char str_null_buffer[10];
	char move = 0;
    747e:	19 82       	std	Y+1, r1	; 0x01
	char Base = 0;
    7480:	1a 82       	std	Y+2, r1	; 0x02
	int tmp = 0;
    7482:	1c 82       	std	Y+4, r1	; 0x04
    7484:	1b 82       	std	Y+3, r1	; 0x03
	char *ptr;
		
	//Ausgabe der Zeichen
    for(;;)
	{
		by = pgm_read_byte(Buffer++);
    7486:	8f a5       	ldd	r24, Y+47	; 0x2f
    7488:	98 a9       	ldd	r25, Y+48	; 0x30
    748a:	9c 01       	movw	r18, r24
    748c:	2f 5f       	subi	r18, 0xFF	; 255
    748e:	3f 4f       	sbci	r19, 0xFF	; 255
    7490:	38 ab       	std	Y+48, r19	; 0x30
    7492:	2f a7       	std	Y+47, r18	; 0x2f
    7494:	9b 87       	std	Y+11, r25	; 0x0b
    7496:	8a 87       	std	Y+10, r24	; 0x0a
    7498:	8a 85       	ldd	r24, Y+10	; 0x0a
    749a:	9b 85       	ldd	r25, Y+11	; 0x0b
    749c:	fc 01       	movw	r30, r24
    749e:	84 91       	lpm	r24, Z
    74a0:	8c 87       	std	Y+12, r24	; 0x0c
    74a2:	8c 85       	ldd	r24, Y+12	; 0x0c
    74a4:	8d 83       	std	Y+5, r24	; 0x05
		if(by==0) break; // end of format string
    74a6:	8d 81       	ldd	r24, Y+5	; 0x05
    74a8:	88 23       	and	r24, r24
    74aa:	09 f4       	brne	.+2      	; 0x74ae <usart_write_P+0x4c>
    74ac:	05 c1       	rjmp	.+522    	; 0x76b8 <usart_write_P+0x256>
            
		if (by == '%')
    74ae:	8d 81       	ldd	r24, Y+5	; 0x05
    74b0:	85 32       	cpi	r24, 0x25	; 37
    74b2:	09 f0       	breq	.+2      	; 0x74b6 <usart_write_P+0x54>
    74b4:	fd c0       	rjmp	.+506    	; 0x76b0 <usart_write_P+0x24e>
		{
            by = pgm_read_byte(Buffer++);
    74b6:	8f a5       	ldd	r24, Y+47	; 0x2f
    74b8:	98 a9       	ldd	r25, Y+48	; 0x30
    74ba:	9c 01       	movw	r18, r24
    74bc:	2f 5f       	subi	r18, 0xFF	; 255
    74be:	3f 4f       	sbci	r19, 0xFF	; 255
    74c0:	38 ab       	std	Y+48, r19	; 0x30
    74c2:	2f a7       	std	Y+47, r18	; 0x2f
    74c4:	9e 87       	std	Y+14, r25	; 0x0e
    74c6:	8d 87       	std	Y+13, r24	; 0x0d
    74c8:	8d 85       	ldd	r24, Y+13	; 0x0d
    74ca:	9e 85       	ldd	r25, Y+14	; 0x0e
    74cc:	fc 01       	movw	r30, r24
    74ce:	84 91       	lpm	r24, Z
    74d0:	8f 87       	std	Y+15, r24	; 0x0f
    74d2:	8f 85       	ldd	r24, Y+15	; 0x0f
    74d4:	8d 83       	std	Y+5, r24	; 0x05
			if (isdigit(by)>0)
    74d6:	8d 81       	ldd	r24, Y+5	; 0x05
    74d8:	88 2f       	mov	r24, r24
    74da:	90 e0       	ldi	r25, 0x00	; 0
    74dc:	c0 97       	sbiw	r24, 0x30	; 48
    74de:	0a 97       	sbiw	r24, 0x0a	; 10
    74e0:	c0 f4       	brcc	.+48     	; 0x7512 <usart_write_P+0xb0>
				{
                                 
 				str_null_buffer[0] = by;
    74e2:	8d 81       	ldd	r24, Y+5	; 0x05
    74e4:	89 a3       	std	Y+33, r24	; 0x21
				str_null_buffer[1] = '\0';
    74e6:	1a a2       	std	Y+34, r1	; 0x22
				move = atoi(str_null_buffer);
    74e8:	ce 01       	movw	r24, r28
    74ea:	81 96       	adiw	r24, 0x21	; 33
    74ec:	0e 94 a5 3e 	call	0x7d4a	; 0x7d4a <atoi>
    74f0:	89 83       	std	Y+1, r24	; 0x01
                by = pgm_read_byte(Buffer++);
    74f2:	8f a5       	ldd	r24, Y+47	; 0x2f
    74f4:	98 a9       	ldd	r25, Y+48	; 0x30
    74f6:	9c 01       	movw	r18, r24
    74f8:	2f 5f       	subi	r18, 0xFF	; 255
    74fa:	3f 4f       	sbci	r19, 0xFF	; 255
    74fc:	38 ab       	std	Y+48, r19	; 0x30
    74fe:	2f a7       	std	Y+47, r18	; 0x2f
    7500:	99 8b       	std	Y+17, r25	; 0x11
    7502:	88 8b       	std	Y+16, r24	; 0x10
    7504:	88 89       	ldd	r24, Y+16	; 0x10
    7506:	99 89       	ldd	r25, Y+17	; 0x11
    7508:	fc 01       	movw	r30, r24
    750a:	84 91       	lpm	r24, Z
    750c:	8a 8b       	std	Y+18, r24	; 0x12
    750e:	8a 89       	ldd	r24, Y+18	; 0x12
    7510:	8d 83       	std	Y+5, r24	; 0x05
				}

			switch (by)
    7512:	8d 81       	ldd	r24, Y+5	; 0x05
    7514:	88 2f       	mov	r24, r24
    7516:	90 e0       	ldi	r25, 0x00	; 0
    7518:	89 36       	cpi	r24, 0x69	; 105
    751a:	91 05       	cpc	r25, r1
    751c:	09 f4       	brne	.+2      	; 0x7520 <usart_write_P+0xbe>
    751e:	4d c0       	rjmp	.+154    	; 0x75ba <usart_write_P+0x158>
    7520:	8a 36       	cpi	r24, 0x6A	; 106
    7522:	91 05       	cpc	r25, r1
    7524:	3c f4       	brge	.+14     	; 0x7534 <usart_write_P+0xd2>
    7526:	82 36       	cpi	r24, 0x62	; 98
    7528:	91 05       	cpc	r25, r1
    752a:	71 f1       	breq	.+92     	; 0x7588 <usart_write_P+0x126>
    752c:	83 36       	cpi	r24, 0x63	; 99
    752e:	91 05       	cpc	r25, r1
    7530:	71 f1       	breq	.+92     	; 0x758e <usart_write_P+0x12c>
    7532:	c1 c0       	rjmp	.+386    	; 0x76b6 <usart_write_P+0x254>
    7534:	83 37       	cpi	r24, 0x73	; 115
    7536:	91 05       	cpc	r25, r1
    7538:	41 f0       	breq	.+16     	; 0x754a <usart_write_P+0xe8>
    753a:	88 37       	cpi	r24, 0x78	; 120
    753c:	91 05       	cpc	r25, r1
    753e:	09 f4       	brne	.+2      	; 0x7542 <usart_write_P+0xe0>
    7540:	42 c0       	rjmp	.+132    	; 0x75c6 <usart_write_P+0x164>
    7542:	8f 36       	cpi	r24, 0x6F	; 111
    7544:	91 05       	cpc	r25, r1
    7546:	e1 f1       	breq	.+120    	; 0x75c0 <usart_write_P+0x15e>
    7548:	b6 c0       	rjmp	.+364    	; 0x76b6 <usart_write_P+0x254>
				{
                case 's':
                    ptr = va_arg(ap,char *);
    754a:	8d 89       	ldd	r24, Y+21	; 0x15
    754c:	9e 89       	ldd	r25, Y+22	; 0x16
    754e:	9c 01       	movw	r18, r24
    7550:	2e 5f       	subi	r18, 0xFE	; 254
    7552:	3f 4f       	sbci	r19, 0xFF	; 255
    7554:	3e 8b       	std	Y+22, r19	; 0x16
    7556:	2d 8b       	std	Y+21, r18	; 0x15
    7558:	fc 01       	movw	r30, r24
    755a:	80 81       	ld	r24, Z
    755c:	91 81       	ldd	r25, Z+1	; 0x01
    755e:	9f 83       	std	Y+7, r25	; 0x07
    7560:	8e 83       	std	Y+6, r24	; 0x06
                    while(*ptr) { usart_write_char(*ptr++); }
    7562:	0b c0       	rjmp	.+22     	; 0x757a <usart_write_P+0x118>
    7564:	8e 81       	ldd	r24, Y+6	; 0x06
    7566:	9f 81       	ldd	r25, Y+7	; 0x07
    7568:	9c 01       	movw	r18, r24
    756a:	2f 5f       	subi	r18, 0xFF	; 255
    756c:	3f 4f       	sbci	r19, 0xFF	; 255
    756e:	3f 83       	std	Y+7, r19	; 0x07
    7570:	2e 83       	std	Y+6, r18	; 0x06
    7572:	fc 01       	movw	r30, r24
    7574:	80 81       	ld	r24, Z
    7576:	0e 94 0f 3a 	call	0x741e	; 0x741e <usart_write_char>
    757a:	8e 81       	ldd	r24, Y+6	; 0x06
    757c:	9f 81       	ldd	r25, Y+7	; 0x07
    757e:	fc 01       	movw	r30, r24
    7580:	80 81       	ld	r24, Z
    7582:	88 23       	and	r24, r24
    7584:	79 f7       	brne	.-34     	; 0x7564 <usart_write_P+0x102>
                    break;
    7586:	93 c0       	rjmp	.+294    	; 0x76ae <usart_write_P+0x24c>
				case 'b':
					Base = 2;
    7588:	82 e0       	ldi	r24, 0x02	; 2
    758a:	8a 83       	std	Y+2, r24	; 0x02
					goto ConversionLoop;
    758c:	1e c0       	rjmp	.+60     	; 0x75ca <usart_write_P+0x168>
				case 'c':
					//Int to char
					format_flag = va_arg(ap,int);
    758e:	8d 89       	ldd	r24, Y+21	; 0x15
    7590:	9e 89       	ldd	r25, Y+22	; 0x16
    7592:	9c 01       	movw	r18, r24
    7594:	2e 5f       	subi	r18, 0xFE	; 254
    7596:	3f 4f       	sbci	r19, 0xFF	; 255
    7598:	3e 8b       	std	Y+22, r19	; 0x16
    759a:	2d 8b       	std	Y+21, r18	; 0x15
    759c:	fc 01       	movw	r30, r24
    759e:	80 81       	ld	r24, Z
    75a0:	91 81       	ldd	r25, Z+1	; 0x01
    75a2:	9c 8b       	std	Y+20, r25	; 0x14
    75a4:	8b 8b       	std	Y+19, r24	; 0x13
					usart_write_char (format_flag++);
    75a6:	8b 89       	ldd	r24, Y+19	; 0x13
    75a8:	9c 89       	ldd	r25, Y+20	; 0x14
    75aa:	9c 01       	movw	r18, r24
    75ac:	2f 5f       	subi	r18, 0xFF	; 255
    75ae:	3f 4f       	sbci	r19, 0xFF	; 255
    75b0:	3c 8b       	std	Y+20, r19	; 0x14
    75b2:	2b 8b       	std	Y+19, r18	; 0x13
    75b4:	0e 94 0f 3a 	call	0x741e	; 0x741e <usart_write_char>
					break;
    75b8:	7a c0       	rjmp	.+244    	; 0x76ae <usart_write_P+0x24c>
				case 'i':
					Base = 10;
    75ba:	8a e0       	ldi	r24, 0x0A	; 10
    75bc:	8a 83       	std	Y+2, r24	; 0x02
					goto ConversionLoop;
    75be:	05 c0       	rjmp	.+10     	; 0x75ca <usart_write_P+0x168>
				case 'o':
					Base = 8;
    75c0:	88 e0       	ldi	r24, 0x08	; 8
    75c2:	8a 83       	std	Y+2, r24	; 0x02
					goto ConversionLoop;
    75c4:	02 c0       	rjmp	.+4      	; 0x75ca <usart_write_P+0x168>
				case 'x':
					Base = 16;
    75c6:	80 e1       	ldi	r24, 0x10	; 16
    75c8:	8a 83       	std	Y+2, r24	; 0x02
					//****************************
					ConversionLoop:
					//****************************
					itoa(va_arg(ap,int),str_buffer,Base);
    75ca:	8a 81       	ldd	r24, Y+2	; 0x02
    75cc:	48 2f       	mov	r20, r24
    75ce:	50 e0       	ldi	r21, 0x00	; 0
    75d0:	8d 89       	ldd	r24, Y+21	; 0x15
    75d2:	9e 89       	ldd	r25, Y+22	; 0x16
    75d4:	9c 01       	movw	r18, r24
    75d6:	2e 5f       	subi	r18, 0xFE	; 254
    75d8:	3f 4f       	sbci	r19, 0xFF	; 255
    75da:	3e 8b       	std	Y+22, r19	; 0x16
    75dc:	2d 8b       	std	Y+21, r18	; 0x15
    75de:	fc 01       	movw	r30, r24
    75e0:	80 81       	ld	r24, Z
    75e2:	91 81       	ldd	r25, Z+1	; 0x01
    75e4:	9e 01       	movw	r18, r28
    75e6:	29 5e       	subi	r18, 0xE9	; 233
    75e8:	3f 4f       	sbci	r19, 0xFF	; 255
    75ea:	b9 01       	movw	r22, r18
    75ec:	0e 94 09 3f 	call	0x7e12	; 0x7e12 <itoa>
					int b=0;
    75f0:	19 86       	std	Y+9, r1	; 0x09
    75f2:	18 86       	std	Y+8, r1	; 0x08
					while (str_buffer[b++] != 0){};
    75f4:	00 00       	nop
    75f6:	88 85       	ldd	r24, Y+8	; 0x08
    75f8:	99 85       	ldd	r25, Y+9	; 0x09
    75fa:	9c 01       	movw	r18, r24
    75fc:	2f 5f       	subi	r18, 0xFF	; 255
    75fe:	3f 4f       	sbci	r19, 0xFF	; 255
    7600:	39 87       	std	Y+9, r19	; 0x09
    7602:	28 87       	std	Y+8, r18	; 0x08
    7604:	9e 01       	movw	r18, r28
    7606:	29 5e       	subi	r18, 0xE9	; 233
    7608:	3f 4f       	sbci	r19, 0xFF	; 255
    760a:	82 0f       	add	r24, r18
    760c:	93 1f       	adc	r25, r19
    760e:	fc 01       	movw	r30, r24
    7610:	80 81       	ld	r24, Z
    7612:	88 23       	and	r24, r24
    7614:	81 f7       	brne	.-32     	; 0x75f6 <usart_write_P+0x194>
					b--;
    7616:	88 85       	ldd	r24, Y+8	; 0x08
    7618:	99 85       	ldd	r25, Y+9	; 0x09
    761a:	01 97       	sbiw	r24, 0x01	; 1
    761c:	99 87       	std	Y+9, r25	; 0x09
    761e:	88 87       	std	Y+8, r24	; 0x08
					if (b<move)
    7620:	89 81       	ldd	r24, Y+1	; 0x01
    7622:	28 2f       	mov	r18, r24
    7624:	30 e0       	ldi	r19, 0x00	; 0
    7626:	88 85       	ldd	r24, Y+8	; 0x08
    7628:	99 85       	ldd	r25, Y+9	; 0x09
    762a:	82 17       	cp	r24, r18
    762c:	93 07       	cpc	r25, r19
    762e:	cc f5       	brge	.+114    	; 0x76a2 <usart_write_P+0x240>
						{
						move -=b;
    7630:	88 85       	ldd	r24, Y+8	; 0x08
    7632:	99 81       	ldd	r25, Y+1	; 0x01
    7634:	f9 2f       	mov	r31, r25
    7636:	f8 1b       	sub	r31, r24
    7638:	8f 2f       	mov	r24, r31
    763a:	89 83       	std	Y+1, r24	; 0x01
						for (tmp = 0;tmp<move;tmp++)
    763c:	1c 82       	std	Y+4, r1	; 0x04
    763e:	1b 82       	std	Y+3, r1	; 0x03
    7640:	0f c0       	rjmp	.+30     	; 0x7660 <usart_write_P+0x1fe>
							{
							str_null_buffer[tmp] = '0';
    7642:	9e 01       	movw	r18, r28
    7644:	2f 5d       	subi	r18, 0xDF	; 223
    7646:	3f 4f       	sbci	r19, 0xFF	; 255
    7648:	8b 81       	ldd	r24, Y+3	; 0x03
    764a:	9c 81       	ldd	r25, Y+4	; 0x04
    764c:	82 0f       	add	r24, r18
    764e:	93 1f       	adc	r25, r19
    7650:	20 e3       	ldi	r18, 0x30	; 48
    7652:	fc 01       	movw	r30, r24
    7654:	20 83       	st	Z, r18
					while (str_buffer[b++] != 0){};
					b--;
					if (b<move)
						{
						move -=b;
						for (tmp = 0;tmp<move;tmp++)
    7656:	8b 81       	ldd	r24, Y+3	; 0x03
    7658:	9c 81       	ldd	r25, Y+4	; 0x04
    765a:	01 96       	adiw	r24, 0x01	; 1
    765c:	9c 83       	std	Y+4, r25	; 0x04
    765e:	8b 83       	std	Y+3, r24	; 0x03
    7660:	89 81       	ldd	r24, Y+1	; 0x01
    7662:	28 2f       	mov	r18, r24
    7664:	30 e0       	ldi	r19, 0x00	; 0
    7666:	8b 81       	ldd	r24, Y+3	; 0x03
    7668:	9c 81       	ldd	r25, Y+4	; 0x04
    766a:	82 17       	cp	r24, r18
    766c:	93 07       	cpc	r25, r19
    766e:	4c f3       	brlt	.-46     	; 0x7642 <usart_write_P+0x1e0>
							{
							str_null_buffer[tmp] = '0';
							}
						//tmp ++;
						str_null_buffer[tmp] = '\0';
    7670:	9e 01       	movw	r18, r28
    7672:	2f 5d       	subi	r18, 0xDF	; 223
    7674:	3f 4f       	sbci	r19, 0xFF	; 255
    7676:	8b 81       	ldd	r24, Y+3	; 0x03
    7678:	9c 81       	ldd	r25, Y+4	; 0x04
    767a:	82 0f       	add	r24, r18
    767c:	93 1f       	adc	r25, r19
    767e:	fc 01       	movw	r30, r24
    7680:	10 82       	st	Z, r1
						strcat(str_null_buffer,str_buffer);
    7682:	9e 01       	movw	r18, r28
    7684:	29 5e       	subi	r18, 0xE9	; 233
    7686:	3f 4f       	sbci	r19, 0xFF	; 255
    7688:	ce 01       	movw	r24, r28
    768a:	81 96       	adiw	r24, 0x21	; 33
    768c:	b9 01       	movw	r22, r18
    768e:	0e 94 df 3e 	call	0x7dbe	; 0x7dbe <strcat>
						strcpy(str_buffer,str_null_buffer);
    7692:	9e 01       	movw	r18, r28
    7694:	2f 5d       	subi	r18, 0xDF	; 223
    7696:	3f 4f       	sbci	r19, 0xFF	; 255
    7698:	ce 01       	movw	r24, r28
    769a:	47 96       	adiw	r24, 0x17	; 23
    769c:	b9 01       	movw	r22, r18
    769e:	0e 94 ea 3e 	call	0x7dd4	; 0x7dd4 <strcpy>
						}
					usart_write_str (str_buffer);
    76a2:	ce 01       	movw	r24, r28
    76a4:	47 96       	adiw	r24, 0x17	; 23
    76a6:	0e 94 65 3b 	call	0x76ca	; 0x76ca <usart_write_str>
					move =0;
    76aa:	19 82       	std	Y+1, r1	; 0x01
					break;
    76ac:	00 00       	nop
    76ae:	03 c0       	rjmp	.+6      	; 0x76b6 <usart_write_P+0x254>
				}
			
			}	
		else
		{
			usart_write_char ( by );	
    76b0:	8d 81       	ldd	r24, Y+5	; 0x05
    76b2:	0e 94 0f 3a 	call	0x741e	; 0x741e <usart_write_char>
		}
	}
    76b6:	e7 ce       	rjmp	.-562    	; 0x7486 <usart_write_P+0x24>
	va_end(ap);
}
    76b8:	aa 96       	adiw	r28, 0x2a	; 42
    76ba:	0f b6       	in	r0, 0x3f	; 63
    76bc:	f8 94       	cli
    76be:	de bf       	out	0x3e, r29	; 62
    76c0:	0f be       	out	0x3f, r0	; 63
    76c2:	cd bf       	out	0x3d, r28	; 61
    76c4:	df 91       	pop	r29
    76c6:	cf 91       	pop	r28
    76c8:	08 95       	ret

000076ca <usart_write_str>:

//----------------------------------------------------------------------------
//Ausgabe eines Strings
void usart_write_str(char *str)
{
    76ca:	cf 93       	push	r28
    76cc:	df 93       	push	r29
    76ce:	00 d0       	rcall	.+0      	; 0x76d0 <usart_write_str+0x6>
    76d0:	cd b7       	in	r28, 0x3d	; 61
    76d2:	de b7       	in	r29, 0x3e	; 62
    76d4:	9a 83       	std	Y+2, r25	; 0x02
    76d6:	89 83       	std	Y+1, r24	; 0x01
	while (*str)
    76d8:	0b c0       	rjmp	.+22     	; 0x76f0 <usart_write_str+0x26>
	{
		usart_write_char(*str++);
    76da:	89 81       	ldd	r24, Y+1	; 0x01
    76dc:	9a 81       	ldd	r25, Y+2	; 0x02
    76de:	9c 01       	movw	r18, r24
    76e0:	2f 5f       	subi	r18, 0xFF	; 255
    76e2:	3f 4f       	sbci	r19, 0xFF	; 255
    76e4:	3a 83       	std	Y+2, r19	; 0x02
    76e6:	29 83       	std	Y+1, r18	; 0x01
    76e8:	fc 01       	movw	r30, r24
    76ea:	80 81       	ld	r24, Z
    76ec:	0e 94 0f 3a 	call	0x741e	; 0x741e <usart_write_char>

//----------------------------------------------------------------------------
//Ausgabe eines Strings
void usart_write_str(char *str)
{
	while (*str)
    76f0:	89 81       	ldd	r24, Y+1	; 0x01
    76f2:	9a 81       	ldd	r25, Y+2	; 0x02
    76f4:	fc 01       	movw	r30, r24
    76f6:	80 81       	ld	r24, Z
    76f8:	88 23       	and	r24, r24
    76fa:	79 f7       	brne	.-34     	; 0x76da <usart_write_str+0x10>
	{
		usart_write_char(*str++);
	}
}
    76fc:	0f 90       	pop	r0
    76fe:	0f 90       	pop	r0
    7700:	df 91       	pop	r29
    7702:	cf 91       	pop	r28
    7704:	08 95       	ret

00007706 <__vector_13>:
//----------------------------------------------------------------------------
//Empfang eines Zeichens
#if !USE_CAM
#if !USE_ARTNET
ISR (USART_RX)
{
    7706:	1f 92       	push	r1
    7708:	0f 92       	push	r0
    770a:	00 90 5f 00 	lds	r0, 0x005F	; 0x80005f <__TEXT_REGION_LENGTH__+0x7e005f>
    770e:	0f 92       	push	r0
    7710:	11 24       	eor	r1, r1
    7712:	2f 93       	push	r18
    7714:	3f 93       	push	r19
    7716:	4f 93       	push	r20
    7718:	5f 93       	push	r21
    771a:	6f 93       	push	r22
    771c:	7f 93       	push	r23
    771e:	8f 93       	push	r24
    7720:	9f 93       	push	r25
    7722:	af 93       	push	r26
    7724:	bf 93       	push	r27
    7726:	ef 93       	push	r30
    7728:	ff 93       	push	r31
    772a:	cf 93       	push	r28
    772c:	df 93       	push	r29
    772e:	1f 92       	push	r1
    7730:	cd b7       	in	r28, 0x3d	; 61
    7732:	de b7       	in	r29, 0x3e	; 62
	if(!usart_status.usart_disable)
    7734:	80 91 f6 01 	lds	r24, 0x01F6	; 0x8001f6 <usart_status>
    7738:	82 fb       	bst	r24, 2
    773a:	88 27       	eor	r24, r24
    773c:	80 f9       	bld	r24, 0
    773e:	88 23       	and	r24, r24
    7740:	09 f0       	breq	.+2      	; 0x7744 <__vector_13+0x3e>
    7742:	60 c0       	rjmp	.+192    	; 0x7804 <__vector_13+0xfe>
	{
		unsigned char receive_char;
		receive_char = (UDR);
    7744:	8c e2       	ldi	r24, 0x2C	; 44
    7746:	90 e0       	ldi	r25, 0x00	; 0
    7748:	fc 01       	movw	r30, r24
    774a:	80 81       	ld	r24, Z
    774c:	89 83       	std	Y+1, r24	; 0x01
		
		#if USART_ECHO
		usart_write_char(receive_char);
    774e:	89 81       	ldd	r24, Y+1	; 0x01
    7750:	0e 94 0f 3a 	call	0x741e	; 0x741e <usart_write_char>
		#endif
	
		if (usart_status.usart_ready)
    7754:	80 91 f6 01 	lds	r24, 0x01F6	; 0x8001f6 <usart_status>
    7758:	81 70       	andi	r24, 0x01	; 1
    775a:	88 23       	and	r24, r24
    775c:	31 f0       	breq	.+12     	; 0x776a <__vector_13+0x64>
		{
			usart_status.usart_rx_ovl = 1;
    775e:	80 91 f6 01 	lds	r24, 0x01F6	; 0x8001f6 <usart_status>
    7762:	82 60       	ori	r24, 0x02	; 2
    7764:	80 93 f6 01 	sts	0x01F6, r24	; 0x8001f6 <usart_status>
			return; 
    7768:	7b c0       	rjmp	.+246    	; 0x7860 <__vector_13+0x15a>
		}
        
        if (receive_char == 0x08)
    776a:	89 81       	ldd	r24, Y+1	; 0x01
    776c:	88 30       	cpi	r24, 0x08	; 8
    776e:	89 f4       	brne	.+34     	; 0x7792 <__vector_13+0x8c>
        {
            if (buffercounter) buffercounter--;
    7770:	80 91 f4 01 	lds	r24, 0x01F4	; 0x8001f4 <buffercounter>
    7774:	90 91 f5 01 	lds	r25, 0x01F5	; 0x8001f5 <buffercounter+0x1>
    7778:	89 2b       	or	r24, r25
    777a:	51 f0       	breq	.+20     	; 0x7790 <__vector_13+0x8a>
    777c:	80 91 f4 01 	lds	r24, 0x01F4	; 0x8001f4 <buffercounter>
    7780:	90 91 f5 01 	lds	r25, 0x01F5	; 0x8001f5 <buffercounter+0x1>
    7784:	01 97       	sbiw	r24, 0x01	; 1
    7786:	90 93 f5 01 	sts	0x01F5, r25	; 0x8001f5 <buffercounter+0x1>
    778a:	80 93 f4 01 	sts	0x01F4, r24	; 0x8001f4 <buffercounter>
            return;
    778e:	68 c0       	rjmp	.+208    	; 0x7860 <__vector_13+0x15a>
    7790:	67 c0       	rjmp	.+206    	; 0x7860 <__vector_13+0x15a>
        }
    
		if (receive_char == '\r' && (!(usart_rx_buffer[buffercounter-1] == '\\')))
    7792:	89 81       	ldd	r24, Y+1	; 0x01
    7794:	8d 30       	cpi	r24, 0x0D	; 13
    7796:	e9 f4       	brne	.+58     	; 0x77d2 <__vector_13+0xcc>
    7798:	80 91 f4 01 	lds	r24, 0x01F4	; 0x8001f4 <buffercounter>
    779c:	90 91 f5 01 	lds	r25, 0x01F5	; 0x8001f5 <buffercounter+0x1>
    77a0:	01 97       	sbiw	r24, 0x01	; 1
    77a2:	89 50       	subi	r24, 0x09	; 9
    77a4:	9e 4f       	sbci	r25, 0xFE	; 254
    77a6:	fc 01       	movw	r30, r24
    77a8:	80 81       	ld	r24, Z
    77aa:	8c 35       	cpi	r24, 0x5C	; 92
    77ac:	91 f0       	breq	.+36     	; 0x77d2 <__vector_13+0xcc>
		{
			usart_rx_buffer[buffercounter] = 0;
    77ae:	80 91 f4 01 	lds	r24, 0x01F4	; 0x8001f4 <buffercounter>
    77b2:	90 91 f5 01 	lds	r25, 0x01F5	; 0x8001f5 <buffercounter+0x1>
    77b6:	89 50       	subi	r24, 0x09	; 9
    77b8:	9e 4f       	sbci	r25, 0xFE	; 254
    77ba:	fc 01       	movw	r30, r24
    77bc:	10 82       	st	Z, r1
			buffercounter = 0;
    77be:	10 92 f5 01 	sts	0x01F5, r1	; 0x8001f5 <buffercounter+0x1>
    77c2:	10 92 f4 01 	sts	0x01F4, r1	; 0x8001f4 <buffercounter>
			usart_status.usart_ready = 1;
    77c6:	80 91 f6 01 	lds	r24, 0x01F6	; 0x8001f6 <usart_status>
    77ca:	81 60       	ori	r24, 0x01	; 1
    77cc:	80 93 f6 01 	sts	0x01F6, r24	; 0x8001f6 <usart_status>
			return;    
    77d0:	47 c0       	rjmp	.+142    	; 0x7860 <__vector_13+0x15a>
		}
	
		if (buffercounter < BUFFER_SIZE - 1)
    77d2:	80 91 f4 01 	lds	r24, 0x01F4	; 0x8001f4 <buffercounter>
    77d6:	90 91 f5 01 	lds	r25, 0x01F5	; 0x8001f5 <buffercounter+0x1>
    77da:	83 36       	cpi	r24, 0x63	; 99
    77dc:	91 05       	cpc	r25, r1
    77de:	88 f4       	brcc	.+34     	; 0x7802 <__vector_13+0xfc>
		{
			usart_rx_buffer[buffercounter++] = receive_char;    
    77e0:	80 91 f4 01 	lds	r24, 0x01F4	; 0x8001f4 <buffercounter>
    77e4:	90 91 f5 01 	lds	r25, 0x01F5	; 0x8001f5 <buffercounter+0x1>
    77e8:	9c 01       	movw	r18, r24
    77ea:	2f 5f       	subi	r18, 0xFF	; 255
    77ec:	3f 4f       	sbci	r19, 0xFF	; 255
    77ee:	30 93 f5 01 	sts	0x01F5, r19	; 0x8001f5 <buffercounter+0x1>
    77f2:	20 93 f4 01 	sts	0x01F4, r18	; 0x8001f4 <buffercounter>
    77f6:	89 50       	subi	r24, 0x09	; 9
    77f8:	9e 4f       	sbci	r25, 0xFE	; 254
    77fa:	29 81       	ldd	r18, Y+1	; 0x01
    77fc:	fc 01       	movw	r30, r24
    77fe:	20 83       	st	Z, r18
    7800:	2e c0       	rjmp	.+92     	; 0x785e <__vector_13+0x158>
    7802:	2d c0       	rjmp	.+90     	; 0x785e <__vector_13+0x158>
		}
	}
	else
	{
		if(rx_buffer_pointer_in == (rx_buffer_pointer_out - 1))
    7804:	80 91 fd 00 	lds	r24, 0x00FD	; 0x8000fd <rx_buffer_pointer_out>
    7808:	90 91 fe 00 	lds	r25, 0x00FE	; 0x8000fe <rx_buffer_pointer_out+0x1>
    780c:	9c 01       	movw	r18, r24
    780e:	21 50       	subi	r18, 0x01	; 1
    7810:	31 09       	sbc	r19, r1
    7812:	80 91 fb 00 	lds	r24, 0x00FB	; 0x8000fb <rx_buffer_pointer_in>
    7816:	90 91 fc 00 	lds	r25, 0x00FC	; 0x8000fc <rx_buffer_pointer_in+0x1>
    781a:	28 17       	cp	r18, r24
    781c:	39 07       	cpc	r19, r25
    781e:	09 f4       	brne	.+2      	; 0x7822 <__vector_13+0x11c>
		{
			//Datenverlust
			return;
    7820:	1f c0       	rjmp	.+62     	; 0x7860 <__vector_13+0x15a>
		}
	
		*rx_buffer_pointer_in++ = UDR;
    7822:	80 91 fb 00 	lds	r24, 0x00FB	; 0x8000fb <rx_buffer_pointer_in>
    7826:	90 91 fc 00 	lds	r25, 0x00FC	; 0x8000fc <rx_buffer_pointer_in+0x1>
    782a:	9c 01       	movw	r18, r24
    782c:	2f 5f       	subi	r18, 0xFF	; 255
    782e:	3f 4f       	sbci	r19, 0xFF	; 255
    7830:	30 93 fc 00 	sts	0x00FC, r19	; 0x8000fc <rx_buffer_pointer_in+0x1>
    7834:	20 93 fb 00 	sts	0x00FB, r18	; 0x8000fb <rx_buffer_pointer_in>
    7838:	2c e2       	ldi	r18, 0x2C	; 44
    783a:	30 e0       	ldi	r19, 0x00	; 0
    783c:	f9 01       	movw	r30, r18
    783e:	20 81       	ld	r18, Z
    7840:	fc 01       	movw	r30, r24
    7842:	20 83       	st	Z, r18
	
		if (rx_buffer_pointer_in == &usart_rx_buffer[BUFFER_SIZE-1])
    7844:	80 91 fb 00 	lds	r24, 0x00FB	; 0x8000fb <rx_buffer_pointer_in>
    7848:	90 91 fc 00 	lds	r25, 0x00FC	; 0x8000fc <rx_buffer_pointer_in+0x1>
    784c:	8a 55       	subi	r24, 0x5A	; 90
    784e:	92 40       	sbci	r25, 0x02	; 2
    7850:	31 f4       	brne	.+12     	; 0x785e <__vector_13+0x158>
		{
			rx_buffer_pointer_in = &usart_rx_buffer[0];
    7852:	87 ef       	ldi	r24, 0xF7	; 247
    7854:	91 e0       	ldi	r25, 0x01	; 1
    7856:	90 93 fc 00 	sts	0x00FC, r25	; 0x8000fc <rx_buffer_pointer_in+0x1>
    785a:	80 93 fb 00 	sts	0x00FB, r24	; 0x8000fb <rx_buffer_pointer_in>
		}
	}
	return;
    785e:	00 00       	nop
}
    7860:	0f 90       	pop	r0
    7862:	df 91       	pop	r29
    7864:	cf 91       	pop	r28
    7866:	ff 91       	pop	r31
    7868:	ef 91       	pop	r30
    786a:	bf 91       	pop	r27
    786c:	af 91       	pop	r26
    786e:	9f 91       	pop	r25
    7870:	8f 91       	pop	r24
    7872:	7f 91       	pop	r23
    7874:	6f 91       	pop	r22
    7876:	5f 91       	pop	r21
    7878:	4f 91       	pop	r20
    787a:	3f 91       	pop	r19
    787c:	2f 91       	pop	r18
    787e:	0f 90       	pop	r0
    7880:	00 92 5f 00 	sts	0x005F, r0	; 0x80005f <__TEXT_REGION_LENGTH__+0x7e005f>
    7884:	0f 90       	pop	r0
    7886:	1f 90       	pop	r1
    7888:	18 95       	reti

0000788a <__udivmodsi4>:
    788a:	a1 e2       	ldi	r26, 0x21	; 33
    788c:	1a 2e       	mov	r1, r26
    788e:	aa 1b       	sub	r26, r26
    7890:	bb 1b       	sub	r27, r27
    7892:	fd 01       	movw	r30, r26
    7894:	0d c0       	rjmp	.+26     	; 0x78b0 <__udivmodsi4_ep>

00007896 <__udivmodsi4_loop>:
    7896:	aa 1f       	adc	r26, r26
    7898:	bb 1f       	adc	r27, r27
    789a:	ee 1f       	adc	r30, r30
    789c:	ff 1f       	adc	r31, r31
    789e:	a2 17       	cp	r26, r18
    78a0:	b3 07       	cpc	r27, r19
    78a2:	e4 07       	cpc	r30, r20
    78a4:	f5 07       	cpc	r31, r21
    78a6:	20 f0       	brcs	.+8      	; 0x78b0 <__udivmodsi4_ep>
    78a8:	a2 1b       	sub	r26, r18
    78aa:	b3 0b       	sbc	r27, r19
    78ac:	e4 0b       	sbc	r30, r20
    78ae:	f5 0b       	sbc	r31, r21

000078b0 <__udivmodsi4_ep>:
    78b0:	66 1f       	adc	r22, r22
    78b2:	77 1f       	adc	r23, r23
    78b4:	88 1f       	adc	r24, r24
    78b6:	99 1f       	adc	r25, r25
    78b8:	1a 94       	dec	r1
    78ba:	69 f7       	brne	.-38     	; 0x7896 <__udivmodsi4_loop>
    78bc:	60 95       	com	r22
    78be:	70 95       	com	r23
    78c0:	80 95       	com	r24
    78c2:	90 95       	com	r25
    78c4:	9b 01       	movw	r18, r22
    78c6:	ac 01       	movw	r20, r24
    78c8:	bd 01       	movw	r22, r26
    78ca:	cf 01       	movw	r24, r30
    78cc:	08 95       	ret

000078ce <malloc>:
    78ce:	cf 93       	push	r28
    78d0:	df 93       	push	r29
    78d2:	82 30       	cpi	r24, 0x02	; 2
    78d4:	91 05       	cpc	r25, r1
    78d6:	10 f4       	brcc	.+4      	; 0x78dc <malloc+0xe>
    78d8:	82 e0       	ldi	r24, 0x02	; 2
    78da:	90 e0       	ldi	r25, 0x00	; 0
    78dc:	e0 91 b1 05 	lds	r30, 0x05B1	; 0x8005b1 <__flp>
    78e0:	f0 91 b2 05 	lds	r31, 0x05B2	; 0x8005b2 <__flp+0x1>
    78e4:	20 e0       	ldi	r18, 0x00	; 0
    78e6:	30 e0       	ldi	r19, 0x00	; 0
    78e8:	c0 e0       	ldi	r28, 0x00	; 0
    78ea:	d0 e0       	ldi	r29, 0x00	; 0
    78ec:	30 97       	sbiw	r30, 0x00	; 0
    78ee:	11 f1       	breq	.+68     	; 0x7934 <malloc+0x66>
    78f0:	40 81       	ld	r20, Z
    78f2:	51 81       	ldd	r21, Z+1	; 0x01
    78f4:	48 17       	cp	r20, r24
    78f6:	59 07       	cpc	r21, r25
    78f8:	c0 f0       	brcs	.+48     	; 0x792a <malloc+0x5c>
    78fa:	48 17       	cp	r20, r24
    78fc:	59 07       	cpc	r21, r25
    78fe:	61 f4       	brne	.+24     	; 0x7918 <malloc+0x4a>
    7900:	82 81       	ldd	r24, Z+2	; 0x02
    7902:	93 81       	ldd	r25, Z+3	; 0x03
    7904:	20 97       	sbiw	r28, 0x00	; 0
    7906:	19 f0       	breq	.+6      	; 0x790e <malloc+0x40>
    7908:	9b 83       	std	Y+3, r25	; 0x03
    790a:	8a 83       	std	Y+2, r24	; 0x02
    790c:	2b c0       	rjmp	.+86     	; 0x7964 <malloc+0x96>
    790e:	90 93 b2 05 	sts	0x05B2, r25	; 0x8005b2 <__flp+0x1>
    7912:	80 93 b1 05 	sts	0x05B1, r24	; 0x8005b1 <__flp>
    7916:	26 c0       	rjmp	.+76     	; 0x7964 <malloc+0x96>
    7918:	21 15       	cp	r18, r1
    791a:	31 05       	cpc	r19, r1
    791c:	19 f0       	breq	.+6      	; 0x7924 <malloc+0x56>
    791e:	42 17       	cp	r20, r18
    7920:	53 07       	cpc	r21, r19
    7922:	18 f4       	brcc	.+6      	; 0x792a <malloc+0x5c>
    7924:	9a 01       	movw	r18, r20
    7926:	be 01       	movw	r22, r28
    7928:	df 01       	movw	r26, r30
    792a:	ef 01       	movw	r28, r30
    792c:	02 80       	ldd	r0, Z+2	; 0x02
    792e:	f3 81       	ldd	r31, Z+3	; 0x03
    7930:	e0 2d       	mov	r30, r0
    7932:	dc cf       	rjmp	.-72     	; 0x78ec <malloc+0x1e>
    7934:	21 15       	cp	r18, r1
    7936:	31 05       	cpc	r19, r1
    7938:	09 f1       	breq	.+66     	; 0x797c <malloc+0xae>
    793a:	28 1b       	sub	r18, r24
    793c:	39 0b       	sbc	r19, r25
    793e:	24 30       	cpi	r18, 0x04	; 4
    7940:	31 05       	cpc	r19, r1
    7942:	90 f4       	brcc	.+36     	; 0x7968 <malloc+0x9a>
    7944:	12 96       	adiw	r26, 0x02	; 2
    7946:	8d 91       	ld	r24, X+
    7948:	9c 91       	ld	r25, X
    794a:	13 97       	sbiw	r26, 0x03	; 3
    794c:	61 15       	cp	r22, r1
    794e:	71 05       	cpc	r23, r1
    7950:	21 f0       	breq	.+8      	; 0x795a <malloc+0x8c>
    7952:	fb 01       	movw	r30, r22
    7954:	93 83       	std	Z+3, r25	; 0x03
    7956:	82 83       	std	Z+2, r24	; 0x02
    7958:	04 c0       	rjmp	.+8      	; 0x7962 <malloc+0x94>
    795a:	90 93 b2 05 	sts	0x05B2, r25	; 0x8005b2 <__flp+0x1>
    795e:	80 93 b1 05 	sts	0x05B1, r24	; 0x8005b1 <__flp>
    7962:	fd 01       	movw	r30, r26
    7964:	32 96       	adiw	r30, 0x02	; 2
    7966:	44 c0       	rjmp	.+136    	; 0x79f0 <malloc+0x122>
    7968:	fd 01       	movw	r30, r26
    796a:	e2 0f       	add	r30, r18
    796c:	f3 1f       	adc	r31, r19
    796e:	81 93       	st	Z+, r24
    7970:	91 93       	st	Z+, r25
    7972:	22 50       	subi	r18, 0x02	; 2
    7974:	31 09       	sbc	r19, r1
    7976:	2d 93       	st	X+, r18
    7978:	3c 93       	st	X, r19
    797a:	3a c0       	rjmp	.+116    	; 0x79f0 <malloc+0x122>
    797c:	20 91 af 05 	lds	r18, 0x05AF	; 0x8005af <__brkval>
    7980:	30 91 b0 05 	lds	r19, 0x05B0	; 0x8005b0 <__brkval+0x1>
    7984:	23 2b       	or	r18, r19
    7986:	41 f4       	brne	.+16     	; 0x7998 <malloc+0xca>
    7988:	20 91 01 01 	lds	r18, 0x0101	; 0x800101 <__malloc_heap_start>
    798c:	30 91 02 01 	lds	r19, 0x0102	; 0x800102 <__malloc_heap_start+0x1>
    7990:	30 93 b0 05 	sts	0x05B0, r19	; 0x8005b0 <__brkval+0x1>
    7994:	20 93 af 05 	sts	0x05AF, r18	; 0x8005af <__brkval>
    7998:	20 91 ff 00 	lds	r18, 0x00FF	; 0x8000ff <__malloc_heap_end>
    799c:	30 91 00 01 	lds	r19, 0x0100	; 0x800100 <__malloc_heap_end+0x1>
    79a0:	21 15       	cp	r18, r1
    79a2:	31 05       	cpc	r19, r1
    79a4:	41 f4       	brne	.+16     	; 0x79b6 <malloc+0xe8>
    79a6:	2d b7       	in	r18, 0x3d	; 61
    79a8:	3e b7       	in	r19, 0x3e	; 62
    79aa:	40 91 03 01 	lds	r20, 0x0103	; 0x800103 <__malloc_margin>
    79ae:	50 91 04 01 	lds	r21, 0x0104	; 0x800104 <__malloc_margin+0x1>
    79b2:	24 1b       	sub	r18, r20
    79b4:	35 0b       	sbc	r19, r21
    79b6:	e0 91 af 05 	lds	r30, 0x05AF	; 0x8005af <__brkval>
    79ba:	f0 91 b0 05 	lds	r31, 0x05B0	; 0x8005b0 <__brkval+0x1>
    79be:	e2 17       	cp	r30, r18
    79c0:	f3 07       	cpc	r31, r19
    79c2:	a0 f4       	brcc	.+40     	; 0x79ec <malloc+0x11e>
    79c4:	2e 1b       	sub	r18, r30
    79c6:	3f 0b       	sbc	r19, r31
    79c8:	28 17       	cp	r18, r24
    79ca:	39 07       	cpc	r19, r25
    79cc:	78 f0       	brcs	.+30     	; 0x79ec <malloc+0x11e>
    79ce:	ac 01       	movw	r20, r24
    79d0:	4e 5f       	subi	r20, 0xFE	; 254
    79d2:	5f 4f       	sbci	r21, 0xFF	; 255
    79d4:	24 17       	cp	r18, r20
    79d6:	35 07       	cpc	r19, r21
    79d8:	48 f0       	brcs	.+18     	; 0x79ec <malloc+0x11e>
    79da:	4e 0f       	add	r20, r30
    79dc:	5f 1f       	adc	r21, r31
    79de:	50 93 b0 05 	sts	0x05B0, r21	; 0x8005b0 <__brkval+0x1>
    79e2:	40 93 af 05 	sts	0x05AF, r20	; 0x8005af <__brkval>
    79e6:	81 93       	st	Z+, r24
    79e8:	91 93       	st	Z+, r25
    79ea:	02 c0       	rjmp	.+4      	; 0x79f0 <malloc+0x122>
    79ec:	e0 e0       	ldi	r30, 0x00	; 0
    79ee:	f0 e0       	ldi	r31, 0x00	; 0
    79f0:	cf 01       	movw	r24, r30
    79f2:	df 91       	pop	r29
    79f4:	cf 91       	pop	r28
    79f6:	08 95       	ret

000079f8 <free>:
    79f8:	0f 93       	push	r16
    79fa:	1f 93       	push	r17
    79fc:	cf 93       	push	r28
    79fe:	df 93       	push	r29
    7a00:	00 97       	sbiw	r24, 0x00	; 0
    7a02:	09 f4       	brne	.+2      	; 0x7a06 <free+0xe>
    7a04:	8c c0       	rjmp	.+280    	; 0x7b1e <free+0x126>
    7a06:	fc 01       	movw	r30, r24
    7a08:	32 97       	sbiw	r30, 0x02	; 2
    7a0a:	13 82       	std	Z+3, r1	; 0x03
    7a0c:	12 82       	std	Z+2, r1	; 0x02
    7a0e:	00 91 b1 05 	lds	r16, 0x05B1	; 0x8005b1 <__flp>
    7a12:	10 91 b2 05 	lds	r17, 0x05B2	; 0x8005b2 <__flp+0x1>
    7a16:	01 15       	cp	r16, r1
    7a18:	11 05       	cpc	r17, r1
    7a1a:	81 f4       	brne	.+32     	; 0x7a3c <free+0x44>
    7a1c:	20 81       	ld	r18, Z
    7a1e:	31 81       	ldd	r19, Z+1	; 0x01
    7a20:	82 0f       	add	r24, r18
    7a22:	93 1f       	adc	r25, r19
    7a24:	20 91 af 05 	lds	r18, 0x05AF	; 0x8005af <__brkval>
    7a28:	30 91 b0 05 	lds	r19, 0x05B0	; 0x8005b0 <__brkval+0x1>
    7a2c:	28 17       	cp	r18, r24
    7a2e:	39 07       	cpc	r19, r25
    7a30:	79 f5       	brne	.+94     	; 0x7a90 <free+0x98>
    7a32:	f0 93 b0 05 	sts	0x05B0, r31	; 0x8005b0 <__brkval+0x1>
    7a36:	e0 93 af 05 	sts	0x05AF, r30	; 0x8005af <__brkval>
    7a3a:	71 c0       	rjmp	.+226    	; 0x7b1e <free+0x126>
    7a3c:	d8 01       	movw	r26, r16
    7a3e:	40 e0       	ldi	r20, 0x00	; 0
    7a40:	50 e0       	ldi	r21, 0x00	; 0
    7a42:	ae 17       	cp	r26, r30
    7a44:	bf 07       	cpc	r27, r31
    7a46:	50 f4       	brcc	.+20     	; 0x7a5c <free+0x64>
    7a48:	12 96       	adiw	r26, 0x02	; 2
    7a4a:	2d 91       	ld	r18, X+
    7a4c:	3c 91       	ld	r19, X
    7a4e:	13 97       	sbiw	r26, 0x03	; 3
    7a50:	ad 01       	movw	r20, r26
    7a52:	21 15       	cp	r18, r1
    7a54:	31 05       	cpc	r19, r1
    7a56:	09 f1       	breq	.+66     	; 0x7a9a <free+0xa2>
    7a58:	d9 01       	movw	r26, r18
    7a5a:	f3 cf       	rjmp	.-26     	; 0x7a42 <free+0x4a>
    7a5c:	9d 01       	movw	r18, r26
    7a5e:	da 01       	movw	r26, r20
    7a60:	33 83       	std	Z+3, r19	; 0x03
    7a62:	22 83       	std	Z+2, r18	; 0x02
    7a64:	60 81       	ld	r22, Z
    7a66:	71 81       	ldd	r23, Z+1	; 0x01
    7a68:	86 0f       	add	r24, r22
    7a6a:	97 1f       	adc	r25, r23
    7a6c:	82 17       	cp	r24, r18
    7a6e:	93 07       	cpc	r25, r19
    7a70:	69 f4       	brne	.+26     	; 0x7a8c <free+0x94>
    7a72:	ec 01       	movw	r28, r24
    7a74:	28 81       	ld	r18, Y
    7a76:	39 81       	ldd	r19, Y+1	; 0x01
    7a78:	26 0f       	add	r18, r22
    7a7a:	37 1f       	adc	r19, r23
    7a7c:	2e 5f       	subi	r18, 0xFE	; 254
    7a7e:	3f 4f       	sbci	r19, 0xFF	; 255
    7a80:	31 83       	std	Z+1, r19	; 0x01
    7a82:	20 83       	st	Z, r18
    7a84:	8a 81       	ldd	r24, Y+2	; 0x02
    7a86:	9b 81       	ldd	r25, Y+3	; 0x03
    7a88:	93 83       	std	Z+3, r25	; 0x03
    7a8a:	82 83       	std	Z+2, r24	; 0x02
    7a8c:	45 2b       	or	r20, r21
    7a8e:	29 f4       	brne	.+10     	; 0x7a9a <free+0xa2>
    7a90:	f0 93 b2 05 	sts	0x05B2, r31	; 0x8005b2 <__flp+0x1>
    7a94:	e0 93 b1 05 	sts	0x05B1, r30	; 0x8005b1 <__flp>
    7a98:	42 c0       	rjmp	.+132    	; 0x7b1e <free+0x126>
    7a9a:	13 96       	adiw	r26, 0x03	; 3
    7a9c:	fc 93       	st	X, r31
    7a9e:	ee 93       	st	-X, r30
    7aa0:	12 97       	sbiw	r26, 0x02	; 2
    7aa2:	ed 01       	movw	r28, r26
    7aa4:	49 91       	ld	r20, Y+
    7aa6:	59 91       	ld	r21, Y+
    7aa8:	9e 01       	movw	r18, r28
    7aaa:	24 0f       	add	r18, r20
    7aac:	35 1f       	adc	r19, r21
    7aae:	e2 17       	cp	r30, r18
    7ab0:	f3 07       	cpc	r31, r19
    7ab2:	71 f4       	brne	.+28     	; 0x7ad0 <free+0xd8>
    7ab4:	80 81       	ld	r24, Z
    7ab6:	91 81       	ldd	r25, Z+1	; 0x01
    7ab8:	84 0f       	add	r24, r20
    7aba:	95 1f       	adc	r25, r21
    7abc:	02 96       	adiw	r24, 0x02	; 2
    7abe:	11 96       	adiw	r26, 0x01	; 1
    7ac0:	9c 93       	st	X, r25
    7ac2:	8e 93       	st	-X, r24
    7ac4:	82 81       	ldd	r24, Z+2	; 0x02
    7ac6:	93 81       	ldd	r25, Z+3	; 0x03
    7ac8:	13 96       	adiw	r26, 0x03	; 3
    7aca:	9c 93       	st	X, r25
    7acc:	8e 93       	st	-X, r24
    7ace:	12 97       	sbiw	r26, 0x02	; 2
    7ad0:	e0 e0       	ldi	r30, 0x00	; 0
    7ad2:	f0 e0       	ldi	r31, 0x00	; 0
    7ad4:	d8 01       	movw	r26, r16
    7ad6:	12 96       	adiw	r26, 0x02	; 2
    7ad8:	8d 91       	ld	r24, X+
    7ada:	9c 91       	ld	r25, X
    7adc:	13 97       	sbiw	r26, 0x03	; 3
    7ade:	00 97       	sbiw	r24, 0x00	; 0
    7ae0:	19 f0       	breq	.+6      	; 0x7ae8 <free+0xf0>
    7ae2:	f8 01       	movw	r30, r16
    7ae4:	8c 01       	movw	r16, r24
    7ae6:	f6 cf       	rjmp	.-20     	; 0x7ad4 <free+0xdc>
    7ae8:	8d 91       	ld	r24, X+
    7aea:	9c 91       	ld	r25, X
    7aec:	98 01       	movw	r18, r16
    7aee:	2e 5f       	subi	r18, 0xFE	; 254
    7af0:	3f 4f       	sbci	r19, 0xFF	; 255
    7af2:	82 0f       	add	r24, r18
    7af4:	93 1f       	adc	r25, r19
    7af6:	20 91 af 05 	lds	r18, 0x05AF	; 0x8005af <__brkval>
    7afa:	30 91 b0 05 	lds	r19, 0x05B0	; 0x8005b0 <__brkval+0x1>
    7afe:	28 17       	cp	r18, r24
    7b00:	39 07       	cpc	r19, r25
    7b02:	69 f4       	brne	.+26     	; 0x7b1e <free+0x126>
    7b04:	30 97       	sbiw	r30, 0x00	; 0
    7b06:	29 f4       	brne	.+10     	; 0x7b12 <free+0x11a>
    7b08:	10 92 b2 05 	sts	0x05B2, r1	; 0x8005b2 <__flp+0x1>
    7b0c:	10 92 b1 05 	sts	0x05B1, r1	; 0x8005b1 <__flp>
    7b10:	02 c0       	rjmp	.+4      	; 0x7b16 <free+0x11e>
    7b12:	13 82       	std	Z+3, r1	; 0x03
    7b14:	12 82       	std	Z+2, r1	; 0x02
    7b16:	10 93 b0 05 	sts	0x05B0, r17	; 0x8005b0 <__brkval+0x1>
    7b1a:	00 93 af 05 	sts	0x05AF, r16	; 0x8005af <__brkval>
    7b1e:	df 91       	pop	r29
    7b20:	cf 91       	pop	r28
    7b22:	1f 91       	pop	r17
    7b24:	0f 91       	pop	r16
    7b26:	08 95       	ret

00007b28 <strtol>:
    7b28:	a0 e0       	ldi	r26, 0x00	; 0
    7b2a:	b0 e0       	ldi	r27, 0x00	; 0
    7b2c:	ea e9       	ldi	r30, 0x9A	; 154
    7b2e:	fd e3       	ldi	r31, 0x3D	; 61
    7b30:	0c 94 84 3f 	jmp	0x7f08	; 0x7f08 <__prologue_saves__>
    7b34:	5c 01       	movw	r10, r24
    7b36:	6b 01       	movw	r12, r22
    7b38:	7a 01       	movw	r14, r20
    7b3a:	61 15       	cp	r22, r1
    7b3c:	71 05       	cpc	r23, r1
    7b3e:	19 f0       	breq	.+6      	; 0x7b46 <strtol+0x1e>
    7b40:	fb 01       	movw	r30, r22
    7b42:	91 83       	std	Z+1, r25	; 0x01
    7b44:	80 83       	st	Z, r24
    7b46:	e1 14       	cp	r14, r1
    7b48:	f1 04       	cpc	r15, r1
    7b4a:	29 f0       	breq	.+10     	; 0x7b56 <strtol+0x2e>
    7b4c:	c7 01       	movw	r24, r14
    7b4e:	02 97       	sbiw	r24, 0x02	; 2
    7b50:	83 97       	sbiw	r24, 0x23	; 35
    7b52:	08 f0       	brcs	.+2      	; 0x7b56 <strtol+0x2e>
    7b54:	f1 c0       	rjmp	.+482    	; 0x7d38 <strtol+0x210>
    7b56:	e5 01       	movw	r28, r10
    7b58:	21 96       	adiw	r28, 0x01	; 1
    7b5a:	f5 01       	movw	r30, r10
    7b5c:	10 81       	ld	r17, Z
    7b5e:	81 2f       	mov	r24, r17
    7b60:	90 e0       	ldi	r25, 0x00	; 0
    7b62:	0e 94 c3 3e 	call	0x7d86	; 0x7d86 <isspace>
    7b66:	89 2b       	or	r24, r25
    7b68:	11 f0       	breq	.+4      	; 0x7b6e <strtol+0x46>
    7b6a:	5e 01       	movw	r10, r28
    7b6c:	f4 cf       	rjmp	.-24     	; 0x7b56 <strtol+0x2e>
    7b6e:	1d 32       	cpi	r17, 0x2D	; 45
    7b70:	29 f4       	brne	.+10     	; 0x7b7c <strtol+0x54>
    7b72:	21 96       	adiw	r28, 0x01	; 1
    7b74:	f5 01       	movw	r30, r10
    7b76:	11 81       	ldd	r17, Z+1	; 0x01
    7b78:	01 e0       	ldi	r16, 0x01	; 1
    7b7a:	07 c0       	rjmp	.+14     	; 0x7b8a <strtol+0x62>
    7b7c:	1b 32       	cpi	r17, 0x2B	; 43
    7b7e:	21 f4       	brne	.+8      	; 0x7b88 <strtol+0x60>
    7b80:	e5 01       	movw	r28, r10
    7b82:	22 96       	adiw	r28, 0x02	; 2
    7b84:	f5 01       	movw	r30, r10
    7b86:	11 81       	ldd	r17, Z+1	; 0x01
    7b88:	00 e0       	ldi	r16, 0x00	; 0
    7b8a:	e1 14       	cp	r14, r1
    7b8c:	f1 04       	cpc	r15, r1
    7b8e:	59 f1       	breq	.+86     	; 0x7be6 <strtol+0xbe>
    7b90:	f0 e1       	ldi	r31, 0x10	; 16
    7b92:	ef 16       	cp	r14, r31
    7b94:	f1 04       	cpc	r15, r1
    7b96:	61 f4       	brne	.+24     	; 0x7bb0 <strtol+0x88>
    7b98:	10 33       	cpi	r17, 0x30	; 48
    7b9a:	e1 f4       	brne	.+56     	; 0x7bd4 <strtol+0xac>
    7b9c:	88 81       	ld	r24, Y
    7b9e:	8f 7d       	andi	r24, 0xDF	; 223
    7ba0:	88 35       	cpi	r24, 0x58	; 88
    7ba2:	69 f5       	brne	.+90     	; 0x7bfe <strtol+0xd6>
    7ba4:	19 81       	ldd	r17, Y+1	; 0x01
    7ba6:	22 96       	adiw	r28, 0x02	; 2
    7ba8:	02 60       	ori	r16, 0x02	; 2
    7baa:	70 e1       	ldi	r23, 0x10	; 16
    7bac:	e7 2e       	mov	r14, r23
    7bae:	f1 2c       	mov	r15, r1
    7bb0:	88 e0       	ldi	r24, 0x08	; 8
    7bb2:	e8 16       	cp	r14, r24
    7bb4:	f1 04       	cpc	r15, r1
    7bb6:	39 f1       	breq	.+78     	; 0x7c06 <strtol+0xde>
    7bb8:	2c f4       	brge	.+10     	; 0x7bc4 <strtol+0x9c>
    7bba:	f2 e0       	ldi	r31, 0x02	; 2
    7bbc:	ef 16       	cp	r14, r31
    7bbe:	f1 04       	cpc	r15, r1
    7bc0:	c9 f1       	breq	.+114    	; 0x7c34 <strtol+0x10c>
    7bc2:	2a c0       	rjmp	.+84     	; 0x7c18 <strtol+0xf0>
    7bc4:	8a e0       	ldi	r24, 0x0A	; 10
    7bc6:	e8 16       	cp	r14, r24
    7bc8:	f1 04       	cpc	r15, r1
    7bca:	79 f0       	breq	.+30     	; 0x7bea <strtol+0xc2>
    7bcc:	e0 e1       	ldi	r30, 0x10	; 16
    7bce:	ee 16       	cp	r14, r30
    7bd0:	f1 04       	cpc	r15, r1
    7bd2:	11 f5       	brne	.+68     	; 0x7c18 <strtol+0xf0>
    7bd4:	50 e1       	ldi	r21, 0x10	; 16
    7bd6:	e5 2e       	mov	r14, r21
    7bd8:	f1 2c       	mov	r15, r1
    7bda:	81 2c       	mov	r8, r1
    7bdc:	91 2c       	mov	r9, r1
    7bde:	a1 2c       	mov	r10, r1
    7be0:	68 e0       	ldi	r22, 0x08	; 8
    7be2:	b6 2e       	mov	r11, r22
    7be4:	2c c0       	rjmp	.+88     	; 0x7c3e <strtol+0x116>
    7be6:	10 33       	cpi	r17, 0x30	; 48
    7be8:	c9 f2       	breq	.-78     	; 0x7b9c <strtol+0x74>
    7bea:	3a e0       	ldi	r19, 0x0A	; 10
    7bec:	e3 2e       	mov	r14, r19
    7bee:	f1 2c       	mov	r15, r1
    7bf0:	4c ec       	ldi	r20, 0xCC	; 204
    7bf2:	84 2e       	mov	r8, r20
    7bf4:	98 2c       	mov	r9, r8
    7bf6:	a8 2c       	mov	r10, r8
    7bf8:	4c e0       	ldi	r20, 0x0C	; 12
    7bfa:	b4 2e       	mov	r11, r20
    7bfc:	20 c0       	rjmp	.+64     	; 0x7c3e <strtol+0x116>
    7bfe:	10 e3       	ldi	r17, 0x30	; 48
    7c00:	e1 14       	cp	r14, r1
    7c02:	f1 04       	cpc	r15, r1
    7c04:	a9 f6       	brne	.-86     	; 0x7bb0 <strtol+0x88>
    7c06:	98 e0       	ldi	r25, 0x08	; 8
    7c08:	e9 2e       	mov	r14, r25
    7c0a:	f1 2c       	mov	r15, r1
    7c0c:	81 2c       	mov	r8, r1
    7c0e:	91 2c       	mov	r9, r1
    7c10:	a1 2c       	mov	r10, r1
    7c12:	20 e1       	ldi	r18, 0x10	; 16
    7c14:	b2 2e       	mov	r11, r18
    7c16:	13 c0       	rjmp	.+38     	; 0x7c3e <strtol+0x116>
    7c18:	60 e0       	ldi	r22, 0x00	; 0
    7c1a:	70 e0       	ldi	r23, 0x00	; 0
    7c1c:	80 e0       	ldi	r24, 0x00	; 0
    7c1e:	90 e8       	ldi	r25, 0x80	; 128
    7c20:	97 01       	movw	r18, r14
    7c22:	0f 2c       	mov	r0, r15
    7c24:	00 0c       	add	r0, r0
    7c26:	44 0b       	sbc	r20, r20
    7c28:	55 0b       	sbc	r21, r21
    7c2a:	0e 94 45 3c 	call	0x788a	; 0x788a <__udivmodsi4>
    7c2e:	49 01       	movw	r8, r18
    7c30:	5a 01       	movw	r10, r20
    7c32:	05 c0       	rjmp	.+10     	; 0x7c3e <strtol+0x116>
    7c34:	81 2c       	mov	r8, r1
    7c36:	91 2c       	mov	r9, r1
    7c38:	a1 2c       	mov	r10, r1
    7c3a:	80 e4       	ldi	r24, 0x40	; 64
    7c3c:	b8 2e       	mov	r11, r24
    7c3e:	60 e0       	ldi	r22, 0x00	; 0
    7c40:	20 e0       	ldi	r18, 0x00	; 0
    7c42:	30 e0       	ldi	r19, 0x00	; 0
    7c44:	a9 01       	movw	r20, r18
    7c46:	27 01       	movw	r4, r14
    7c48:	0f 2c       	mov	r0, r15
    7c4a:	00 0c       	add	r0, r0
    7c4c:	66 08       	sbc	r6, r6
    7c4e:	77 08       	sbc	r7, r7
    7c50:	1e 01       	movw	r2, r28
    7c52:	e0 ed       	ldi	r30, 0xD0	; 208
    7c54:	e1 0f       	add	r30, r17
    7c56:	ea 30       	cpi	r30, 0x0A	; 10
    7c58:	60 f0       	brcs	.+24     	; 0x7c72 <strtol+0x14a>
    7c5a:	8f eb       	ldi	r24, 0xBF	; 191
    7c5c:	81 0f       	add	r24, r17
    7c5e:	8a 31       	cpi	r24, 0x1A	; 26
    7c60:	10 f4       	brcc	.+4      	; 0x7c66 <strtol+0x13e>
    7c62:	e9 ec       	ldi	r30, 0xC9	; 201
    7c64:	05 c0       	rjmp	.+10     	; 0x7c70 <strtol+0x148>
    7c66:	8f e9       	ldi	r24, 0x9F	; 159
    7c68:	81 0f       	add	r24, r17
    7c6a:	8a 31       	cpi	r24, 0x1A	; 26
    7c6c:	28 f5       	brcc	.+74     	; 0x7cb8 <strtol+0x190>
    7c6e:	e9 ea       	ldi	r30, 0xA9	; 169
    7c70:	e1 0f       	add	r30, r17
    7c72:	8e 2f       	mov	r24, r30
    7c74:	90 e0       	ldi	r25, 0x00	; 0
    7c76:	8e 15       	cp	r24, r14
    7c78:	9f 05       	cpc	r25, r15
    7c7a:	f4 f4       	brge	.+60     	; 0x7cb8 <strtol+0x190>
    7c7c:	67 fd       	sbrc	r22, 7
    7c7e:	18 c0       	rjmp	.+48     	; 0x7cb0 <strtol+0x188>
    7c80:	82 16       	cp	r8, r18
    7c82:	93 06       	cpc	r9, r19
    7c84:	a4 06       	cpc	r10, r20
    7c86:	b5 06       	cpc	r11, r21
    7c88:	90 f0       	brcs	.+36     	; 0x7cae <strtol+0x186>
    7c8a:	c3 01       	movw	r24, r6
    7c8c:	b2 01       	movw	r22, r4
    7c8e:	0e 94 69 3f 	call	0x7ed2	; 0x7ed2 <__mulsi3>
    7c92:	9b 01       	movw	r18, r22
    7c94:	ac 01       	movw	r20, r24
    7c96:	2e 0f       	add	r18, r30
    7c98:	31 1d       	adc	r19, r1
    7c9a:	41 1d       	adc	r20, r1
    7c9c:	51 1d       	adc	r21, r1
    7c9e:	21 30       	cpi	r18, 0x01	; 1
    7ca0:	31 05       	cpc	r19, r1
    7ca2:	41 05       	cpc	r20, r1
    7ca4:	f0 e8       	ldi	r31, 0x80	; 128
    7ca6:	5f 07       	cpc	r21, r31
    7ca8:	10 f4       	brcc	.+4      	; 0x7cae <strtol+0x186>
    7caa:	61 e0       	ldi	r22, 0x01	; 1
    7cac:	01 c0       	rjmp	.+2      	; 0x7cb0 <strtol+0x188>
    7cae:	6f ef       	ldi	r22, 0xFF	; 255
    7cb0:	21 96       	adiw	r28, 0x01	; 1
    7cb2:	f1 01       	movw	r30, r2
    7cb4:	10 81       	ld	r17, Z
    7cb6:	cc cf       	rjmp	.-104    	; 0x7c50 <strtol+0x128>
    7cb8:	80 2f       	mov	r24, r16
    7cba:	81 70       	andi	r24, 0x01	; 1
    7cbc:	c1 14       	cp	r12, r1
    7cbe:	d1 04       	cpc	r13, r1
    7cc0:	71 f0       	breq	.+28     	; 0x7cde <strtol+0x1b6>
    7cc2:	66 23       	and	r22, r22
    7cc4:	29 f0       	breq	.+10     	; 0x7cd0 <strtol+0x1a8>
    7cc6:	21 97       	sbiw	r28, 0x01	; 1
    7cc8:	f6 01       	movw	r30, r12
    7cca:	d1 83       	std	Z+1, r29	; 0x01
    7ccc:	c0 83       	st	Z, r28
    7cce:	07 c0       	rjmp	.+14     	; 0x7cde <strtol+0x1b6>
    7cd0:	01 ff       	sbrs	r16, 1
    7cd2:	19 c0       	rjmp	.+50     	; 0x7d06 <strtol+0x1de>
    7cd4:	22 97       	sbiw	r28, 0x02	; 2
    7cd6:	f6 01       	movw	r30, r12
    7cd8:	d1 83       	std	Z+1, r29	; 0x01
    7cda:	c0 83       	st	Z, r28
    7cdc:	14 c0       	rjmp	.+40     	; 0x7d06 <strtol+0x1de>
    7cde:	67 ff       	sbrs	r22, 7
    7ce0:	12 c0       	rjmp	.+36     	; 0x7d06 <strtol+0x1de>
    7ce2:	81 11       	cpse	r24, r1
    7ce4:	05 c0       	rjmp	.+10     	; 0x7cf0 <strtol+0x1c8>
    7ce6:	2f ef       	ldi	r18, 0xFF	; 255
    7ce8:	3f ef       	ldi	r19, 0xFF	; 255
    7cea:	4f ef       	ldi	r20, 0xFF	; 255
    7cec:	5f e7       	ldi	r21, 0x7F	; 127
    7cee:	04 c0       	rjmp	.+8      	; 0x7cf8 <strtol+0x1d0>
    7cf0:	20 e0       	ldi	r18, 0x00	; 0
    7cf2:	30 e0       	ldi	r19, 0x00	; 0
    7cf4:	40 e0       	ldi	r20, 0x00	; 0
    7cf6:	50 e8       	ldi	r21, 0x80	; 128
    7cf8:	82 e2       	ldi	r24, 0x22	; 34
    7cfa:	90 e0       	ldi	r25, 0x00	; 0
    7cfc:	90 93 b4 05 	sts	0x05B4, r25	; 0x8005b4 <errno+0x1>
    7d00:	80 93 b3 05 	sts	0x05B3, r24	; 0x8005b3 <errno>
    7d04:	16 c0       	rjmp	.+44     	; 0x7d32 <strtol+0x20a>
    7d06:	88 23       	and	r24, r24
    7d08:	41 f0       	breq	.+16     	; 0x7d1a <strtol+0x1f2>
    7d0a:	50 95       	com	r21
    7d0c:	40 95       	com	r20
    7d0e:	30 95       	com	r19
    7d10:	21 95       	neg	r18
    7d12:	3f 4f       	sbci	r19, 0xFF	; 255
    7d14:	4f 4f       	sbci	r20, 0xFF	; 255
    7d16:	5f 4f       	sbci	r21, 0xFF	; 255
    7d18:	0c c0       	rjmp	.+24     	; 0x7d32 <strtol+0x20a>
    7d1a:	57 ff       	sbrs	r21, 7
    7d1c:	0a c0       	rjmp	.+20     	; 0x7d32 <strtol+0x20a>
    7d1e:	82 e2       	ldi	r24, 0x22	; 34
    7d20:	90 e0       	ldi	r25, 0x00	; 0
    7d22:	90 93 b4 05 	sts	0x05B4, r25	; 0x8005b4 <errno+0x1>
    7d26:	80 93 b3 05 	sts	0x05B3, r24	; 0x8005b3 <errno>
    7d2a:	2f ef       	ldi	r18, 0xFF	; 255
    7d2c:	3f ef       	ldi	r19, 0xFF	; 255
    7d2e:	4f ef       	ldi	r20, 0xFF	; 255
    7d30:	5f e7       	ldi	r21, 0x7F	; 127
    7d32:	b9 01       	movw	r22, r18
    7d34:	ca 01       	movw	r24, r20
    7d36:	04 c0       	rjmp	.+8      	; 0x7d40 <strtol+0x218>
    7d38:	60 e0       	ldi	r22, 0x00	; 0
    7d3a:	70 e0       	ldi	r23, 0x00	; 0
    7d3c:	80 e0       	ldi	r24, 0x00	; 0
    7d3e:	90 e0       	ldi	r25, 0x00	; 0
    7d40:	cd b7       	in	r28, 0x3d	; 61
    7d42:	de b7       	in	r29, 0x3e	; 62
    7d44:	e2 e1       	ldi	r30, 0x12	; 18
    7d46:	0c 94 a0 3f 	jmp	0x7f40	; 0x7f40 <__epilogue_restores__>

00007d4a <atoi>:
    7d4a:	fc 01       	movw	r30, r24
    7d4c:	88 27       	eor	r24, r24
    7d4e:	99 27       	eor	r25, r25
    7d50:	e8 94       	clt
    7d52:	21 91       	ld	r18, Z+
    7d54:	20 32       	cpi	r18, 0x20	; 32
    7d56:	e9 f3       	breq	.-6      	; 0x7d52 <atoi+0x8>
    7d58:	29 30       	cpi	r18, 0x09	; 9
    7d5a:	10 f0       	brcs	.+4      	; 0x7d60 <atoi+0x16>
    7d5c:	2e 30       	cpi	r18, 0x0E	; 14
    7d5e:	c8 f3       	brcs	.-14     	; 0x7d52 <atoi+0x8>
    7d60:	2b 32       	cpi	r18, 0x2B	; 43
    7d62:	41 f0       	breq	.+16     	; 0x7d74 <atoi+0x2a>
    7d64:	2d 32       	cpi	r18, 0x2D	; 45
    7d66:	39 f4       	brne	.+14     	; 0x7d76 <atoi+0x2c>
    7d68:	68 94       	set
    7d6a:	04 c0       	rjmp	.+8      	; 0x7d74 <atoi+0x2a>
    7d6c:	0e 94 1f 3f 	call	0x7e3e	; 0x7e3e <__mulhi_const_10>
    7d70:	82 0f       	add	r24, r18
    7d72:	91 1d       	adc	r25, r1
    7d74:	21 91       	ld	r18, Z+
    7d76:	20 53       	subi	r18, 0x30	; 48
    7d78:	2a 30       	cpi	r18, 0x0A	; 10
    7d7a:	c0 f3       	brcs	.-16     	; 0x7d6c <atoi+0x22>
    7d7c:	1e f4       	brtc	.+6      	; 0x7d84 <atoi+0x3a>
    7d7e:	90 95       	com	r25
    7d80:	81 95       	neg	r24
    7d82:	9f 4f       	sbci	r25, 0xFF	; 255
    7d84:	08 95       	ret

00007d86 <isspace>:
    7d86:	91 11       	cpse	r25, r1
    7d88:	0c 94 41 3f 	jmp	0x7e82	; 0x7e82 <__ctype_isfalse>
    7d8c:	80 32       	cpi	r24, 0x20	; 32
    7d8e:	19 f0       	breq	.+6      	; 0x7d96 <isspace+0x10>
    7d90:	89 50       	subi	r24, 0x09	; 9
    7d92:	85 50       	subi	r24, 0x05	; 5
    7d94:	c8 f7       	brcc	.-14     	; 0x7d88 <isspace+0x2>
    7d96:	08 95       	ret

00007d98 <strcasecmp>:
    7d98:	fb 01       	movw	r30, r22
    7d9a:	dc 01       	movw	r26, r24
    7d9c:	8d 91       	ld	r24, X+
    7d9e:	81 34       	cpi	r24, 0x41	; 65
    7da0:	1c f0       	brlt	.+6      	; 0x7da8 <strcasecmp+0x10>
    7da2:	8b 35       	cpi	r24, 0x5B	; 91
    7da4:	0c f4       	brge	.+2      	; 0x7da8 <strcasecmp+0x10>
    7da6:	80 5e       	subi	r24, 0xE0	; 224
    7da8:	61 91       	ld	r22, Z+
    7daa:	61 34       	cpi	r22, 0x41	; 65
    7dac:	1c f0       	brlt	.+6      	; 0x7db4 <strcasecmp+0x1c>
    7dae:	6b 35       	cpi	r22, 0x5B	; 91
    7db0:	0c f4       	brge	.+2      	; 0x7db4 <strcasecmp+0x1c>
    7db2:	60 5e       	subi	r22, 0xE0	; 224
    7db4:	86 1b       	sub	r24, r22
    7db6:	61 11       	cpse	r22, r1
    7db8:	89 f3       	breq	.-30     	; 0x7d9c <strcasecmp+0x4>
    7dba:	99 0b       	sbc	r25, r25
    7dbc:	08 95       	ret

00007dbe <strcat>:
    7dbe:	fb 01       	movw	r30, r22
    7dc0:	dc 01       	movw	r26, r24
    7dc2:	0d 90       	ld	r0, X+
    7dc4:	00 20       	and	r0, r0
    7dc6:	e9 f7       	brne	.-6      	; 0x7dc2 <strcat+0x4>
    7dc8:	11 97       	sbiw	r26, 0x01	; 1
    7dca:	01 90       	ld	r0, Z+
    7dcc:	0d 92       	st	X+, r0
    7dce:	00 20       	and	r0, r0
    7dd0:	e1 f7       	brne	.-8      	; 0x7dca <strcat+0xc>
    7dd2:	08 95       	ret

00007dd4 <strcpy>:
    7dd4:	fb 01       	movw	r30, r22
    7dd6:	dc 01       	movw	r26, r24
    7dd8:	01 90       	ld	r0, Z+
    7dda:	0d 92       	st	X+, r0
    7ddc:	00 20       	and	r0, r0
    7dde:	e1 f7       	brne	.-8      	; 0x7dd8 <strcpy+0x4>
    7de0:	08 95       	ret

00007de2 <strsep>:
    7de2:	fc 01       	movw	r30, r24
    7de4:	a0 81       	ld	r26, Z
    7de6:	b1 81       	ldd	r27, Z+1	; 0x01
    7de8:	ad 01       	movw	r20, r26
    7dea:	10 96       	adiw	r26, 0x00	; 0
    7dec:	81 f0       	breq	.+32     	; 0x7e0e <strsep+0x2c>
    7dee:	3d 91       	ld	r19, X+
    7df0:	fb 01       	movw	r30, r22
    7df2:	01 90       	ld	r0, Z+
    7df4:	03 16       	cp	r0, r19
    7df6:	01 10       	cpse	r0, r1
    7df8:	e1 f7       	brne	.-8      	; 0x7df2 <strsep+0x10>
    7dfa:	c9 f7       	brne	.-14     	; 0x7dee <strsep+0xc>
    7dfc:	00 20       	and	r0, r0
    7dfe:	11 f4       	brne	.+4      	; 0x7e04 <strsep+0x22>
    7e00:	d0 01       	movw	r26, r0
    7e02:	02 c0       	rjmp	.+4      	; 0x7e08 <strsep+0x26>
    7e04:	1e 92       	st	-X, r1
    7e06:	11 96       	adiw	r26, 0x01	; 1
    7e08:	fc 01       	movw	r30, r24
    7e0a:	a0 83       	st	Z, r26
    7e0c:	b1 83       	std	Z+1, r27	; 0x01
    7e0e:	ca 01       	movw	r24, r20
    7e10:	08 95       	ret

00007e12 <itoa>:
    7e12:	45 32       	cpi	r20, 0x25	; 37
    7e14:	51 05       	cpc	r21, r1
    7e16:	20 f4       	brcc	.+8      	; 0x7e20 <itoa+0xe>
    7e18:	42 30       	cpi	r20, 0x02	; 2
    7e1a:	10 f0       	brcs	.+4      	; 0x7e20 <itoa+0xe>
    7e1c:	0c 94 14 3f 	jmp	0x7e28	; 0x7e28 <__itoa_ncheck>
    7e20:	fb 01       	movw	r30, r22
    7e22:	10 82       	st	Z, r1
    7e24:	cb 01       	movw	r24, r22
    7e26:	08 95       	ret

00007e28 <__itoa_ncheck>:
    7e28:	bb 27       	eor	r27, r27
    7e2a:	4a 30       	cpi	r20, 0x0A	; 10
    7e2c:	31 f4       	brne	.+12     	; 0x7e3a <__itoa_ncheck+0x12>
    7e2e:	99 23       	and	r25, r25
    7e30:	22 f4       	brpl	.+8      	; 0x7e3a <__itoa_ncheck+0x12>
    7e32:	bd e2       	ldi	r27, 0x2D	; 45
    7e34:	90 95       	com	r25
    7e36:	81 95       	neg	r24
    7e38:	9f 4f       	sbci	r25, 0xFF	; 255
    7e3a:	0c 94 28 3f 	jmp	0x7e50	; 0x7e50 <__utoa_common>

00007e3e <__mulhi_const_10>:
    7e3e:	7a e0       	ldi	r23, 0x0A	; 10
    7e40:	97 9f       	mul	r25, r23
    7e42:	90 2d       	mov	r25, r0
    7e44:	87 9f       	mul	r24, r23
    7e46:	80 2d       	mov	r24, r0
    7e48:	91 0d       	add	r25, r1
    7e4a:	11 24       	eor	r1, r1
    7e4c:	08 95       	ret

00007e4e <__utoa_ncheck>:
    7e4e:	bb 27       	eor	r27, r27

00007e50 <__utoa_common>:
    7e50:	fb 01       	movw	r30, r22
    7e52:	55 27       	eor	r21, r21
    7e54:	aa 27       	eor	r26, r26
    7e56:	88 0f       	add	r24, r24
    7e58:	99 1f       	adc	r25, r25
    7e5a:	aa 1f       	adc	r26, r26
    7e5c:	a4 17       	cp	r26, r20
    7e5e:	10 f0       	brcs	.+4      	; 0x7e64 <__utoa_common+0x14>
    7e60:	a4 1b       	sub	r26, r20
    7e62:	83 95       	inc	r24
    7e64:	50 51       	subi	r21, 0x10	; 16
    7e66:	b9 f7       	brne	.-18     	; 0x7e56 <__utoa_common+0x6>
    7e68:	a0 5d       	subi	r26, 0xD0	; 208
    7e6a:	aa 33       	cpi	r26, 0x3A	; 58
    7e6c:	08 f0       	brcs	.+2      	; 0x7e70 <__utoa_common+0x20>
    7e6e:	a9 5d       	subi	r26, 0xD9	; 217
    7e70:	a1 93       	st	Z+, r26
    7e72:	00 97       	sbiw	r24, 0x00	; 0
    7e74:	79 f7       	brne	.-34     	; 0x7e54 <__utoa_common+0x4>
    7e76:	b1 11       	cpse	r27, r1
    7e78:	b1 93       	st	Z+, r27
    7e7a:	11 92       	st	Z+, r1
    7e7c:	cb 01       	movw	r24, r22
    7e7e:	0c 94 44 3f 	jmp	0x7e88	; 0x7e88 <strrev>

00007e82 <__ctype_isfalse>:
    7e82:	99 27       	eor	r25, r25
    7e84:	88 27       	eor	r24, r24

00007e86 <__ctype_istrue>:
    7e86:	08 95       	ret

00007e88 <strrev>:
    7e88:	dc 01       	movw	r26, r24
    7e8a:	fc 01       	movw	r30, r24
    7e8c:	67 2f       	mov	r22, r23
    7e8e:	71 91       	ld	r23, Z+
    7e90:	77 23       	and	r23, r23
    7e92:	e1 f7       	brne	.-8      	; 0x7e8c <strrev+0x4>
    7e94:	32 97       	sbiw	r30, 0x02	; 2
    7e96:	04 c0       	rjmp	.+8      	; 0x7ea0 <strrev+0x18>
    7e98:	7c 91       	ld	r23, X
    7e9a:	6d 93       	st	X+, r22
    7e9c:	70 83       	st	Z, r23
    7e9e:	62 91       	ld	r22, -Z
    7ea0:	ae 17       	cp	r26, r30
    7ea2:	bf 07       	cpc	r27, r31
    7ea4:	c8 f3       	brcs	.-14     	; 0x7e98 <strrev+0x10>
    7ea6:	08 95       	ret

00007ea8 <eeprom_read_byte>:
    7ea8:	e1 99       	sbic	0x1c, 1	; 28
    7eaa:	fe cf       	rjmp	.-4      	; 0x7ea8 <eeprom_read_byte>
    7eac:	9f bb       	out	0x1f, r25	; 31
    7eae:	8e bb       	out	0x1e, r24	; 30
    7eb0:	e0 9a       	sbi	0x1c, 0	; 28
    7eb2:	99 27       	eor	r25, r25
    7eb4:	8d b3       	in	r24, 0x1d	; 29
    7eb6:	08 95       	ret

00007eb8 <eeprom_write_byte>:
    7eb8:	26 2f       	mov	r18, r22

00007eba <eeprom_write_r18>:
    7eba:	e1 99       	sbic	0x1c, 1	; 28
    7ebc:	fe cf       	rjmp	.-4      	; 0x7eba <eeprom_write_r18>
    7ebe:	9f bb       	out	0x1f, r25	; 31
    7ec0:	8e bb       	out	0x1e, r24	; 30
    7ec2:	2d bb       	out	0x1d, r18	; 29
    7ec4:	0f b6       	in	r0, 0x3f	; 63
    7ec6:	f8 94       	cli
    7ec8:	e2 9a       	sbi	0x1c, 2	; 28
    7eca:	e1 9a       	sbi	0x1c, 1	; 28
    7ecc:	0f be       	out	0x3f, r0	; 63
    7ece:	01 96       	adiw	r24, 0x01	; 1
    7ed0:	08 95       	ret

00007ed2 <__mulsi3>:
    7ed2:	db 01       	movw	r26, r22
    7ed4:	8f 93       	push	r24
    7ed6:	9f 93       	push	r25
    7ed8:	0e 94 79 3f 	call	0x7ef2	; 0x7ef2 <__muluhisi3>
    7edc:	bf 91       	pop	r27
    7ede:	af 91       	pop	r26
    7ee0:	a2 9f       	mul	r26, r18
    7ee2:	80 0d       	add	r24, r0
    7ee4:	91 1d       	adc	r25, r1
    7ee6:	a3 9f       	mul	r26, r19
    7ee8:	90 0d       	add	r25, r0
    7eea:	b2 9f       	mul	r27, r18
    7eec:	90 0d       	add	r25, r0
    7eee:	11 24       	eor	r1, r1
    7ef0:	08 95       	ret

00007ef2 <__muluhisi3>:
    7ef2:	0e 94 bb 3f 	call	0x7f76	; 0x7f76 <__umulhisi3>
    7ef6:	a5 9f       	mul	r26, r21
    7ef8:	90 0d       	add	r25, r0
    7efa:	b4 9f       	mul	r27, r20
    7efc:	90 0d       	add	r25, r0
    7efe:	a4 9f       	mul	r26, r20
    7f00:	80 0d       	add	r24, r0
    7f02:	91 1d       	adc	r25, r1
    7f04:	11 24       	eor	r1, r1
    7f06:	08 95       	ret

00007f08 <__prologue_saves__>:
    7f08:	2f 92       	push	r2
    7f0a:	3f 92       	push	r3
    7f0c:	4f 92       	push	r4
    7f0e:	5f 92       	push	r5
    7f10:	6f 92       	push	r6
    7f12:	7f 92       	push	r7
    7f14:	8f 92       	push	r8
    7f16:	9f 92       	push	r9
    7f18:	af 92       	push	r10
    7f1a:	bf 92       	push	r11
    7f1c:	cf 92       	push	r12
    7f1e:	df 92       	push	r13
    7f20:	ef 92       	push	r14
    7f22:	ff 92       	push	r15
    7f24:	0f 93       	push	r16
    7f26:	1f 93       	push	r17
    7f28:	cf 93       	push	r28
    7f2a:	df 93       	push	r29
    7f2c:	cd b7       	in	r28, 0x3d	; 61
    7f2e:	de b7       	in	r29, 0x3e	; 62
    7f30:	ca 1b       	sub	r28, r26
    7f32:	db 0b       	sbc	r29, r27
    7f34:	0f b6       	in	r0, 0x3f	; 63
    7f36:	f8 94       	cli
    7f38:	de bf       	out	0x3e, r29	; 62
    7f3a:	0f be       	out	0x3f, r0	; 63
    7f3c:	cd bf       	out	0x3d, r28	; 61
    7f3e:	09 94       	ijmp

00007f40 <__epilogue_restores__>:
    7f40:	2a 88       	ldd	r2, Y+18	; 0x12
    7f42:	39 88       	ldd	r3, Y+17	; 0x11
    7f44:	48 88       	ldd	r4, Y+16	; 0x10
    7f46:	5f 84       	ldd	r5, Y+15	; 0x0f
    7f48:	6e 84       	ldd	r6, Y+14	; 0x0e
    7f4a:	7d 84       	ldd	r7, Y+13	; 0x0d
    7f4c:	8c 84       	ldd	r8, Y+12	; 0x0c
    7f4e:	9b 84       	ldd	r9, Y+11	; 0x0b
    7f50:	aa 84       	ldd	r10, Y+10	; 0x0a
    7f52:	b9 84       	ldd	r11, Y+9	; 0x09
    7f54:	c8 84       	ldd	r12, Y+8	; 0x08
    7f56:	df 80       	ldd	r13, Y+7	; 0x07
    7f58:	ee 80       	ldd	r14, Y+6	; 0x06
    7f5a:	fd 80       	ldd	r15, Y+5	; 0x05
    7f5c:	0c 81       	ldd	r16, Y+4	; 0x04
    7f5e:	1b 81       	ldd	r17, Y+3	; 0x03
    7f60:	aa 81       	ldd	r26, Y+2	; 0x02
    7f62:	b9 81       	ldd	r27, Y+1	; 0x01
    7f64:	ce 0f       	add	r28, r30
    7f66:	d1 1d       	adc	r29, r1
    7f68:	0f b6       	in	r0, 0x3f	; 63
    7f6a:	f8 94       	cli
    7f6c:	de bf       	out	0x3e, r29	; 62
    7f6e:	0f be       	out	0x3f, r0	; 63
    7f70:	cd bf       	out	0x3d, r28	; 61
    7f72:	ed 01       	movw	r28, r26
    7f74:	08 95       	ret

00007f76 <__umulhisi3>:
    7f76:	a2 9f       	mul	r26, r18
    7f78:	b0 01       	movw	r22, r0
    7f7a:	b3 9f       	mul	r27, r19
    7f7c:	c0 01       	movw	r24, r0
    7f7e:	a3 9f       	mul	r26, r19
    7f80:	70 0d       	add	r23, r0
    7f82:	81 1d       	adc	r24, r1
    7f84:	11 24       	eor	r1, r1
    7f86:	91 1d       	adc	r25, r1
    7f88:	b2 9f       	mul	r27, r18
    7f8a:	70 0d       	add	r23, r0
    7f8c:	81 1d       	adc	r24, r1
    7f8e:	11 24       	eor	r1, r1
    7f90:	91 1d       	adc	r25, r1
    7f92:	08 95       	ret

00007f94 <_exit>:
    7f94:	f8 94       	cli

00007f96 <__stop_program>:
    7f96:	ff cf       	rjmp	.-2      	; 0x7f96 <__stop_program>
