
main.elf:     file format elf32-avr

Sections:
Idx Name          Size      VMA       LMA       File off  Algn
  0 .data         00000006  00800100  0000085a  000008ee  2**0
                  CONTENTS, ALLOC, LOAD, DATA
  1 .text         0000085a  00000000  00000000  00000094  2**1
                  CONTENTS, ALLOC, LOAD, READONLY, CODE
  2 .bss          00000025  00800106  00800106  000008f4  2**0
                  ALLOC
  3 .comment      00000030  00000000  00000000  000008f4  2**0
                  CONTENTS, READONLY
  4 .note.gnu.avr.deviceinfo 0000003c  00000000  00000000  00000924  2**2
                  CONTENTS, READONLY
  5 .debug_aranges 00000148  00000000  00000000  00000960  2**0
                  CONTENTS, READONLY, DEBUGGING
  6 .debug_info   0000203b  00000000  00000000  00000aa8  2**0
                  CONTENTS, READONLY, DEBUGGING
  7 .debug_abbrev 00000c7d  00000000  00000000  00002ae3  2**0
                  CONTENTS, READONLY, DEBUGGING
  8 .debug_line   00000d55  00000000  00000000  00003760  2**0
                  CONTENTS, READONLY, DEBUGGING
  9 .debug_frame  000004e0  00000000  00000000  000044b8  2**2
                  CONTENTS, READONLY, DEBUGGING
 10 .debug_str    0000071e  00000000  00000000  00004998  2**0
                  CONTENTS, READONLY, DEBUGGING
 11 .debug_loc    0000175f  00000000  00000000  000050b6  2**0
                  CONTENTS, READONLY, DEBUGGING
 12 .debug_ranges 00000108  00000000  00000000  00006815  2**0
                  CONTENTS, READONLY, DEBUGGING

Disassembly of section .text:

00000000 <__vectors>:
   0:	0c 94 29 01 	jmp	0x252	; 0x252 <__ctors_end>
   4:	0c 94 46 01 	jmp	0x28c	; 0x28c <__bad_interrupt>
   8:	0c 94 46 01 	jmp	0x28c	; 0x28c <__bad_interrupt>
   c:	0c 94 46 01 	jmp	0x28c	; 0x28c <__bad_interrupt>
  10:	0c 94 46 01 	jmp	0x28c	; 0x28c <__bad_interrupt>
  14:	0c 94 46 01 	jmp	0x28c	; 0x28c <__bad_interrupt>
  18:	0c 94 46 01 	jmp	0x28c	; 0x28c <__bad_interrupt>
  1c:	0c 94 46 01 	jmp	0x28c	; 0x28c <__bad_interrupt>
  20:	0c 94 46 01 	jmp	0x28c	; 0x28c <__bad_interrupt>
  24:	0c 94 46 01 	jmp	0x28c	; 0x28c <__bad_interrupt>
  28:	0c 94 46 01 	jmp	0x28c	; 0x28c <__bad_interrupt>
  2c:	0c 94 46 01 	jmp	0x28c	; 0x28c <__bad_interrupt>
  30:	0c 94 46 01 	jmp	0x28c	; 0x28c <__bad_interrupt>
  34:	0c 94 46 01 	jmp	0x28c	; 0x28c <__bad_interrupt>
  38:	0c 94 46 01 	jmp	0x28c	; 0x28c <__bad_interrupt>
  3c:	0c 94 46 01 	jmp	0x28c	; 0x28c <__bad_interrupt>
  40:	0c 94 46 01 	jmp	0x28c	; 0x28c <__bad_interrupt>
  44:	0c 94 46 01 	jmp	0x28c	; 0x28c <__bad_interrupt>
  48:	0c 94 46 01 	jmp	0x28c	; 0x28c <__bad_interrupt>
  4c:	0c 94 46 01 	jmp	0x28c	; 0x28c <__bad_interrupt>
  50:	0c 94 46 01 	jmp	0x28c	; 0x28c <__bad_interrupt>
  54:	0c 94 46 01 	jmp	0x28c	; 0x28c <__bad_interrupt>
  58:	0c 94 46 01 	jmp	0x28c	; 0x28c <__bad_interrupt>
  5c:	0c 94 46 01 	jmp	0x28c	; 0x28c <__bad_interrupt>
  60:	0c 94 46 01 	jmp	0x28c	; 0x28c <__bad_interrupt>
  64:	0c 94 46 01 	jmp	0x28c	; 0x28c <__bad_interrupt>
  68:	0c 94 46 01 	jmp	0x28c	; 0x28c <__bad_interrupt>
  6c:	0c 94 46 01 	jmp	0x28c	; 0x28c <__bad_interrupt>

00000070 <__trampolines_end>:
  70:	48 41       	sbci	r20, 0x18	; 24
  72:	4c 4c       	sbci	r20, 0xCC	; 204
  74:	4f 00       	.word	0x004f	; ????

00000076 <characters>:
  76:	00 00 00 00 00 00 00 5f 00 00 00 03 00 03 00 14     ......._........
  86:	7f 14 7f 14 24 2a 7f 2a 12 26 16 08 34 32 4a 55     ....$*.*.&..42JU
  96:	21 50 00 00 00 03 00 00 00 1c 22 41 00 00 41 22     !P........"A..A"
  a6:	1c 00 22 14 7f 14 22 08 08 3e 08 08 00 00 60 30     .."..."..>....`0
  b6:	00 08 08 08 08 08 00 00 60 60 00 20 10 08 04 02     ........``. ....
  c6:	3e 41 41 41 3e 00 42 7f 40 00 42 61 51 49 46 22     >AAA>.B.@.BaQIF"
  d6:	41 49 49 36 0c 0a 49 7f 48 2f 49 49 49 31 3e 49     AII6..I.H/III1>I
  e6:	49 49 32 01 71 09 05 03 36 49 49 49 36 26 49 49     II2.q...6III6&II
  f6:	49 3e 00 00 36 36 00 00 00 56 36 00 08 14 22 41     I>..66...V6..."A
 106:	00 14 14 14 14 14 41 22 14 08 00 02 01 51 09 06     ......A".....Q..
 116:	3e 41 5d 55 1e 7e 09 09 09 7e 7f 49 49 49 36 3e     >A]U.~...~.III6>
 126:	41 41 41 22 7f 41 41 41 3e 7f 49 49 49 41 7f 09     AAA".AAA>.IIIA..
 136:	09 09 09 3e 41 49 49 3a 7f 08 08 08 7f 00 41 7f     ...>AII:......A.
 146:	41 00 30 40 41 3f 01 7f 08 08 14 63 00 7f 40 40     A.0@A?.....c..@@
 156:	40 7f 04 08 04 7f 7f 02 0c 10 7f 3e 41 41 41 3e     @..........>AAA>
 166:	7f 09 09 09 06 3e 41 51 61 7e 7f 09 19 29 46 26     .....>AQa~...)F&
 176:	49 49 49 32 01 01 7f 01 01 3f 40 40 40 3f 07 18     III2.....?@@@?..
 186:	60 18 07 1f 60 18 60 1f 63 14 08 14 63 03 04 78     `...`.`.c...c..x
 196:	04 03 61 51 49 45 43 00 7f 41 41 00 02 04 08 10     ..aQIEC..AA.....
 1a6:	20 00 41 41 7f 00 04 02 01 02 04 40 40 40 40 40      .AA.......@@@@@
 1b6:	00 01 02 00 00 30 4a 4a 4a 7c 00 7f 44 44 38 38     .....0JJJ|..DD88
 1c6:	44 44 44 00 00 38 44 44 7f 38 54 54 54 18 08 7e     DDD..8DD.8TTT..~
 1d6:	09 01 00 0c 52 52 52 3c 7f 04 04 04 78 00 00 7a     ....RRR<....x..z
 1e6:	00 00 20 40 3a 00 00 7f 10 28 44 00 00 00 7f 00     .. @:....(D.....
 1f6:	00 7c 04 18 04 78 00 78 04 04 78 38 44 44 44 38     .|...x.x..x8DDD8
 206:	7c 14 24 24 18 18 24 24 14 7c 7c 08 04 04 00 48     |.$$..$$.||....H
 216:	54 54 54 24 00 02 3f 42 00 3c 40 40 40 3c 1c 20     TTT$..?B.<@@@<. 
 226:	40 20 1c 3c 40 30 40 3c 44 28 10 28 44 0c 50 50     @ .<@0@<D(.(D.PP
 236:	50 3c 44 64 54 4c 00 08 36 41 41 00 00 00 7f 00     P<DdTL..6AA.....
 246:	00 41 41 36 08 00 08 04 08 10 08 00                 .AA6........

00000252 <__ctors_end>:
 252:	11 24       	eor	r1, r1
 254:	1f be       	out	0x3f, r1	; 63
 256:	cf ef       	ldi	r28, 0xFF	; 255
 258:	d0 e1       	ldi	r29, 0x10	; 16
 25a:	de bf       	out	0x3e, r29	; 62
 25c:	cd bf       	out	0x3d, r28	; 61

0000025e <__do_clear_bss>:
 25e:	21 e0       	ldi	r18, 0x01	; 1
 260:	a6 e0       	ldi	r26, 0x06	; 6
 262:	b1 e0       	ldi	r27, 0x01	; 1
 264:	01 c0       	rjmp	.+2      	; 0x268 <.do_clear_bss_start>

00000266 <.do_clear_bss_loop>:
 266:	1d 92       	st	X+, r1

00000268 <.do_clear_bss_start>:
 268:	ab 32       	cpi	r26, 0x2B	; 43
 26a:	b2 07       	cpc	r27, r18
 26c:	e1 f7       	brne	.-8      	; 0x266 <.do_clear_bss_loop>

0000026e <__do_copy_data>:
 26e:	11 e0       	ldi	r17, 0x01	; 1
 270:	a0 e0       	ldi	r26, 0x00	; 0
 272:	b1 e0       	ldi	r27, 0x01	; 1
 274:	ea e5       	ldi	r30, 0x5A	; 90
 276:	f8 e0       	ldi	r31, 0x08	; 8
 278:	02 c0       	rjmp	.+4      	; 0x27e <__do_copy_data+0x10>
 27a:	05 90       	lpm	r0, Z+
 27c:	0d 92       	st	X+, r0
 27e:	a6 30       	cpi	r26, 0x06	; 6
 280:	b1 07       	cpc	r27, r17
 282:	d9 f7       	brne	.-10     	; 0x27a <__do_copy_data+0xc>
 284:	0e 94 ca 02 	call	0x594	; 0x594 <main>
 288:	0c 94 2b 04 	jmp	0x856	; 0x856 <_exit>

0000028c <__bad_interrupt>:
 28c:	0c 94 00 00 	jmp	0	; 0x0 <__vectors>

00000290 <trigger>:
    }
    v_line(x0+(i-1) ,y0,y ,s,c);
    v_line(x0+(i-1) ,y0-y ,y,s,c);
    v_line(x0-(i-1) ,y0,y ,s,c);
    v_line(x0-(i-1) ,y0-y ,y,s,c);
}
 290:	5c 9a       	sbi	0x0b, 4	; 11
 292:	80 e3       	ldi	r24, 0x30	; 48
 294:	8a 95       	dec	r24
 296:	f1 f7       	brne	.-4      	; 0x294 <trigger+0x4>
 298:	5c 98       	cbi	0x0b, 4	; 11
 29a:	80 e3       	ldi	r24, 0x30	; 48
 29c:	8a 95       	dec	r24
 29e:	f1 f7       	brne	.-4      	; 0x29c <trigger+0xc>
 2a0:	08 95       	ret

000002a2 <glcd_on>:
 2a2:	5d 9a       	sbi	0x0b, 5	; 11
 2a4:	5e 9a       	sbi	0x0b, 6	; 11
 2a6:	5a 98       	cbi	0x0b, 2	; 11
 2a8:	5b 98       	cbi	0x0b, 3	; 11
 2aa:	8f e3       	ldi	r24, 0x3F	; 63
 2ac:	88 b9       	out	0x08, r24	; 8
 2ae:	0e 94 48 01 	call	0x290	; 0x290 <trigger>
 2b2:	08 95       	ret

000002b4 <goto_col>:
 2b4:	5a 98       	cbi	0x0b, 2	; 11
 2b6:	5b 98       	cbi	0x0b, 3	; 11
 2b8:	80 34       	cpi	r24, 0x40	; 64
 2ba:	91 05       	cpc	r25, r1
 2bc:	18 f4       	brcc	.+6      	; 0x2c4 <goto_col+0x10>
 2be:	5d 9a       	sbi	0x0b, 5	; 11
 2c0:	5e 98       	cbi	0x0b, 6	; 11
 2c2:	06 c0       	rjmp	.+12     	; 0x2d0 <goto_col+0x1c>
 2c4:	80 38       	cpi	r24, 0x80	; 128
 2c6:	91 05       	cpc	r25, r1
 2c8:	40 f4       	brcc	.+16     	; 0x2da <goto_col+0x26>
 2ca:	5d 98       	cbi	0x0b, 5	; 11
 2cc:	5e 9a       	sbi	0x0b, 6	; 11
 2ce:	80 54       	subi	r24, 0x40	; 64
 2d0:	8f 73       	andi	r24, 0x3F	; 63
 2d2:	80 64       	ori	r24, 0x40	; 64
 2d4:	88 b9       	out	0x08, r24	; 8
 2d6:	0e 94 48 01 	call	0x290	; 0x290 <trigger>
 2da:	08 95       	ret

000002dc <goto_row>:
 2dc:	5a 98       	cbi	0x0b, 2	; 11
 2de:	5b 98       	cbi	0x0b, 3	; 11
 2e0:	87 70       	andi	r24, 0x07	; 7
 2e2:	88 6b       	ori	r24, 0xB8	; 184
 2e4:	88 b9       	out	0x08, r24	; 8
 2e6:	0e 94 48 01 	call	0x290	; 0x290 <trigger>
 2ea:	08 95       	ret

000002ec <goto_xy>:
 2ec:	cf 93       	push	r28
 2ee:	df 93       	push	r29
 2f0:	eb 01       	movw	r28, r22
 2f2:	0e 94 5a 01 	call	0x2b4	; 0x2b4 <goto_col>
 2f6:	ce 01       	movw	r24, r28
 2f8:	0e 94 6e 01 	call	0x2dc	; 0x2dc <goto_row>
 2fc:	df 91       	pop	r29
 2fe:	cf 91       	pop	r28
 300:	08 95       	ret

00000302 <glcd_write>:
 302:	5a 9a       	sbi	0x0b, 2	; 11
 304:	5b 98       	cbi	0x0b, 3	; 11
 306:	88 b9       	out	0x08, r24	; 8
 308:	85 e3       	ldi	r24, 0x35	; 53
 30a:	8a 95       	dec	r24
 30c:	f1 f7       	brne	.-4      	; 0x30a <glcd_write+0x8>
 30e:	00 00       	nop
 310:	0e 94 48 01 	call	0x290	; 0x290 <trigger>
 314:	08 95       	ret

00000316 <glcd_clrln>:
 316:	cf 93       	push	r28
 318:	df 93       	push	r29
 31a:	c8 2f       	mov	r28, r24
 31c:	d0 e0       	ldi	r29, 0x00	; 0
 31e:	be 01       	movw	r22, r28
 320:	80 e0       	ldi	r24, 0x00	; 0
 322:	90 e0       	ldi	r25, 0x00	; 0
 324:	0e 94 76 01 	call	0x2ec	; 0x2ec <goto_xy>
 328:	be 01       	movw	r22, r28
 32a:	80 e4       	ldi	r24, 0x40	; 64
 32c:	90 e0       	ldi	r25, 0x00	; 0
 32e:	0e 94 76 01 	call	0x2ec	; 0x2ec <goto_xy>
 332:	5d 9a       	sbi	0x0b, 5	; 11
 334:	c0 e4       	ldi	r28, 0x40	; 64
 336:	d0 e0       	ldi	r29, 0x00	; 0
 338:	80 e0       	ldi	r24, 0x00	; 0
 33a:	0e 94 81 01 	call	0x302	; 0x302 <glcd_write>
 33e:	21 97       	sbiw	r28, 0x01	; 1
 340:	d9 f7       	brne	.-10     	; 0x338 <glcd_clrln+0x22>
 342:	df 91       	pop	r29
 344:	cf 91       	pop	r28
 346:	08 95       	ret

00000348 <glcd_clear>:
 348:	cf 93       	push	r28
 34a:	c0 e0       	ldi	r28, 0x00	; 0
 34c:	8c 2f       	mov	r24, r28
 34e:	0e 94 8b 01 	call	0x316	; 0x316 <glcd_clrln>
 352:	cf 5f       	subi	r28, 0xFF	; 255
 354:	c8 30       	cpi	r28, 0x08	; 8
 356:	d1 f7       	brne	.-12     	; 0x34c <glcd_clear+0x4>
 358:	cf 91       	pop	r28
 35a:	08 95       	ret

0000035c <glcd_init>:
 35c:	8f ef       	ldi	r24, 0xFF	; 255
 35e:	87 b9       	out	0x07, r24	; 7
 360:	8a b9       	out	0x0a, r24	; 10
 362:	5f 9a       	sbi	0x0b, 7	; 11
 364:	5f 98       	cbi	0x0b, 7	; 11
 366:	8f ea       	ldi	r24, 0xAF	; 175
 368:	94 e0       	ldi	r25, 0x04	; 4
 36a:	01 97       	sbiw	r24, 0x01	; 1
 36c:	f1 f7       	brne	.-4      	; 0x36a <glcd_init+0xe>
 36e:	00 c0       	rjmp	.+0      	; 0x370 <glcd_init+0x14>
 370:	00 00       	nop
 372:	5f 9a       	sbi	0x0b, 7	; 11
 374:	8f ea       	ldi	r24, 0xAF	; 175
 376:	94 e0       	ldi	r25, 0x04	; 4
 378:	01 97       	sbiw	r24, 0x01	; 1
 37a:	f1 f7       	brne	.-4      	; 0x378 <glcd_init+0x1c>
 37c:	00 c0       	rjmp	.+0      	; 0x37e <glcd_init+0x22>
 37e:	00 00       	nop
 380:	5f 98       	cbi	0x0b, 7	; 11
 382:	8f ea       	ldi	r24, 0xAF	; 175
 384:	94 e0       	ldi	r25, 0x04	; 4
 386:	01 97       	sbiw	r24, 0x01	; 1
 388:	f1 f7       	brne	.-4      	; 0x386 <glcd_init+0x2a>
 38a:	00 c0       	rjmp	.+0      	; 0x38c <glcd_init+0x30>
 38c:	00 00       	nop
 38e:	5f 9a       	sbi	0x0b, 7	; 11
 390:	0e 94 51 01 	call	0x2a2	; 0x2a2 <glcd_on>
 394:	0e 94 a4 01 	call	0x348	; 0x348 <glcd_clear>
 398:	08 95       	ret

0000039a <glcd_read>:
 39a:	17 b8       	out	0x07, r1	; 7
 39c:	5b 9a       	sbi	0x0b, 3	; 11
 39e:	5a 9a       	sbi	0x0b, 2	; 11
 3a0:	80 34       	cpi	r24, 0x40	; 64
 3a2:	18 f4       	brcc	.+6      	; 0x3aa <glcd_read+0x10>
 3a4:	5d 9a       	sbi	0x0b, 5	; 11
 3a6:	5e 98       	cbi	0x0b, 6	; 11
 3a8:	02 c0       	rjmp	.+4      	; 0x3ae <glcd_read+0x14>
 3aa:	5e 9a       	sbi	0x0b, 6	; 11
 3ac:	5d 98       	cbi	0x0b, 5	; 11
 3ae:	85 e0       	ldi	r24, 0x05	; 5
 3b0:	8a 95       	dec	r24
 3b2:	f1 f7       	brne	.-4      	; 0x3b0 <glcd_read+0x16>
 3b4:	00 00       	nop
 3b6:	5c 9a       	sbi	0x0b, 4	; 11
 3b8:	95 e3       	ldi	r25, 0x35	; 53
 3ba:	9a 95       	dec	r25
 3bc:	f1 f7       	brne	.-4      	; 0x3ba <glcd_read+0x20>
 3be:	00 00       	nop
 3c0:	5c 98       	cbi	0x0b, 4	; 11
 3c2:	8a e6       	ldi	r24, 0x6A	; 106
 3c4:	8a 95       	dec	r24
 3c6:	f1 f7       	brne	.-4      	; 0x3c4 <glcd_read+0x2a>
 3c8:	00 c0       	rjmp	.+0      	; 0x3ca <glcd_read+0x30>
 3ca:	5c 9a       	sbi	0x0b, 4	; 11
 3cc:	95 e0       	ldi	r25, 0x05	; 5
 3ce:	9a 95       	dec	r25
 3d0:	f1 f7       	brne	.-4      	; 0x3ce <glcd_read+0x34>
 3d2:	00 00       	nop
 3d4:	86 b1       	in	r24, 0x06	; 6
 3d6:	5c 98       	cbi	0x0b, 4	; 11
 3d8:	95 e0       	ldi	r25, 0x05	; 5
 3da:	9a 95       	dec	r25
 3dc:	f1 f7       	brne	.-4      	; 0x3da <glcd_read+0x40>
 3de:	00 00       	nop
 3e0:	9f ef       	ldi	r25, 0xFF	; 255
 3e2:	97 b9       	out	0x07, r25	; 7
 3e4:	08 95       	ret

000003e6 <point_at>:
 3e6:	df 92       	push	r13
 3e8:	ef 92       	push	r14
 3ea:	ff 92       	push	r15
 3ec:	0f 93       	push	r16
 3ee:	1f 93       	push	r17
 3f0:	cf 93       	push	r28
 3f2:	df 93       	push	r29
 3f4:	f8 2e       	mov	r15, r24
 3f6:	e9 2e       	mov	r14, r25
 3f8:	eb 01       	movw	r28, r22
 3fa:	d4 2e       	mov	r13, r20
 3fc:	8b 01       	movw	r16, r22
 3fe:	16 95       	lsr	r17
 400:	07 95       	ror	r16
 402:	16 95       	lsr	r17
 404:	07 95       	ror	r16
 406:	16 95       	lsr	r17
 408:	07 95       	ror	r16
 40a:	b8 01       	movw	r22, r16
 40c:	0e 94 76 01 	call	0x2ec	; 0x2ec <goto_xy>
 410:	d1 10       	cpse	r13, r1
 412:	10 c0       	rjmp	.+32     	; 0x434 <__LOCK_REGION_LENGTH__+0x34>
 414:	8f 2d       	mov	r24, r15
 416:	0e 94 cd 01 	call	0x39a	; 0x39a <glcd_read>
 41a:	c7 70       	andi	r28, 0x07	; 7
 41c:	dd 27       	eor	r29, r29
 41e:	21 e0       	ldi	r18, 0x01	; 1
 420:	30 e0       	ldi	r19, 0x00	; 0
 422:	02 c0       	rjmp	.+4      	; 0x428 <__LOCK_REGION_LENGTH__+0x28>
 424:	22 0f       	add	r18, r18
 426:	33 1f       	adc	r19, r19
 428:	ca 95       	dec	r28
 42a:	e2 f7       	brpl	.-8      	; 0x424 <__LOCK_REGION_LENGTH__+0x24>
 42c:	20 95       	com	r18
 42e:	c8 2f       	mov	r28, r24
 430:	c2 23       	and	r28, r18
 432:	0e c0       	rjmp	.+28     	; 0x450 <__LOCK_REGION_LENGTH__+0x50>
 434:	8f 2d       	mov	r24, r15
 436:	0e 94 cd 01 	call	0x39a	; 0x39a <glcd_read>
 43a:	c7 70       	andi	r28, 0x07	; 7
 43c:	dd 27       	eor	r29, r29
 43e:	21 e0       	ldi	r18, 0x01	; 1
 440:	30 e0       	ldi	r19, 0x00	; 0
 442:	02 c0       	rjmp	.+4      	; 0x448 <__LOCK_REGION_LENGTH__+0x48>
 444:	22 0f       	add	r18, r18
 446:	33 1f       	adc	r19, r19
 448:	ca 95       	dec	r28
 44a:	e2 f7       	brpl	.-8      	; 0x444 <__LOCK_REGION_LENGTH__+0x44>
 44c:	c8 2f       	mov	r28, r24
 44e:	c2 2b       	or	r28, r18
 450:	b8 01       	movw	r22, r16
 452:	8f 2d       	mov	r24, r15
 454:	9e 2d       	mov	r25, r14
 456:	0e 94 76 01 	call	0x2ec	; 0x2ec <goto_xy>
 45a:	8c 2f       	mov	r24, r28
 45c:	0e 94 81 01 	call	0x302	; 0x302 <glcd_write>
 460:	df 91       	pop	r29
 462:	cf 91       	pop	r28
 464:	1f 91       	pop	r17
 466:	0f 91       	pop	r16
 468:	ff 90       	pop	r15
 46a:	ef 90       	pop	r14
 46c:	df 90       	pop	r13
 46e:	08 95       	ret

00000470 <h_line>:
 470:	af 92       	push	r10
 472:	bf 92       	push	r11
 474:	cf 92       	push	r12
 476:	df 92       	push	r13
 478:	ef 92       	push	r14
 47a:	ff 92       	push	r15
 47c:	0f 93       	push	r16
 47e:	cf 93       	push	r28
 480:	df 93       	push	r29
 482:	6c 01       	movw	r12, r24
 484:	c4 0e       	add	r12, r20
 486:	d1 1c       	adc	r13, r1
 488:	8c 15       	cp	r24, r12
 48a:	9d 05       	cpc	r25, r13
 48c:	88 f4       	brcc	.+34     	; 0x4b0 <h_line+0x40>
 48e:	7b 01       	movw	r14, r22
 490:	2f 5f       	subi	r18, 0xFF	; 255
 492:	a2 2e       	mov	r10, r18
 494:	b1 2c       	mov	r11, r1
 496:	ec 01       	movw	r28, r24
 498:	ca 0d       	add	r28, r10
 49a:	db 1d       	adc	r29, r11
 49c:	40 2f       	mov	r20, r16
 49e:	b7 01       	movw	r22, r14
 4a0:	0e 94 f3 01 	call	0x3e6	; 0x3e6 <point_at>
 4a4:	ce 01       	movw	r24, r28
 4a6:	ca 0d       	add	r28, r10
 4a8:	db 1d       	adc	r29, r11
 4aa:	8c 15       	cp	r24, r12
 4ac:	9d 05       	cpc	r25, r13
 4ae:	b0 f3       	brcs	.-20     	; 0x49c <h_line+0x2c>
 4b0:	df 91       	pop	r29
 4b2:	cf 91       	pop	r28
 4b4:	0f 91       	pop	r16
 4b6:	ff 90       	pop	r15
 4b8:	ef 90       	pop	r14
 4ba:	df 90       	pop	r13
 4bc:	cf 90       	pop	r12
 4be:	bf 90       	pop	r11
 4c0:	af 90       	pop	r10
 4c2:	08 95       	ret

000004c4 <v_line>:
 4c4:	af 92       	push	r10
 4c6:	bf 92       	push	r11
 4c8:	cf 92       	push	r12
 4ca:	df 92       	push	r13
 4cc:	ef 92       	push	r14
 4ce:	ff 92       	push	r15
 4d0:	0f 93       	push	r16
 4d2:	cf 93       	push	r28
 4d4:	df 93       	push	r29
 4d6:	5c 01       	movw	r10, r24
 4d8:	eb 01       	movw	r28, r22
 4da:	6b 01       	movw	r12, r22
 4dc:	c4 0e       	add	r12, r20
 4de:	d5 1e       	adc	r13, r21
 4e0:	6c 15       	cp	r22, r12
 4e2:	7d 05       	cpc	r23, r13
 4e4:	68 f4       	brcc	.+26     	; 0x500 <v_line+0x3c>
 4e6:	2f 5f       	subi	r18, 0xFF	; 255
 4e8:	e2 2e       	mov	r14, r18
 4ea:	f1 2c       	mov	r15, r1
 4ec:	40 2f       	mov	r20, r16
 4ee:	be 01       	movw	r22, r28
 4f0:	c5 01       	movw	r24, r10
 4f2:	0e 94 f3 01 	call	0x3e6	; 0x3e6 <point_at>
 4f6:	ce 0d       	add	r28, r14
 4f8:	df 1d       	adc	r29, r15
 4fa:	cc 15       	cp	r28, r12
 4fc:	dd 05       	cpc	r29, r13
 4fe:	b0 f3       	brcs	.-20     	; 0x4ec <v_line+0x28>
 500:	df 91       	pop	r29
 502:	cf 91       	pop	r28
 504:	0f 91       	pop	r16
 506:	ff 90       	pop	r15
 508:	ef 90       	pop	r14
 50a:	df 90       	pop	r13
 50c:	cf 90       	pop	r12
 50e:	bf 90       	pop	r11
 510:	af 90       	pop	r10
 512:	08 95       	ret

00000514 <rectangle>:
//-----------------------
void rectangle(unsigned int x1,unsigned int y1,
unsigned int x2,unsigned int y2,
byte s,byte c)
{
 514:	8f 92       	push	r8
 516:	9f 92       	push	r9
 518:	af 92       	push	r10
 51a:	bf 92       	push	r11
 51c:	cf 92       	push	r12
 51e:	df 92       	push	r13
 520:	ef 92       	push	r14
 522:	ff 92       	push	r15
 524:	0f 93       	push	r16
 526:	1f 93       	push	r17
 528:	cf 93       	push	r28
 52a:	df 93       	push	r29
 52c:	f8 2e       	mov	r15, r24
 52e:	b9 2e       	mov	r11, r25
 530:	6b 01       	movw	r12, r22
 532:	a4 2e       	mov	r10, r20
 534:	85 2e       	mov	r8, r21
 536:	e9 01       	movw	r28, r18
 538:	10 2f       	mov	r17, r16
    h_line(x1,y1,(x2-x1),s,c);
 53a:	94 2e       	mov	r9, r20
 53c:	98 1a       	sub	r9, r24
 53e:	0e 2d       	mov	r16, r14
 540:	21 2f       	mov	r18, r17
 542:	49 2d       	mov	r20, r9
 544:	0e 94 38 02 	call	0x470	; 0x470 <h_line>
    h_line(x1,y2,(x2-x1),s,c);
 548:	21 2f       	mov	r18, r17
 54a:	49 2d       	mov	r20, r9
 54c:	be 01       	movw	r22, r28
 54e:	8f 2d       	mov	r24, r15
 550:	9b 2d       	mov	r25, r11
 552:	0e 94 38 02 	call	0x470	; 0x470 <h_line>
    v_line(x1,y1,(y2-y1),s,c);
 556:	cc 19       	sub	r28, r12
 558:	dd 09       	sbc	r29, r13
 55a:	21 2f       	mov	r18, r17
 55c:	ae 01       	movw	r20, r28
 55e:	b6 01       	movw	r22, r12
 560:	8f 2d       	mov	r24, r15
 562:	9b 2d       	mov	r25, r11
 564:	0e 94 62 02 	call	0x4c4	; 0x4c4 <v_line>
    v_line(x2,y1,(y2-y1+1),s,c);
 568:	ae 01       	movw	r20, r28
 56a:	4f 5f       	subi	r20, 0xFF	; 255
 56c:	5f 4f       	sbci	r21, 0xFF	; 255
 56e:	21 2f       	mov	r18, r17
 570:	b6 01       	movw	r22, r12
 572:	8a 2d       	mov	r24, r10
 574:	98 2d       	mov	r25, r8
 576:	0e 94 62 02 	call	0x4c4	; 0x4c4 <v_line>
 57a:	df 91       	pop	r29
 57c:	cf 91       	pop	r28
 57e:	1f 91       	pop	r17
 580:	0f 91       	pop	r16
 582:	ff 90       	pop	r15
 584:	ef 90       	pop	r14
 586:	df 90       	pop	r13
 588:	cf 90       	pop	r12
 58a:	bf 90       	pop	r11
 58c:	af 90       	pop	r10
 58e:	9f 90       	pop	r9
 590:	8f 90       	pop	r8
 592:	08 95       	ret

00000594 <main>:
}
}

int main(void) {
//Register Initialisieren
OSCCAL = osccaleradout;
 594:	8d ea       	ldi	r24, 0xAD	; 173
 596:	80 93 66 00 	sts	0x0066, r24	; 0x800066 <__TEXT_REGION_LENGTH__+0x7e0066>
__malloc_margin = 250; //250 Byte Reserve für den Stack, beim malloc() Aufruf!
 59a:	8a ef       	ldi	r24, 0xFA	; 250
 59c:	90 e0       	ldi	r25, 0x00	; 0
 59e:	90 93 05 01 	sts	0x0105, r25	; 0x800105 <__malloc_margin+0x1>
 5a2:	80 93 04 01 	sts	0x0104, r24	; 0x800104 <__malloc_margin>

glcd_init();
 5a6:	0e 94 ae 01 	call	0x35c	; 0x35c <glcd_init>
sei();             //Interrupts aktiviert
 5aa:	78 94       	sei
pong_start();
 5ac:	0e 94 4c 03 	call	0x698	; 0x698 <pong_start>
}
 5b0:	80 e0       	ldi	r24, 0x00	; 0
 5b2:	90 e0       	ldi	r25, 0x00	; 0
 5b4:	08 95       	ret

000005b6 <pong_drawball>:
return play2pos;
}


void pong_drawball(unsigned int x,unsigned int y, byte c)
{
 5b6:	cf 92       	push	r12
 5b8:	df 92       	push	r13
 5ba:	ef 92       	push	r14
 5bc:	ff 92       	push	r15
 5be:	0f 93       	push	r16
 5c0:	1f 93       	push	r17
 5c2:	cf 93       	push	r28
 5c4:	df 93       	push	r29
 5c6:	6c 01       	movw	r12, r24
 5c8:	eb 01       	movw	r28, r22
    h_line(x, y - 1, BALL_SIZE, 0, c);
 5ca:	e4 2e       	mov	r14, r20
 5cc:	f1 2c       	mov	r15, r1
 5ce:	61 50       	subi	r22, 0x01	; 1
 5d0:	71 09       	sbc	r23, r1
 5d2:	87 01       	movw	r16, r14
 5d4:	20 e0       	ldi	r18, 0x00	; 0
 5d6:	30 e0       	ldi	r19, 0x00	; 0
 5d8:	43 e0       	ldi	r20, 0x03	; 3
 5da:	50 e0       	ldi	r21, 0x00	; 0
 5dc:	0e 94 38 02 	call	0x470	; 0x470 <h_line>
    h_line(x, y, BALL_SIZE, 0, c);
 5e0:	20 e0       	ldi	r18, 0x00	; 0
 5e2:	30 e0       	ldi	r19, 0x00	; 0
 5e4:	43 e0       	ldi	r20, 0x03	; 3
 5e6:	50 e0       	ldi	r21, 0x00	; 0
 5e8:	be 01       	movw	r22, r28
 5ea:	c6 01       	movw	r24, r12
 5ec:	0e 94 38 02 	call	0x470	; 0x470 <h_line>
    h_line(x, y + 1, BALL_SIZE, 0, c);
 5f0:	be 01       	movw	r22, r28
 5f2:	6f 5f       	subi	r22, 0xFF	; 255
 5f4:	7f 4f       	sbci	r23, 0xFF	; 255
 5f6:	20 e0       	ldi	r18, 0x00	; 0
 5f8:	30 e0       	ldi	r19, 0x00	; 0
 5fa:	43 e0       	ldi	r20, 0x03	; 3
 5fc:	50 e0       	ldi	r21, 0x00	; 0
 5fe:	c6 01       	movw	r24, r12
 600:	0e 94 38 02 	call	0x470	; 0x470 <h_line>
}
 604:	df 91       	pop	r29
 606:	cf 91       	pop	r28
 608:	1f 91       	pop	r17
 60a:	0f 91       	pop	r16
 60c:	ff 90       	pop	r15
 60e:	ef 90       	pop	r14
 610:	df 90       	pop	r13
 612:	cf 90       	pop	r12
 614:	08 95       	ret

00000616 <pong_draw_field>:
}
}


void pong_draw_field(void) //Spielfeld malen
{
 616:	ef 92       	push	r14
 618:	ff 92       	push	r15
 61a:	0f 93       	push	r16
 61c:	1f 93       	push	r17
    rectangle(FIELD_SPACE,0, FIELD_SIZE + FIELD_SPACE, FIELD_SIZE - 1, 0, 1);   //Feld Umrandung
 61e:	ee 24       	eor	r14, r14
 620:	e3 94       	inc	r14
 622:	f1 2c       	mov	r15, r1
 624:	00 e0       	ldi	r16, 0x00	; 0
 626:	10 e0       	ldi	r17, 0x00	; 0
 628:	2f e3       	ldi	r18, 0x3F	; 63
 62a:	30 e0       	ldi	r19, 0x00	; 0
 62c:	40 e6       	ldi	r20, 0x60	; 96
 62e:	50 e0       	ldi	r21, 0x00	; 0
 630:	60 e0       	ldi	r22, 0x00	; 0
 632:	70 e0       	ldi	r23, 0x00	; 0
 634:	80 e2       	ldi	r24, 0x20	; 32
 636:	90 e0       	ldi	r25, 0x00	; 0
 638:	0e 94 8a 02 	call	0x514	; 0x514 <rectangle>
    v_line(PLAYER_1_RANGE, PLAYER_LINE_START, PLAYER_SIZE, 0, 1);               //Spieler 1 zeichnen
 63c:	01 e0       	ldi	r16, 0x01	; 1
 63e:	10 e0       	ldi	r17, 0x00	; 0
 640:	20 e0       	ldi	r18, 0x00	; 0
 642:	30 e0       	ldi	r19, 0x00	; 0
 644:	4a e0       	ldi	r20, 0x0A	; 10
 646:	50 e0       	ldi	r21, 0x00	; 0
 648:	6b e1       	ldi	r22, 0x1B	; 27
 64a:	70 e0       	ldi	r23, 0x00	; 0
 64c:	82 e2       	ldi	r24, 0x22	; 34
 64e:	90 e0       	ldi	r25, 0x00	; 0
 650:	0e 94 62 02 	call	0x4c4	; 0x4c4 <v_line>
    v_line(PLAYER_2_RANGE, PLAYER_LINE_START, PLAYER_SIZE, 0, 1);               //Spieler 2 zeichnen
 654:	20 e0       	ldi	r18, 0x00	; 0
 656:	30 e0       	ldi	r19, 0x00	; 0
 658:	4a e0       	ldi	r20, 0x0A	; 10
 65a:	50 e0       	ldi	r21, 0x00	; 0
 65c:	6b e1       	ldi	r22, 0x1B	; 27
 65e:	70 e0       	ldi	r23, 0x00	; 0
 660:	8e e5       	ldi	r24, 0x5E	; 94
 662:	90 e0       	ldi	r25, 0x00	; 0
 664:	0e 94 62 02 	call	0x4c4	; 0x4c4 <v_line>
    pong_drawball(FIELD_CENTER_X, FIELD_CENTER_Y, 1);                        //Ball in der Mitte Platzieren
 668:	41 e0       	ldi	r20, 0x01	; 1
 66a:	60 e2       	ldi	r22, 0x20	; 32
 66c:	70 e0       	ldi	r23, 0x00	; 0
 66e:	80 e4       	ldi	r24, 0x40	; 64
 670:	90 e0       	ldi	r25, 0x00	; 0
 672:	0e 94 db 02 	call	0x5b6	; 0x5b6 <pong_drawball>
}
 676:	1f 91       	pop	r17
 678:	0f 91       	pop	r16
 67a:	ff 90       	pop	r15
 67c:	ef 90       	pop	r14
 67e:	08 95       	ret

00000680 <draw_start_screen>:

void draw_start_screen() //Startbildschirm malen
{
    pong_draw_field();
 680:	0e 94 0b 03 	call	0x616	; 0x616 <pong_draw_field>
    
    load_text(pong_Test);
 684:	80 e7       	ldi	r24, 0x70	; 112
 686:	90 e0       	ldi	r25, 0x00	; 0
 688:	0e 94 4f 03 	call	0x69e	; 0x69e <load_text>
    draw_string(64,32, 1);
 68c:	41 e0       	ldi	r20, 0x01	; 1
 68e:	60 e2       	ldi	r22, 0x20	; 32
 690:	80 e4       	ldi	r24, 0x40	; 64
 692:	0e 94 e9 03 	call	0x7d2	; 0x7d2 <draw_string>
 696:	08 95       	ret

00000698 <pong_start>:
u16 points = 0;
struct pong_ballstruct ball = {1,1,0,7};
struct pong_shotstruct shot1 = {0,0,0}, shot2 = {0,0,0};


draw_start_screen();
 698:	0e 94 40 03 	call	0x680	; 0x680 <draw_start_screen>

while(1)
{
    
}
 69c:	ff cf       	rjmp	.-2      	; 0x69c <pong_start+0x4>

0000069e <load_text>:
0x08,0x04,0x08,0x10,0x08,
};


void load_text(PGM_VOID_P x){
  memcpy_P(textbuff,x,36);
 69e:	44 e2       	ldi	r20, 0x24	; 36
 6a0:	50 e0       	ldi	r21, 0x00	; 0
 6a2:	bc 01       	movw	r22, r24
 6a4:	86 e0       	ldi	r24, 0x06	; 6
 6a6:	91 e0       	ldi	r25, 0x01	; 1
 6a8:	0e 94 22 04 	call	0x844	; 0x844 <memcpy_P>
 6ac:	08 95       	ret

000006ae <draw_char>:
}


uint8_t draw_char(uint8_t zeichen, uint8_t posx, uint8_t posy, uint8_t color) 
{
 6ae:	2f 92       	push	r2
 6b0:	3f 92       	push	r3
 6b2:	4f 92       	push	r4
 6b4:	5f 92       	push	r5
 6b6:	6f 92       	push	r6
 6b8:	7f 92       	push	r7
 6ba:	8f 92       	push	r8
 6bc:	9f 92       	push	r9
 6be:	af 92       	push	r10
 6c0:	bf 92       	push	r11
 6c2:	cf 92       	push	r12
 6c4:	df 92       	push	r13
 6c6:	ef 92       	push	r14
 6c8:	ff 92       	push	r15
 6ca:	0f 93       	push	r16
 6cc:	1f 93       	push	r17
 6ce:	cf 93       	push	r28
 6d0:	df 93       	push	r29
 6d2:	cd b7       	in	r28, 0x3d	; 61
 6d4:	de b7       	in	r29, 0x3e	; 62
 6d6:	27 97       	sbiw	r28, 0x07	; 7
 6d8:	0f b6       	in	r0, 0x3f	; 63
 6da:	f8 94       	cli
 6dc:	de bf       	out	0x3e, r29	; 62
 6de:	0f be       	out	0x3f, r0	; 63
 6e0:	cd bf       	out	0x3d, r28	; 61
uint8_t nunbyte,charwidth,nunbit;
uint8_t copyedbytes[5];
uint8_t tempx,tempy;

charwidth = 0;
zeichen -= 32;
 6e2:	80 52       	subi	r24, 0x20	; 32
if (zeichen < 94) { //gültiges Zeichen
 6e4:	8e 35       	cpi	r24, 0x5E	; 94
 6e6:	08 f0       	brcs	.+2      	; 0x6ea <draw_char+0x3c>
 6e8:	59 c0       	rjmp	.+178    	; 0x79c <draw_char+0xee>
 6ea:	22 2e       	mov	r2, r18
 6ec:	14 2f       	mov	r17, r20
 6ee:	6f 83       	std	Y+7, r22	; 0x07
 memcpy_P(copyedbytes,characters+zeichen*5,5);
 6f0:	90 e0       	ldi	r25, 0x00	; 0
 6f2:	bc 01       	movw	r22, r24
 6f4:	66 0f       	add	r22, r22
 6f6:	77 1f       	adc	r23, r23
 6f8:	66 0f       	add	r22, r22
 6fa:	77 1f       	adc	r23, r23
 6fc:	86 0f       	add	r24, r22
 6fe:	97 1f       	adc	r25, r23
 700:	bc 01       	movw	r22, r24
 702:	6a 58       	subi	r22, 0x8A	; 138
 704:	7f 4f       	sbci	r23, 0xFF	; 255
 706:	45 e0       	ldi	r20, 0x05	; 5
 708:	50 e0       	ldi	r21, 0x00	; 0
 70a:	ce 01       	movw	r24, r28
 70c:	01 96       	adiw	r24, 0x01	; 1
 70e:	0e 94 22 04 	call	0x844	; 0x844 <memcpy_P>
 712:	ce 01       	movw	r24, r28
 714:	01 96       	adiw	r24, 0x01	; 1
 716:	3c 01       	movw	r6, r24
 718:	4e 01       	movw	r8, r28
 71a:	96 e0       	ldi	r25, 0x06	; 6
 71c:	89 0e       	add	r8, r25
 71e:	91 1c       	adc	r9, r1
{
uint8_t nunbyte,charwidth,nunbit;
uint8_t copyedbytes[5];
uint8_t tempx,tempy;

charwidth = 0;
 720:	31 2c       	mov	r3, r1
  memcpy_P(textbuff,x,36);
}


uint8_t draw_char(uint8_t zeichen, uint8_t posx, uint8_t posy, uint8_t color) 
{
 722:	1e 83       	std	Y+6, r17	; 0x06
 724:	31 c0       	rjmp	.+98     	; 0x788 <draw_char+0xda>
 726:	e5 2c       	mov	r14, r5
 728:	fc 2c       	mov	r15, r12
if (zeichen < 94) { //gültiges Zeichen
 memcpy_P(copyedbytes,characters+zeichen*5,5);
 //Automatisches verkürzen der Buchstaben
 for (nunbyte = 0; nunbyte < 5;nunbyte++) {
   for (nunbit = 0; nunbit < 7;nunbit++) {
     if ((copyedbytes[nunbyte] & (0x01<<nunbit)) != 0) {
 72a:	f3 01       	movw	r30, r6
 72c:	80 81       	ld	r24, Z
 72e:	90 e0       	ldi	r25, 0x00	; 0
 730:	00 2e       	mov	r0, r16
 732:	02 c0       	rjmp	.+4      	; 0x738 <draw_char+0x8a>
 734:	95 95       	asr	r25
 736:	87 95       	ror	r24
 738:	0a 94       	dec	r0
 73a:	e2 f7       	brpl	.-8      	; 0x734 <draw_char+0x86>
 73c:	80 ff       	sbrs	r24, 0
 73e:	14 c0       	rjmp	.+40     	; 0x768 <draw_char+0xba>
       tempx = posx+charwidth;
       tempy = posy+nunbit;
       if ((tempx < screenx) && (tempy < screeny)) {
 740:	44 20       	and	r4, r4
 742:	94 f0       	brlt	.+36     	; 0x768 <draw_char+0xba>
 744:	ff e3       	ldi	r31, 0x3F	; 63
 746:	fd 15       	cp	r31, r13
 748:	78 f0       	brcs	.+30     	; 0x768 <draw_char+0xba>
         if (color == 0) { //transparent
 74a:	21 10       	cpse	r2, r1
 74c:	07 c0       	rjmp	.+14     	; 0x75c <draw_char+0xae>
           point_at(tempx, tempy, 0);
 74e:	6d 2d       	mov	r22, r13
 750:	70 e0       	ldi	r23, 0x00	; 0
 752:	40 e0       	ldi	r20, 0x00	; 0
 754:	c5 01       	movw	r24, r10
 756:	0e 94 f3 01 	call	0x3e6	; 0x3e6 <point_at>
 75a:	06 c0       	rjmp	.+12     	; 0x768 <draw_char+0xba>
         }else{ //nicht transparent
           point_at(tempx, tempy, 1);
 75c:	6d 2d       	mov	r22, r13
 75e:	70 e0       	ldi	r23, 0x00	; 0
 760:	41 e0       	ldi	r20, 0x01	; 1
 762:	c5 01       	movw	r24, r10
 764:	0e 94 f3 01 	call	0x3e6	; 0x3e6 <point_at>
 768:	0f 5f       	subi	r16, 0xFF	; 255
 76a:	1f 4f       	sbci	r17, 0xFF	; 255
 76c:	d3 94       	inc	r13
zeichen -= 32;
if (zeichen < 94) { //gültiges Zeichen
 memcpy_P(copyedbytes,characters+zeichen*5,5);
 //Automatisches verkürzen der Buchstaben
 for (nunbyte = 0; nunbyte < 5;nunbyte++) {
   for (nunbit = 0; nunbit < 7;nunbit++) {
 76e:	07 30       	cpi	r16, 0x07	; 7
 770:	11 05       	cpc	r17, r1
 772:	c9 f6       	brne	.-78     	; 0x726 <draw_char+0x78>
 774:	8f ef       	ldi	r24, 0xFF	; 255
 776:	68 1a       	sub	r6, r24
 778:	78 0a       	sbc	r7, r24
           point_at(tempx, tempy, 1);
         }
       }   //end: check range
     }     //end: there is a bit to write
   }       //end: inner loop
   if (copyedbytes[nunbyte] != 0) {
 77a:	f7 01       	movw	r30, r14
 77c:	80 81       	ld	r24, Z
 77e:	81 11       	cpse	r24, r1
     charwidth++;
 780:	33 94       	inc	r3
charwidth = 0;
zeichen -= 32;
if (zeichen < 94) { //gültiges Zeichen
 memcpy_P(copyedbytes,characters+zeichen*5,5);
 //Automatisches verkürzen der Buchstaben
 for (nunbyte = 0; nunbyte < 5;nunbyte++) {
 782:	68 14       	cp	r6, r8
 784:	79 04       	cpc	r7, r9
 786:	59 f0       	breq	.+22     	; 0x79e <draw_char+0xf0>
  memcpy_P(textbuff,x,36);
}


uint8_t draw_char(uint8_t zeichen, uint8_t posx, uint8_t posy, uint8_t color) 
{
 788:	de 80       	ldd	r13, Y+6	; 0x06
 78a:	00 e0       	ldi	r16, 0x00	; 0
 78c:	10 e0       	ldi	r17, 0x00	; 0
 78e:	56 2c       	mov	r5, r6
 790:	c7 2c       	mov	r12, r7
 memcpy_P(copyedbytes,characters+zeichen*5,5);
 //Automatisches verkürzen der Buchstaben
 for (nunbyte = 0; nunbyte < 5;nunbyte++) {
   for (nunbit = 0; nunbit < 7;nunbit++) {
     if ((copyedbytes[nunbyte] & (0x01<<nunbit)) != 0) {
       tempx = posx+charwidth;
 792:	4f 80       	ldd	r4, Y+7	; 0x07
 794:	43 0c       	add	r4, r3
       tempy = posy+nunbit;
       if ((tempx < screenx) && (tempy < screeny)) {
         if (color == 0) { //transparent
           point_at(tempx, tempy, 0);
         }else{ //nicht transparent
           point_at(tempx, tempy, 1);
 796:	a4 2c       	mov	r10, r4
 798:	b1 2c       	mov	r11, r1
 79a:	c5 cf       	rjmp	.-118    	; 0x726 <draw_char+0x78>
{
uint8_t nunbyte,charwidth,nunbit;
uint8_t copyedbytes[5];
uint8_t tempx,tempy;

charwidth = 0;
 79c:	31 2c       	mov	r3, r1
     charwidth++;
   }       //end: charwidth++
 }         //end: outer loop
}          //end: valid char
return charwidth++;
}          //end: function
 79e:	83 2d       	mov	r24, r3
 7a0:	27 96       	adiw	r28, 0x07	; 7
 7a2:	0f b6       	in	r0, 0x3f	; 63
 7a4:	f8 94       	cli
 7a6:	de bf       	out	0x3e, r29	; 62
 7a8:	0f be       	out	0x3f, r0	; 63
 7aa:	cd bf       	out	0x3d, r28	; 61
 7ac:	df 91       	pop	r29
 7ae:	cf 91       	pop	r28
 7b0:	1f 91       	pop	r17
 7b2:	0f 91       	pop	r16
 7b4:	ff 90       	pop	r15
 7b6:	ef 90       	pop	r14
 7b8:	df 90       	pop	r13
 7ba:	cf 90       	pop	r12
 7bc:	bf 90       	pop	r11
 7be:	af 90       	pop	r10
 7c0:	9f 90       	pop	r9
 7c2:	8f 90       	pop	r8
 7c4:	7f 90       	pop	r7
 7c6:	6f 90       	pop	r6
 7c8:	5f 90       	pop	r5
 7ca:	4f 90       	pop	r4
 7cc:	3f 90       	pop	r3
 7ce:	2f 90       	pop	r2
 7d0:	08 95       	ret

000007d2 <draw_string>:

void draw_string (uint8_t posx, uint8_t posy, uint8_t color)
{ // Sendet String an Display
 7d2:	bf 92       	push	r11
 7d4:	cf 92       	push	r12
 7d6:	df 92       	push	r13
 7d8:	ef 92       	push	r14
 7da:	ff 92       	push	r15
 7dc:	0f 93       	push	r16
 7de:	1f 93       	push	r17
 7e0:	cf 93       	push	r28
 7e2:	df 93       	push	r29
 7e4:	18 2f       	mov	r17, r24
 7e6:	06 2f       	mov	r16, r22
 7e8:	b4 2e       	mov	r11, r20
uint8_t i = 0;       //welches Zeichen gezeichnet wird
const uint8_t end = strlen(textbuff); //erspart Rechenzeit!
 7ea:	e6 e0       	ldi	r30, 0x06	; 6
 7ec:	f1 e0       	ldi	r31, 0x01	; 1
 7ee:	01 90       	ld	r0, Z+
 7f0:	00 20       	and	r0, r0
 7f2:	e9 f7       	brne	.-6      	; 0x7ee <draw_string+0x1c>
 7f4:	31 97       	sbiw	r30, 0x01	; 1
 7f6:	e6 50       	subi	r30, 0x06	; 6
 7f8:	f1 40       	sbci	r31, 0x01	; 1
while (i < end) {
 7fa:	ee 23       	and	r30, r30
 7fc:	c9 f0       	breq	.+50     	; 0x830 <draw_string+0x5e>
 7fe:	0f 2e       	mov	r0, r31
 800:	f6 e0       	ldi	r31, 0x06	; 6
 802:	cf 2e       	mov	r12, r31
 804:	f1 e0       	ldi	r31, 0x01	; 1
 806:	df 2e       	mov	r13, r31
 808:	f0 2d       	mov	r31, r0
 80a:	e1 50       	subi	r30, 0x01	; 1
 80c:	f0 e0       	ldi	r31, 0x00	; 0
 80e:	cf 01       	movw	r24, r30
 810:	89 5f       	subi	r24, 0xF9	; 249
 812:	9e 4f       	sbci	r25, 0xFE	; 254
 814:	7c 01       	movw	r14, r24
 816:	e6 01       	movw	r28, r12
 818:	6c 2f       	mov	r22, r28
 81a:	6c 19       	sub	r22, r12
 posx += draw_char(textbuff[i], posx+i, posy, color);
 81c:	61 0f       	add	r22, r17
 81e:	2b 2d       	mov	r18, r11
 820:	40 2f       	mov	r20, r16
 822:	89 91       	ld	r24, Y+
 824:	0e 94 57 03 	call	0x6ae	; 0x6ae <draw_char>
 828:	18 0f       	add	r17, r24

void draw_string (uint8_t posx, uint8_t posy, uint8_t color)
{ // Sendet String an Display
uint8_t i = 0;       //welches Zeichen gezeichnet wird
const uint8_t end = strlen(textbuff); //erspart Rechenzeit!
while (i < end) {
 82a:	ce 15       	cp	r28, r14
 82c:	df 05       	cpc	r29, r15
 82e:	a1 f7       	brne	.-24     	; 0x818 <draw_string+0x46>
 posx += draw_char(textbuff[i], posx+i, posy, color);
  i++;  // Zeiger um 1 erhöhen
}
}
 830:	df 91       	pop	r29
 832:	cf 91       	pop	r28
 834:	1f 91       	pop	r17
 836:	0f 91       	pop	r16
 838:	ff 90       	pop	r15
 83a:	ef 90       	pop	r14
 83c:	df 90       	pop	r13
 83e:	cf 90       	pop	r12
 840:	bf 90       	pop	r11
 842:	08 95       	ret

00000844 <memcpy_P>:
 844:	fb 01       	movw	r30, r22
 846:	dc 01       	movw	r26, r24
 848:	02 c0       	rjmp	.+4      	; 0x84e <memcpy_P+0xa>
 84a:	05 90       	lpm	r0, Z+
 84c:	0d 92       	st	X+, r0
 84e:	41 50       	subi	r20, 0x01	; 1
 850:	50 40       	sbci	r21, 0x00	; 0
 852:	d8 f7       	brcc	.-10     	; 0x84a <memcpy_P+0x6>
 854:	08 95       	ret

00000856 <_exit>:
 856:	f8 94       	cli

00000858 <__stop_program>:
 858:	ff cf       	rjmp	.-2      	; 0x858 <__stop_program>
